                              1 ;--------------------------------------------------------
                              2 ; File Created by SDCC : FreeWare ANSI-C Compiler
                              3 ; Version 2.3.1 Sun Apr 28 14:10:26 2019
                              4 
                              5 ;--------------------------------------------------------
                              6 	.module lcc26890
                              7 	
                              8 ;--------------------------------------------------------
                              9 ; Public variables in this module
                             10 ;--------------------------------------------------------
                             11 	.globl _dt
                             12 	.globl _l1_scene_3_anim
                             13 	.globl _level_1_ctrl
                             14 	.globl _level_1_bkg_start
                             15 	.globl _l1_scene_1
                             16 	.globl _level_1_sprite_setup
                             17 	.globl _enter_miner
                             18 	.globl _miner_intro_setup
                             19 	.globl _miner_intro
                             20 	.globl _l1_scene_3_setup
                             21 	.globl _l1_scene_3_animate
                             22 	.globl _l1_scene_3_text_setup
                             23 	.globl _l1_scene_3
                             24 	.globl _asakawa_shoots_anim
                             25 ;--------------------------------------------------------
                             26 ; special function registers
                             27 ;--------------------------------------------------------
                             28 ;--------------------------------------------------------
                             29 ; special function bits 
                             30 ;--------------------------------------------------------
                             31 ;--------------------------------------------------------
                             32 ; internal ram data
                             33 ;--------------------------------------------------------
                             34 	.area _DATA
   0000                      35 _l1_scene_3_anim::
   0000                      36 	.ds 1
   0001                      37 _dt::
   0001                      38 	.ds 2
                             39 ;--------------------------------------------------------
                             40 ; overlayable items in internal ram 
                             41 ;--------------------------------------------------------
                             42 	.area _OVERLAY
                             43 ;--------------------------------------------------------
                             44 ; indirectly addressable internal ram data
                             45 ;--------------------------------------------------------
                             46 	.area _ISEG
                             47 ;--------------------------------------------------------
                             48 ; bit data
                             49 ;--------------------------------------------------------
                             50 	.area _BSEG
                             51 ;--------------------------------------------------------
                             52 ; external ram data
                             53 ;--------------------------------------------------------
                             54 	.area _XSEG
                             55 ;--------------------------------------------------------
                             56 ; global & static initialisations
                             57 ;--------------------------------------------------------
                             58 	.area _GSINIT
                             59 	.area _GSFINAL
                             60 	.area _GSINIT
                             61 ;	level_1/level_1.c 12
                             62 ;	genAssign
                             63 ;	AOP_HL for _l1_scene_3_anim
   0000 21 00 00             64 	ld	hl,#_l1_scene_3_anim
   0003 36 00                65 	ld	(hl),#0x00
                             66 ;	level_1/level_1.c 13
                             67 ;	genAssign
                             68 ;	AOP_HL for _dt
   0005 21 01 00             69 	ld	hl,#_dt
   0008 36 DC                70 	ld	(hl),#0xDC
   000A 23                   71 	inc	hl
   000B 36 05                72 	ld	(hl),#0x05
                             73 ;--------------------------------------------------------
                             74 ; Home
                             75 ;--------------------------------------------------------
                             76 	.area _HOME
                             77 	.area _CODE
                             78 ;--------------------------------------------------------
                             79 ; code
                             80 ;--------------------------------------------------------
                             81 	.area _CODE
                             82 ;	level_1/level_1.c 16
                             83 ;	genLabel
                             84 ;	genFunction
                             85 ;	---------------------------------
                             86 ; Function level_1_ctrl
                             87 ; ---------------------------------
   0000                      88 ___level_1_ctrl_start:
   0000                      89 _level_1_ctrl:
                             90 	
                             91 ;	level_1/level_1.c 18
                             92 ;	genIpush
                             93 ; _saveRegsForCall: sendSetSize: 0 deInUse: 0 bcInUse: 0 deSending: 0
   0000 21 00 00             94 	ld	hl,#_bkg_palette
   0003 E5                   95 	push	hl
                             96 ;	genIpush
   0004 21 00 01             97 	ld	hl,#0x0100
   0007 E5                   98 	push	hl
                             99 ;	genCall
   0008 CD 00 00            100 	call	_set_bkg_palette
   000B E8 04               101 	lda	sp,4(sp)
                            102 ;	level_1/level_1.c 20
                            103 ;	genIpush
                            104 ; _saveRegsForCall: sendSetSize: 0 deInUse: 0 bcInUse: 0 deSending: 0
   000D 21 00 00            105 	ld	hl,#_sprite_palette
   0010 E5                  106 	push	hl
                            107 ;	genIpush
   0011 21 00 02            108 	ld	hl,#0x0200
   0014 E5                  109 	push	hl
                            110 ;	genCall
   0015 CD 00 00            111 	call	_set_sprite_palette
   0018 E8 04               112 	lda	sp,4(sp)
                            113 ;	level_1/level_1.c 23
                            114 ;	genCall
                            115 ; _saveRegsForCall: sendSetSize: 0 deInUse: 0 bcInUse: 0 deSending: 0
   001A CD 00 00            116 	call	_wait_vbl_done
                            117 ;	level_1/level_1.c 24
                            118 ;	genCall
                            119 ; _saveRegsForCall: sendSetSize: 0 deInUse: 0 bcInUse: 0 deSending: 0
   001D CD 7D 00            120 	call	_level_1_bkg_start
                            121 ;	level_1/level_1.c 25
                            122 ;	genCall
                            123 ; _saveRegsForCall: sendSetSize: 0 deInUse: 0 bcInUse: 0 deSending: 0
   0020 CD 2B 02            124 	call	_l1_scene_1
                            125 ;	level_1/level_1.c 26
                            126 ;	genAssign
                            127 ;	AOP_HL for _i
   0023 21 00 00            128 	ld	hl,#_i
   0026 36 00               129 	ld	(hl),#0x00
                            130 ;	level_1/level_1.c 27
                            131 ;	genLabel
   0028                     132 00101$:
                            133 ;	genCall
                            134 ; _saveRegsForCall: sendSetSize: 0 deInUse: 0 bcInUse: 0 deSending: 0
   0028 CD 49 05            135 	call	_enter_miner
   002B 42                  136 	ld	b,d
   002C 4B                  137 	ld	c,e
                            138 ;	genCmpEq
                            139 ; genCmpEq: left 2, right 2, result 0
   002D 79                  140 	ld	a,c
   002E B0                  141 	or	a,b
   002F C2 40 00            142 	jp	nz,00103$
   0032 18 03               143 	jr	00114$
   0034                     144 00113$:
   0034 C3 40 00            145 	jp	00103$
   0037                     146 00114$:
                            147 ;	level_1/level_1.c 29
                            148 ;	genCall
                            149 ; _saveRegsForCall: sendSetSize: 0 deInUse: 0 bcInUse: 0 deSending: 0
   0037 CD 49 05            150 	call	_enter_miner
                            151 ;	level_1/level_1.c 30
                            152 ;	genCall
                            153 ; _saveRegsForCall: sendSetSize: 0 deInUse: 0 bcInUse: 0 deSending: 0
   003A CD 00 00            154 	call	_wait_vbl_done
                            155 ;	genGoto
   003D C3 28 00            156 	jp	00101$
                            157 ;	genLabel
   0040                     158 00103$:
                            159 ;	level_1/level_1.c 32
                            160 ;	genIpush
                            161 ; _saveRegsForCall: sendSetSize: 0 deInUse: 0 bcInUse: 0 deSending: 0
   0040 3E 00               162 	ld	a,#0x00
   0042 F5                  163 	push	af
   0043 33                  164 	inc	sp
                            165 ;	genCall
   0044 CD 00 00            166 	call	_sprite_clean
   0047 E8 01               167 	lda	sp,1(sp)
                            168 ;	level_1/level_1.c 33
                            169 ;	genAssign
                            170 ;	AOP_HL for _LETTER_COUNT
   0049 21 00 00            171 	ld	hl,#_LETTER_COUNT
   004C 36 00               172 	ld	(hl),#0x00
                            173 ;	level_1/level_1.c 34
                            174 ;	genCall
                            175 ; _saveRegsForCall: sendSetSize: 0 deInUse: 0 bcInUse: 0 deSending: 0
   004E CD B7 06            176 	call	_miner_intro_setup
                            177 ;	level_1/level_1.c 35
                            178 ;	genCall
                            179 ; _saveRegsForCall: sendSetSize: 0 deInUse: 0 bcInUse: 0 deSending: 0
   0051 CD 75 07            180 	call	_miner_intro
                            181 ;	level_1/level_1.c 36
                            182 ;	genAssign
                            183 ;	AOP_HL for _l1_scene_3_anim
   0054 21 00 00            184 	ld	hl,#_l1_scene_3_anim
   0057 36 00               185 	ld	(hl),#0x00
                            186 ;	level_1/level_1.c 37
                            187 ;	genCall
                            188 ; _saveRegsForCall: sendSetSize: 0 deInUse: 0 bcInUse: 0 deSending: 0
   0059 CD 81 0A            189 	call	_l1_scene_3_setup
                            190 ;	level_1/level_1.c 38
                            191 ;	genLabel
   005C                     192 00104$:
                            193 ;	genCmpLt
                            194 ;	AOP_HL for _l1_scene_3_anim
   005C 21 00 00            195 	ld	hl,#_l1_scene_3_anim
   005F 7E                  196 	ld	a,(hl)
   0060 FE 03               197 	cp	#0x03
   0062 D2 6E 00            198 	jp	nc,00106$
                            199 ;	level_1/level_1.c 40
                            200 ;	genCall
                            201 ; _saveRegsForCall: sendSetSize: 0 deInUse: 0 bcInUse: 0 deSending: 0
   0065 CD 0F 0D            202 	call	_l1_scene_3_animate
                            203 ;	level_1/level_1.c 41
                            204 ;	genCall
                            205 ; _saveRegsForCall: sendSetSize: 0 deInUse: 0 bcInUse: 0 deSending: 0
   0068 CD 00 00            206 	call	_wait_vbl_done
                            207 ;	genGoto
   006B C3 5C 00            208 	jp	00104$
                            209 ;	genLabel
   006E                     210 00106$:
                            211 ;	level_1/level_1.c 43
                            212 ;	genCall
                            213 ; _saveRegsForCall: sendSetSize: 0 deInUse: 0 bcInUse: 0 deSending: 0
   006E CD C7 0E            214 	call	_l1_scene_3_text_setup
                            215 ;	level_1/level_1.c 44
                            216 ;	genCall
                            217 ; _saveRegsForCall: sendSetSize: 0 deInUse: 0 bcInUse: 0 deSending: 0
   0071 CD 20 0F            218 	call	_l1_scene_3
                            219 ;	level_1/level_1.c 45
                            220 ;	genAssign
                            221 ;	AOP_HL for _ENEMY
   0074 21 00 00            222 	ld	hl,#_ENEMY
   0077 36 00               223 	ld	(hl),#0x00
                            224 ;	level_1/level_1.c 46
                            225 ;	genCall
                            226 ; _saveRegsForCall: sendSetSize: 0 deInUse: 0 bcInUse: 0 deSending: 0
   0079 CD 00 00            227 	call	_asakawa_battle_ctrl
                            228 ;	genLabel
   007C                     229 00107$:
                            230 ;	genEndFunction
                            231 	
   007C C9                  232 	ret
   007D                     233 ___level_1_ctrl_end:
                            234 ;	level_1/level_1.c 53
                            235 ;	genLabel
                            236 ;	genFunction
                            237 ;	---------------------------------
                            238 ; Function level_1_bkg_start
                            239 ; ---------------------------------
   007D                     240 ___level_1_bkg_start_start:
   007D                     241 _level_1_bkg_start:
   007D E8 FD               242 	lda	sp,-3(sp)
                            243 ;	level_1/level_1.c 55
                            244 ;	genCall
                            245 ; _saveRegsForCall: sendSetSize: 0 deInUse: 0 bcInUse: 0 deSending: 0
   007F CD 00 00            246 	call	_display_off
                            247 ;	level_1/level_1.c 56
                            248 ;	genAssign
   0082 01 40 FF            249 	ld	bc,#0xFF40
                            250 ;	genAssign
                            251 ;	AOP_STK for _level_1_bkg_start_sloc0_1_0
   0085 F8 01               252 	lda	hl,1(sp)
   0087 36 40               253 	ld	(hl),#0x40
   0089 23                  254 	inc	hl
   008A 36 FF               255 	ld	(hl),#0xFF
                            256 ;	genPointerGet
                            257 ;	AOP_STK for _level_1_bkg_start_sloc0_1_0
                            258 ;	AOP_STK for _level_1_bkg_start_sloc1_1_0
   008C 2B                  259 	dec	hl
   008D 5E                  260 	ld	e,(hl)
   008E 23                  261 	inc	hl
   008F 56                  262 	ld	d,(hl)
   0090 1A                  263 	ld	a,(de)
   0091 2B                  264 	dec	hl
   0092 2B                  265 	dec	hl
                            266 ;	genAnd
                            267 ;	AOP_STK for _level_1_bkg_start_sloc1_1_0
   0093 77                  268 	ld      (hl),a
   0094 7F                  269 	ld      a,a
   0095 E6 DF               270 	and	a,#0xDF
                            271 ;	genAssign (pointer)
   0097 02                  272 	ld	(bc),a
                            273 ;	level_1/level_1.c 57
                            274 ;	genAssign
   0098 01 40 FF            275 	ld	bc,#0xFF40
                            276 ;	genAssign
                            277 ;	AOP_STK for _level_1_bkg_start_sloc0_1_0
   009B 23                  278 	inc	hl
   009C 36 40               279 	ld	(hl),#0x40
   009E 23                  280 	inc	hl
   009F 36 FF               281 	ld	(hl),#0xFF
                            282 ;	genPointerGet
                            283 ;	AOP_STK for _level_1_bkg_start_sloc0_1_0
                            284 ;	AOP_STK for _level_1_bkg_start_sloc1_1_0
   00A1 2B                  285 	dec	hl
   00A2 5E                  286 	ld	e,(hl)
   00A3 23                  287 	inc	hl
   00A4 56                  288 	ld	d,(hl)
   00A5 1A                  289 	ld	a,(de)
   00A6 2B                  290 	dec	hl
   00A7 2B                  291 	dec	hl
                            292 ;	genAnd
                            293 ;	AOP_STK for _level_1_bkg_start_sloc1_1_0
   00A8 77                  294 	ld      (hl),a
   00A9 7F                  295 	ld      a,a
   00AA E6 FE               296 	and	a,#0xFE
                            297 ;	genAssign (pointer)
   00AC 02                  298 	ld	(bc),a
                            299 ;	level_1/level_1.c 58
                            300 ;	genAssign
   00AD 01 40 FF            301 	ld	bc,#0xFF40
                            302 ;	genAssign
                            303 ;	AOP_STK for _level_1_bkg_start_sloc0_1_0
   00B0 23                  304 	inc	hl
   00B1 36 40               305 	ld	(hl),#0x40
   00B3 23                  306 	inc	hl
   00B4 36 FF               307 	ld	(hl),#0xFF
                            308 ;	genPointerGet
                            309 ;	AOP_STK for _level_1_bkg_start_sloc0_1_0
                            310 ;	AOP_STK for _level_1_bkg_start_sloc1_1_0
   00B6 2B                  311 	dec	hl
   00B7 5E                  312 	ld	e,(hl)
   00B8 23                  313 	inc	hl
   00B9 56                  314 	ld	d,(hl)
   00BA 1A                  315 	ld	a,(de)
   00BB 2B                  316 	dec	hl
   00BC 2B                  317 	dec	hl
                            318 ;	genAnd
                            319 ;	AOP_STK for _level_1_bkg_start_sloc1_1_0
   00BD 77                  320 	ld      (hl),a
   00BE 7F                  321 	ld      a,a
   00BF E6 FD               322 	and	a,#0xFD
                            323 ;	genAssign (pointer)
   00C1 02                  324 	ld	(bc),a
                            325 ;	level_1/level_1.c 59
                            326 ;	genIpush
                            327 ; _saveRegsForCall: sendSetSize: 0 deInUse: 0 bcInUse: 0 deSending: 0
   00C2 3E 00               328 	ld	a,#0x00
   00C4 F5                  329 	push	af
   00C5 33                  330 	inc	sp
                            331 ;	genCall
   00C6 CD 00 00            332 	call	_sprite_clean
   00C9 E8 01               333 	lda	sp,1(sp)
                            334 ;	level_1/level_1.c 60
                            335 ;	genAssign
                            336 ;	AOP_HL for _LETTER_COUNT
   00CB 21 00 00            337 	ld	hl,#_LETTER_COUNT
   00CE 36 00               338 	ld	(hl),#0x00
                            339 ;	level_1/level_1.c 61
                            340 ;	genAssign
   00D0 01 40 FF            341 	ld	bc,#0xFF40
                            342 ;	genAssign
                            343 ;	AOP_STK for _level_1_bkg_start_sloc0_1_0
   00D3 F8 01               344 	lda	hl,1(sp)
   00D5 36 40               345 	ld	(hl),#0x40
   00D7 23                  346 	inc	hl
   00D8 36 FF               347 	ld	(hl),#0xFF
                            348 ;	genPointerGet
                            349 ;	AOP_STK for _level_1_bkg_start_sloc0_1_0
                            350 ;	AOP_STK for _level_1_bkg_start_sloc1_1_0
   00DA 2B                  351 	dec	hl
   00DB 5E                  352 	ld	e,(hl)
   00DC 23                  353 	inc	hl
   00DD 56                  354 	ld	d,(hl)
   00DE 1A                  355 	ld	a,(de)
   00DF 2B                  356 	dec	hl
   00E0 2B                  357 	dec	hl
                            358 ;	genOr
                            359 ;	AOP_STK for _level_1_bkg_start_sloc1_1_0
   00E1 77                  360 	ld      (hl),a
   00E2 7F                  361 	ld      a,a
   00E3 F6 01               362 	or	a,#0x01
                            363 ;	genAssign (pointer)
   00E5 02                  364 	ld	(bc),a
                            365 ;	level_1/level_1.c 62
                            366 ;	genAssign
   00E6 01 40 FF            367 	ld	bc,#0xFF40
                            368 ;	genAssign
                            369 ;	AOP_STK for _level_1_bkg_start_sloc0_1_0
   00E9 23                  370 	inc	hl
   00EA 36 40               371 	ld	(hl),#0x40
   00EC 23                  372 	inc	hl
   00ED 36 FF               373 	ld	(hl),#0xFF
                            374 ;	genPointerGet
                            375 ;	AOP_STK for _level_1_bkg_start_sloc0_1_0
                            376 ;	AOP_STK for _level_1_bkg_start_sloc1_1_0
   00EF 2B                  377 	dec	hl
   00F0 5E                  378 	ld	e,(hl)
   00F1 23                  379 	inc	hl
   00F2 56                  380 	ld	d,(hl)
   00F3 1A                  381 	ld	a,(de)
   00F4 2B                  382 	dec	hl
   00F5 2B                  383 	dec	hl
                            384 ;	genOr
                            385 ;	AOP_STK for _level_1_bkg_start_sloc1_1_0
   00F6 77                  386 	ld      (hl),a
   00F7 7F                  387 	ld      a,a
   00F8 F6 02               388 	or	a,#0x02
                            389 ;	genAssign (pointer)
   00FA 02                  390 	ld	(bc),a
                            391 ;	level_1/level_1.c 63
                            392 ;	genAssign
   00FB 01 40 FF            393 	ld	bc,#0xFF40
                            394 ;	genAssign
                            395 ;	AOP_STK for _level_1_bkg_start_sloc0_1_0
   00FE 23                  396 	inc	hl
   00FF 36 40               397 	ld	(hl),#0x40
   0101 23                  398 	inc	hl
   0102 36 FF               399 	ld	(hl),#0xFF
                            400 ;	genPointerGet
                            401 ;	AOP_STK for _level_1_bkg_start_sloc0_1_0
                            402 ;	AOP_STK for _level_1_bkg_start_sloc1_1_0
   0104 2B                  403 	dec	hl
   0105 5E                  404 	ld	e,(hl)
   0106 23                  405 	inc	hl
   0107 56                  406 	ld	d,(hl)
   0108 1A                  407 	ld	a,(de)
   0109 2B                  408 	dec	hl
   010A 2B                  409 	dec	hl
                            410 ;	genOr
                            411 ;	AOP_STK for _level_1_bkg_start_sloc1_1_0
   010B 77                  412 	ld      (hl),a
   010C 7F                  413 	ld      a,a
   010D F6 80               414 	or	a,#0x80
                            415 ;	genAssign (pointer)
   010F 02                  416 	ld	(bc),a
                            417 ;	level_1/level_1.c 65
                            418 ;	genIpush
                            419 ; _saveRegsForCall: sendSetSize: 0 deInUse: 0 bcInUse: 0 deSending: 0
   0110 21 30 40            420 	ld	hl,#0x4030
   0113 E5                  421 	push	hl
                            422 ;	genIpush
   0114 21 F8 01            423 	ld	hl,#__str_0
   0117 E5                  424 	push	hl
                            425 ;	genCall
   0118 CD 00 00            426 	call	_print
   011B E8 04               427 	lda	sp,4(sp)
                            428 ;	level_1/level_1.c 66
                            429 ;	genIpush
                            430 ; _saveRegsForCall: sendSetSize: 0 deInUse: 0 bcInUse: 0 deSending: 0
                            431 ;	AOP_HL for _dt
   011D 21 01 00            432 	ld	hl,#_dt
   0120 2A                  433 	ld	a,(hl+)
   0121 66                  434 	ld	h,(hl)
   0122 6F                  435 	ld	l,a
   0123 E5                  436 	push	hl
                            437 ;	genCall
   0124 CD 00 00            438 	call	_delay
   0127 E8 02               439 	lda	sp,2(sp)
                            440 ;	level_1/level_1.c 67
                            441 ;	genIpush
                            442 ; _saveRegsForCall: sendSetSize: 0 deInUse: 0 bcInUse: 0 deSending: 0
   0129 3E 00               443 	ld	a,#0x00
   012B F5                  444 	push	af
   012C 33                  445 	inc	sp
                            446 ;	genCall
   012D CD 00 00            447 	call	_sprite_clean
   0130 E8 01               448 	lda	sp,1(sp)
                            449 ;	level_1/level_1.c 68
                            450 ;	genAssign
                            451 ;	AOP_HL for _LETTER_COUNT
   0132 21 00 00            452 	ld	hl,#_LETTER_COUNT
   0135 36 00               453 	ld	(hl),#0x00
                            454 ;	level_1/level_1.c 70
                            455 ;	genCall
                            456 ; _saveRegsForCall: sendSetSize: 0 deInUse: 0 bcInUse: 0 deSending: 0
   0137 CD 00 00            457 	call	_display_off
                            458 ;	level_1/level_1.c 71
                            459 ;	genAssign
   013A 01 40 FF            460 	ld	bc,#0xFF40
                            461 ;	genAssign
                            462 ;	AOP_STK for _level_1_bkg_start_sloc0_1_0
   013D F8 01               463 	lda	hl,1(sp)
   013F 36 40               464 	ld	(hl),#0x40
   0141 23                  465 	inc	hl
   0142 36 FF               466 	ld	(hl),#0xFF
                            467 ;	genPointerGet
                            468 ;	AOP_STK for _level_1_bkg_start_sloc0_1_0
                            469 ;	AOP_STK for _level_1_bkg_start_sloc1_1_0
   0144 2B                  470 	dec	hl
   0145 5E                  471 	ld	e,(hl)
   0146 23                  472 	inc	hl
   0147 56                  473 	ld	d,(hl)
   0148 1A                  474 	ld	a,(de)
   0149 2B                  475 	dec	hl
   014A 2B                  476 	dec	hl
                            477 ;	genAnd
                            478 ;	AOP_STK for _level_1_bkg_start_sloc1_1_0
   014B 77                  479 	ld      (hl),a
   014C 7F                  480 	ld      a,a
   014D E6 DF               481 	and	a,#0xDF
                            482 ;	genAssign (pointer)
   014F 02                  483 	ld	(bc),a
                            484 ;	level_1/level_1.c 72
                            485 ;	genAssign
   0150 01 40 FF            486 	ld	bc,#0xFF40
                            487 ;	genAssign
                            488 ;	AOP_STK for _level_1_bkg_start_sloc0_1_0
   0153 23                  489 	inc	hl
   0154 36 40               490 	ld	(hl),#0x40
   0156 23                  491 	inc	hl
   0157 36 FF               492 	ld	(hl),#0xFF
                            493 ;	genPointerGet
                            494 ;	AOP_STK for _level_1_bkg_start_sloc0_1_0
                            495 ;	AOP_STK for _level_1_bkg_start_sloc1_1_0
   0159 2B                  496 	dec	hl
   015A 5E                  497 	ld	e,(hl)
   015B 23                  498 	inc	hl
   015C 56                  499 	ld	d,(hl)
   015D 1A                  500 	ld	a,(de)
   015E 2B                  501 	dec	hl
   015F 2B                  502 	dec	hl
                            503 ;	genAnd
                            504 ;	AOP_STK for _level_1_bkg_start_sloc1_1_0
   0160 77                  505 	ld      (hl),a
   0161 7F                  506 	ld      a,a
   0162 E6 FE               507 	and	a,#0xFE
                            508 ;	genAssign (pointer)
   0164 02                  509 	ld	(bc),a
                            510 ;	level_1/level_1.c 73
                            511 ;	genAssign
   0165 01 40 FF            512 	ld	bc,#0xFF40
                            513 ;	genAssign
                            514 ;	AOP_STK for _level_1_bkg_start_sloc0_1_0
   0168 23                  515 	inc	hl
   0169 36 40               516 	ld	(hl),#0x40
   016B 23                  517 	inc	hl
   016C 36 FF               518 	ld	(hl),#0xFF
                            519 ;	genPointerGet
                            520 ;	AOP_STK for _level_1_bkg_start_sloc0_1_0
                            521 ;	AOP_STK for _level_1_bkg_start_sloc1_1_0
   016E 2B                  522 	dec	hl
   016F 5E                  523 	ld	e,(hl)
   0170 23                  524 	inc	hl
   0171 56                  525 	ld	d,(hl)
   0172 1A                  526 	ld	a,(de)
   0173 2B                  527 	dec	hl
   0174 2B                  528 	dec	hl
                            529 ;	genAnd
                            530 ;	AOP_STK for _level_1_bkg_start_sloc1_1_0
   0175 77                  531 	ld      (hl),a
   0176 7F                  532 	ld      a,a
   0177 E6 FD               533 	and	a,#0xFD
                            534 ;	genAssign (pointer)
   0179 02                  535 	ld	(bc),a
                            536 ;	level_1/level_1.c 75
                            537 ;	genAssign
   017A 01 40 FF            538 	ld	bc,#0xFF40
                            539 ;	genAssign
                            540 ;	AOP_STK for _level_1_bkg_start_sloc0_1_0
   017D 23                  541 	inc	hl
   017E 36 40               542 	ld	(hl),#0x40
   0180 23                  543 	inc	hl
   0181 36 FF               544 	ld	(hl),#0xFF
                            545 ;	genPointerGet
                            546 ;	AOP_STK for _level_1_bkg_start_sloc0_1_0
                            547 ;	AOP_STK for _level_1_bkg_start_sloc1_1_0
   0183 2B                  548 	dec	hl
   0184 5E                  549 	ld	e,(hl)
   0185 23                  550 	inc	hl
   0186 56                  551 	ld	d,(hl)
   0187 1A                  552 	ld	a,(de)
   0188 2B                  553 	dec	hl
   0189 2B                  554 	dec	hl
                            555 ;	genOr
                            556 ;	AOP_STK for _level_1_bkg_start_sloc1_1_0
   018A 77                  557 	ld      (hl),a
   018B 7F                  558 	ld      a,a
   018C F6 01               559 	or	a,#0x01
                            560 ;	genAssign (pointer)
   018E 02                  561 	ld	(bc),a
                            562 ;	level_1/level_1.c 76
                            563 ;	genAssign
   018F 01 40 FF            564 	ld	bc,#0xFF40
                            565 ;	genAssign
                            566 ;	AOP_STK for _level_1_bkg_start_sloc0_1_0
   0192 23                  567 	inc	hl
   0193 36 40               568 	ld	(hl),#0x40
   0195 23                  569 	inc	hl
   0196 36 FF               570 	ld	(hl),#0xFF
                            571 ;	genPointerGet
                            572 ;	AOP_STK for _level_1_bkg_start_sloc0_1_0
                            573 ;	AOP_STK for _level_1_bkg_start_sloc1_1_0
   0198 2B                  574 	dec	hl
   0199 5E                  575 	ld	e,(hl)
   019A 23                  576 	inc	hl
   019B 56                  577 	ld	d,(hl)
   019C 1A                  578 	ld	a,(de)
   019D 2B                  579 	dec	hl
   019E 2B                  580 	dec	hl
                            581 ;	genOr
                            582 ;	AOP_STK for _level_1_bkg_start_sloc1_1_0
   019F 77                  583 	ld      (hl),a
   01A0 7F                  584 	ld      a,a
   01A1 F6 02               585 	or	a,#0x02
                            586 ;	genAssign (pointer)
   01A3 02                  587 	ld	(bc),a
                            588 ;	level_1/level_1.c 77
                            589 ;	genAssign
   01A4 01 40 FF            590 	ld	bc,#0xFF40
                            591 ;	genAssign
                            592 ;	AOP_STK for _level_1_bkg_start_sloc0_1_0
   01A7 23                  593 	inc	hl
   01A8 36 40               594 	ld	(hl),#0x40
   01AA 23                  595 	inc	hl
   01AB 36 FF               596 	ld	(hl),#0xFF
                            597 ;	genPointerGet
                            598 ;	AOP_STK for _level_1_bkg_start_sloc0_1_0
                            599 ;	AOP_STK for _level_1_bkg_start_sloc1_1_0
   01AD 2B                  600 	dec	hl
   01AE 5E                  601 	ld	e,(hl)
   01AF 23                  602 	inc	hl
   01B0 56                  603 	ld	d,(hl)
   01B1 1A                  604 	ld	a,(de)
   01B2 2B                  605 	dec	hl
   01B3 2B                  606 	dec	hl
                            607 ;	genOr
                            608 ;	AOP_STK for _level_1_bkg_start_sloc1_1_0
   01B4 77                  609 	ld      (hl),a
   01B5 7F                  610 	ld      a,a
   01B6 F6 80               611 	or	a,#0x80
                            612 ;	genAssign (pointer)
   01B8 02                  613 	ld	(bc),a
                            614 ;	level_1/level_1.c 80
                            615 ;	genCall
                            616 ; _saveRegsForCall: sendSetSize: 0 deInUse: 0 bcInUse: 0 deSending: 0
   01B9 CD 00 00            617 	call	_bkg_clean
                            618 ;	level_1/level_1.c 81
                            619 ;	genCall
                            620 ; _saveRegsForCall: sendSetSize: 0 deInUse: 0 bcInUse: 0 deSending: 0
   01BC CD 00 00            621 	call	_fisherman
                            622 ;	level_1/level_1.c 82
                            623 ;	genIpush
                            624 ; _saveRegsForCall: sendSetSize: 0 deInUse: 0 bcInUse: 0 deSending: 0
   01BF 21 18 30            625 	ld	hl,#0x3018
   01C2 E5                  626 	push	hl
                            627 ;	genIpush
   01C3 21 12 02            628 	ld	hl,#__str_1
   01C6 E5                  629 	push	hl
                            630 ;	genCall
   01C7 CD 00 00            631 	call	_print
   01CA E8 04               632 	lda	sp,4(sp)
                            633 ;	level_1/level_1.c 83
                            634 ;	genIpush
                            635 ; _saveRegsForCall: sendSetSize: 0 deInUse: 0 bcInUse: 0 deSending: 0
                            636 ;	AOP_HL for _dt
   01CC 21 01 00            637 	ld	hl,#_dt
   01CF 2A                  638 	ld	a,(hl+)
   01D0 66                  639 	ld	h,(hl)
   01D1 6F                  640 	ld	l,a
   01D2 E5                  641 	push	hl
                            642 ;	genCall
   01D3 CD 00 00            643 	call	_delay
   01D6 E8 02               644 	lda	sp,2(sp)
                            645 ;	level_1/level_1.c 84
                            646 ;	genIpush
                            647 ; _saveRegsForCall: sendSetSize: 0 deInUse: 0 bcInUse: 0 deSending: 0
   01D8 3E 0A               648 	ld	a,#0x0A
   01DA F5                  649 	push	af
   01DB 33                  650 	inc	sp
                            651 ;	genCall
   01DC CD 00 00            652 	call	_sprite_clean
   01DF E8 01               653 	lda	sp,1(sp)
                            654 ;	level_1/level_1.c 85
                            655 ;	genAssign
                            656 ;	AOP_HL for _LETTER_COUNT
   01E1 21 00 00            657 	ld	hl,#_LETTER_COUNT
   01E4 36 0A               658 	ld	(hl),#0x0A
                            659 ;	level_1/level_1.c 86
                            660 ;	genCall
                            661 ; _saveRegsForCall: sendSetSize: 0 deInUse: 0 bcInUse: 0 deSending: 0
   01E6 CD 00 00            662 	call	_you_hear
                            663 ;	level_1/level_1.c 87
                            664 ;	genIpush
                            665 ; _saveRegsForCall: sendSetSize: 0 deInUse: 0 bcInUse: 0 deSending: 0
                            666 ;	AOP_HL for _dt
   01E9 21 01 00            667 	ld	hl,#_dt
   01EC 2A                  668 	ld	a,(hl+)
   01ED 66                  669 	ld	h,(hl)
   01EE 6F                  670 	ld	l,a
   01EF E5                  671 	push	hl
                            672 ;	genCall
   01F0 CD 00 00            673 	call	_delay
   01F3 E8 02               674 	lda	sp,2(sp)
                            675 ;	genLabel
   01F5                     676 00101$:
                            677 ;	genEndFunction
   01F5 E8 03               678 	lda	sp,3(sp)
   01F7 C9                  679 	ret
   01F8                     680 ___level_1_bkg_start_end:
   01F8                     681 __str_0:
   01F8 43 48 41 50 54 45   682 	.ascii "CHAPTERi"
        52 69
   0200 5C                  683 	.db 0x5C
   0201 0A                  684 	.db 0x0A
   0202 57 45 4C 43 4F 4D   685 	.ascii "WELCOME"
        45
   0209 0A                  686 	.db 0x0A
   020A 54 4F 69 48 45 4C   687 	.ascii "TOiHELL"
        4C
   0211 00                  688 	.db 0x00
   0212                     689 __str_1:
   0212 57 45 6B 52 45 69   690 	.ascii "WEkREiALL"
        41 4C 4C
   021B 0A                  691 	.db 0x0A
   021C 47 4F 49 4E 6B 69   692 	.ascii "GOINkiTO"
        54 4F
   0224 0A                  693 	.db 0x0A
   0225 48 45 4C 4C 6C      694 	.ascii "HELLl"
   022A 00                  695 	.db 0x00
                            696 ;	level_1/level_1.c 90
                            697 ;	genLabel
                            698 ;	genFunction
                            699 ;	---------------------------------
                            700 ; Function l1_scene_1
                            701 ; ---------------------------------
   022B                     702 ___l1_scene_1_start:
   022B                     703 _l1_scene_1:
   022B E8 FD               704 	lda	sp,-3(sp)
                            705 ;	level_1/level_1.c 92
                            706 ;	genLabel
   022D                     707 00117$:
                            708 ;	genIfx
                            709 ;	AOP_HL for _talking
   022D AF                  710 	xor	a,a
   022E 21 00 00            711 	ld	hl,#_talking
   0231 B6                  712 	or	a,(hl)
   0232 CA B0 03            713 	jp	z,00120$
                            714 ;	level_1/level_1.c 94
                            715 ;	genCall
                            716 ; _saveRegsForCall: sendSetSize: 0 deInUse: 0 bcInUse: 0 deSending: 0
   0235 CD 00 00            717 	call	_joypad
   0238 4B                  718 	ld	c,e
                            719 ;	genAnd
   0239 79                  720 	ld	a,c
   023A E6 10               721 	and	a,#0x10
   023C 20 03               722 	jr	nz,00132$
   023E C3 2D 02            723 	jp	00117$
   0241                     724 00132$:
                            725 ;	level_1/level_1.c 96
                            726 ;	genPlus
                            727 ;	AOP_HL for _talking
                            728 ;	genPlusIncr
   0241 21 00 00            729 	ld	hl,#_talking
   0244 34                  730 	inc	(hl)
                            731 ;	level_1/level_1.c 97
                            732 ;	genIpush
                            733 ; _saveRegsForCall: sendSetSize: 0 deInUse: 0 bcInUse: 0 deSending: 0
   0245 21 C8 00            734 	ld	hl,#0x00C8
   0248 E5                  735 	push	hl
                            736 ;	genCall
   0249 CD 00 00            737 	call	_delay
   024C E8 02               738 	lda	sp,2(sp)
                            739 ;	level_1/level_1.c 98
                            740 ;	genCmpEq
                            741 ;	AOP_HL for _talking
                            742 ; genCmpEq: left 1, right 1, result 0
   024E 21 00 00            743 	ld	hl,#_talking
   0251 7E                  744 	ld	a,(hl)
   0252 FE 02               745 	cp	a,#0x02
   0254 C2 77 02            746 	jp	nz,00102$
   0257 18 03               747 	jr	00134$
   0259                     748 00133$:
   0259 C3 77 02            749 	jp	00102$
   025C                     750 00134$:
                            751 ;	level_1/level_1.c 100
                            752 ;	genIpush
                            753 ; _saveRegsForCall: sendSetSize: 0 deInUse: 0 bcInUse: 0 deSending: 0
   025C 3E 0A               754 	ld	a,#0x0A
   025E F5                  755 	push	af
   025F 33                  756 	inc	sp
                            757 ;	genCall
   0260 CD 00 00            758 	call	_sprite_clean
   0263 E8 01               759 	lda	sp,1(sp)
                            760 ;	level_1/level_1.c 101
                            761 ;	genAssign
                            762 ;	AOP_HL for _LETTER_COUNT
   0265 21 00 00            763 	ld	hl,#_LETTER_COUNT
   0268 36 0A               764 	ld	(hl),#0x0A
                            765 ;	level_1/level_1.c 102
                            766 ;	genIpush
                            767 ; _saveRegsForCall: sendSetSize: 0 deInUse: 0 bcInUse: 0 deSending: 0
   026A 21 18 30            768 	ld	hl,#0x3018
   026D E5                  769 	push	hl
                            770 ;	genIpush
   026E 21 B3 03            771 	ld	hl,#__str_2
   0271 E5                  772 	push	hl
                            773 ;	genCall
   0272 CD 00 00            774 	call	_print
   0275 E8 04               775 	lda	sp,4(sp)
                            776 ;	genLabel
   0277                     777 00102$:
                            778 ;	level_1/level_1.c 104
                            779 ;	genCmpEq
                            780 ;	AOP_HL for _talking
                            781 ; genCmpEq: left 1, right 1, result 0
   0277 21 00 00            782 	ld	hl,#_talking
   027A 7E                  783 	ld	a,(hl)
   027B FE 03               784 	cp	a,#0x03
   027D C2 A0 02            785 	jp	nz,00104$
   0280 18 03               786 	jr	00136$
   0282                     787 00135$:
   0282 C3 A0 02            788 	jp	00104$
   0285                     789 00136$:
                            790 ;	level_1/level_1.c 106
                            791 ;	genIpush
                            792 ; _saveRegsForCall: sendSetSize: 0 deInUse: 0 bcInUse: 0 deSending: 0
   0285 3E 0A               793 	ld	a,#0x0A
   0287 F5                  794 	push	af
   0288 33                  795 	inc	sp
                            796 ;	genCall
   0289 CD 00 00            797 	call	_sprite_clean
   028C E8 01               798 	lda	sp,1(sp)
                            799 ;	level_1/level_1.c 107
                            800 ;	genAssign
                            801 ;	AOP_HL for _LETTER_COUNT
   028E 21 00 00            802 	ld	hl,#_LETTER_COUNT
   0291 36 0A               803 	ld	(hl),#0x0A
                            804 ;	level_1/level_1.c 108
                            805 ;	genIpush
                            806 ; _saveRegsForCall: sendSetSize: 0 deInUse: 0 bcInUse: 0 deSending: 0
   0293 21 18 30            807 	ld	hl,#0x3018
   0296 E5                  808 	push	hl
                            809 ;	genIpush
   0297 21 BF 03            810 	ld	hl,#__str_3
   029A E5                  811 	push	hl
                            812 ;	genCall
   029B CD 00 00            813 	call	_print
   029E E8 04               814 	lda	sp,4(sp)
                            815 ;	genLabel
   02A0                     816 00104$:
                            817 ;	level_1/level_1.c 110
                            818 ;	genCmpEq
                            819 ;	AOP_HL for _talking
                            820 ; genCmpEq: left 1, right 1, result 0
   02A0 21 00 00            821 	ld	hl,#_talking
   02A3 7E                  822 	ld	a,(hl)
   02A4 FE 04               823 	cp	a,#0x04
   02A6 C2 C9 02            824 	jp	nz,00106$
   02A9 18 03               825 	jr	00138$
   02AB                     826 00137$:
   02AB C3 C9 02            827 	jp	00106$
   02AE                     828 00138$:
                            829 ;	level_1/level_1.c 112
                            830 ;	genIpush
                            831 ; _saveRegsForCall: sendSetSize: 0 deInUse: 0 bcInUse: 0 deSending: 0
   02AE 3E 0A               832 	ld	a,#0x0A
   02B0 F5                  833 	push	af
   02B1 33                  834 	inc	sp
                            835 ;	genCall
   02B2 CD 00 00            836 	call	_sprite_clean
   02B5 E8 01               837 	lda	sp,1(sp)
                            838 ;	level_1/level_1.c 113
                            839 ;	genAssign
                            840 ;	AOP_HL for _LETTER_COUNT
   02B7 21 00 00            841 	ld	hl,#_LETTER_COUNT
   02BA 36 0A               842 	ld	(hl),#0x0A
                            843 ;	level_1/level_1.c 114
                            844 ;	genIpush
                            845 ; _saveRegsForCall: sendSetSize: 0 deInUse: 0 bcInUse: 0 deSending: 0
   02BC 21 18 30            846 	ld	hl,#0x3018
   02BF E5                  847 	push	hl
                            848 ;	genIpush
   02C0 21 DB 03            849 	ld	hl,#__str_4
   02C3 E5                  850 	push	hl
                            851 ;	genCall
   02C4 CD 00 00            852 	call	_print
   02C7 E8 04               853 	lda	sp,4(sp)
                            854 ;	genLabel
   02C9                     855 00106$:
                            856 ;	level_1/level_1.c 116
                            857 ;	genCmpEq
                            858 ;	AOP_HL for _talking
                            859 ; genCmpEq: left 1, right 1, result 0
   02C9 21 00 00            860 	ld	hl,#_talking
   02CC 7E                  861 	ld	a,(hl)
   02CD FE 05               862 	cp	a,#0x05
   02CF C2 F2 02            863 	jp	nz,00108$
   02D2 18 03               864 	jr	00140$
   02D4                     865 00139$:
   02D4 C3 F2 02            866 	jp	00108$
   02D7                     867 00140$:
                            868 ;	level_1/level_1.c 118
                            869 ;	genIpush
                            870 ; _saveRegsForCall: sendSetSize: 0 deInUse: 0 bcInUse: 0 deSending: 0
   02D7 3E 0A               871 	ld	a,#0x0A
   02D9 F5                  872 	push	af
   02DA 33                  873 	inc	sp
                            874 ;	genCall
   02DB CD 00 00            875 	call	_sprite_clean
   02DE E8 01               876 	lda	sp,1(sp)
                            877 ;	level_1/level_1.c 119
                            878 ;	genAssign
                            879 ;	AOP_HL for _LETTER_COUNT
   02E0 21 00 00            880 	ld	hl,#_LETTER_COUNT
   02E3 36 0A               881 	ld	(hl),#0x0A
                            882 ;	level_1/level_1.c 120
                            883 ;	genIpush
                            884 ; _saveRegsForCall: sendSetSize: 0 deInUse: 0 bcInUse: 0 deSending: 0
   02E5 21 18 30            885 	ld	hl,#0x3018
   02E8 E5                  886 	push	hl
                            887 ;	genIpush
   02E9 21 F8 03            888 	ld	hl,#__str_5
   02EC E5                  889 	push	hl
                            890 ;	genCall
   02ED CD 00 00            891 	call	_print
   02F0 E8 04               892 	lda	sp,4(sp)
                            893 ;	genLabel
   02F2                     894 00108$:
                            895 ;	level_1/level_1.c 122
                            896 ;	genCmpEq
                            897 ;	AOP_HL for _talking
                            898 ; genCmpEq: left 1, right 1, result 0
   02F2 21 00 00            899 	ld	hl,#_talking
   02F5 7E                  900 	ld	a,(hl)
   02F6 FE 06               901 	cp	a,#0x06
   02F8 C2 1B 03            902 	jp	nz,00110$
   02FB 18 03               903 	jr	00142$
   02FD                     904 00141$:
   02FD C3 1B 03            905 	jp	00110$
   0300                     906 00142$:
                            907 ;	level_1/level_1.c 124
                            908 ;	genIpush
                            909 ; _saveRegsForCall: sendSetSize: 0 deInUse: 0 bcInUse: 0 deSending: 0
   0300 3E 0A               910 	ld	a,#0x0A
   0302 F5                  911 	push	af
   0303 33                  912 	inc	sp
                            913 ;	genCall
   0304 CD 00 00            914 	call	_sprite_clean
   0307 E8 01               915 	lda	sp,1(sp)
                            916 ;	level_1/level_1.c 125
                            917 ;	genAssign
                            918 ;	AOP_HL for _LETTER_COUNT
   0309 21 00 00            919 	ld	hl,#_LETTER_COUNT
   030C 36 0A               920 	ld	(hl),#0x0A
                            921 ;	level_1/level_1.c 126
                            922 ;	genIpush
                            923 ; _saveRegsForCall: sendSetSize: 0 deInUse: 0 bcInUse: 0 deSending: 0
   030E 21 18 30            924 	ld	hl,#0x3018
   0311 E5                  925 	push	hl
                            926 ;	genIpush
   0312 21 13 04            927 	ld	hl,#__str_6
   0315 E5                  928 	push	hl
                            929 ;	genCall
   0316 CD 00 00            930 	call	_print
   0319 E8 04               931 	lda	sp,4(sp)
                            932 ;	genLabel
   031B                     933 00110$:
                            934 ;	level_1/level_1.c 128
                            935 ;	genCmpEq
                            936 ;	AOP_HL for _talking
                            937 ; genCmpEq: left 1, right 1, result 0
   031B 21 00 00            938 	ld	hl,#_talking
   031E 7E                  939 	ld	a,(hl)
   031F FE 07               940 	cp	a,#0x07
   0321 C2 44 03            941 	jp	nz,00112$
   0324 18 03               942 	jr	00144$
   0326                     943 00143$:
   0326 C3 44 03            944 	jp	00112$
   0329                     945 00144$:
                            946 ;	level_1/level_1.c 130
                            947 ;	genIpush
                            948 ; _saveRegsForCall: sendSetSize: 0 deInUse: 0 bcInUse: 0 deSending: 0
   0329 3E 0A               949 	ld	a,#0x0A
   032B F5                  950 	push	af
   032C 33                  951 	inc	sp
                            952 ;	genCall
   032D CD 00 00            953 	call	_sprite_clean
   0330 E8 01               954 	lda	sp,1(sp)
                            955 ;	level_1/level_1.c 131
                            956 ;	genAssign
                            957 ;	AOP_HL for _LETTER_COUNT
   0332 21 00 00            958 	ld	hl,#_LETTER_COUNT
   0335 36 0A               959 	ld	(hl),#0x0A
                            960 ;	level_1/level_1.c 132
                            961 ;	genIpush
                            962 ; _saveRegsForCall: sendSetSize: 0 deInUse: 0 bcInUse: 0 deSending: 0
   0337 21 18 30            963 	ld	hl,#0x3018
   033A E5                  964 	push	hl
                            965 ;	genIpush
   033B 21 2C 04            966 	ld	hl,#__str_7
   033E E5                  967 	push	hl
                            968 ;	genCall
   033F CD 00 00            969 	call	_print
   0342 E8 04               970 	lda	sp,4(sp)
                            971 ;	genLabel
   0344                     972 00112$:
                            973 ;	level_1/level_1.c 134
                            974 ;	genCmpEq
                            975 ;	AOP_HL for _talking
                            976 ; genCmpEq: left 1, right 1, result 0
   0344 21 00 00            977 	ld	hl,#_talking
   0347 7E                  978 	ld	a,(hl)
   0348 FE 08               979 	cp	a,#0x08
   034A C2 2D 02            980 	jp	nz,00117$
   034D 18 03               981 	jr	00146$
   034F                     982 00145$:
   034F C3 2D 02            983 	jp	00117$
   0352                     984 00146$:
                            985 ;	level_1/level_1.c 136
                            986 ;	genCall
                            987 ; _saveRegsForCall: sendSetSize: 0 deInUse: 0 bcInUse: 0 deSending: 0
   0352 CD 00 00            988 	call	_display_off
                            989 ;	level_1/level_1.c 138
                            990 ;	genIpush
                            991 ; _saveRegsForCall: sendSetSize: 0 deInUse: 0 bcInUse: 0 deSending: 0
   0355 21 00 00            992 	ld	hl,#_blank_screen_tiles
   0358 E5                  993 	push	hl
                            994 ;	genIpush
   0359 21 00 04            995 	ld	hl,#0x0400
   035C E5                  996 	push	hl
                            997 ;	genCall
   035D CD 00 00            998 	call	_set_bkg_data
   0360 E8 04               999 	lda	sp,4(sp)
                           1000 ;	level_1/level_1.c 139
                           1001 ;	genIpush
                           1002 ; _saveRegsForCall: sendSetSize: 0 deInUse: 0 bcInUse: 0 deSending: 0
   0362 21 00 00           1003 	ld	hl,#_shit_pot
   0365 E5                 1004 	push	hl
                           1005 ;	genIpush
   0366 21 14 12           1006 	ld	hl,#0x1214
   0369 E5                 1007 	push	hl
                           1008 ;	genIpush
   036A 21 00 00           1009 	ld	hl,#0x0000
   036D E5                 1010 	push	hl
                           1011 ;	genCall
   036E CD 00 00           1012 	call	_set_bkg_tiles
   0371 E8 06              1013 	lda	sp,6(sp)
                           1014 ;	level_1/level_1.c 140
                           1015 ;	genAssign
   0373 01 40 FF           1016 	ld	bc,#0xFF40
                           1017 ;	genAssign
                           1018 ;	AOP_STK for _l1_scene_1_sloc0_1_0
   0376 F8 01              1019 	lda	hl,1(sp)
   0378 36 40              1020 	ld	(hl),#0x40
   037A 23                 1021 	inc	hl
   037B 36 FF              1022 	ld	(hl),#0xFF
                           1023 ;	genPointerGet
                           1024 ;	AOP_STK for _l1_scene_1_sloc0_1_0
                           1025 ;	AOP_STK for _l1_scene_1_sloc1_1_0
   037D 2B                 1026 	dec	hl
   037E 5E                 1027 	ld	e,(hl)
   037F 23                 1028 	inc	hl
   0380 56                 1029 	ld	d,(hl)
   0381 1A                 1030 	ld	a,(de)
   0382 2B                 1031 	dec	hl
   0383 2B                 1032 	dec	hl
                           1033 ;	genOr
                           1034 ;	AOP_STK for _l1_scene_1_sloc1_1_0
   0384 77                 1035 	ld      (hl),a
                           1036 ; Removed redundent load
   0385 F6 80              1037 	or	a,#0x80
                           1038 ;	genAssign (pointer)
   0387 02                 1039 	ld	(bc),a
                           1040 ;	level_1/level_1.c 141
                           1041 ;	genAssign
   0388 01 40 FF           1042 	ld	bc,#0xFF40
                           1043 ;	genAssign
                           1044 ;	AOP_STK for _l1_scene_1_sloc0_1_0
   038B 23                 1045 	inc	hl
   038C 36 40              1046 	ld	(hl),#0x40
   038E 23                 1047 	inc	hl
   038F 36 FF              1048 	ld	(hl),#0xFF
                           1049 ;	genPointerGet
                           1050 ;	AOP_STK for _l1_scene_1_sloc0_1_0
                           1051 ;	AOP_STK for _l1_scene_1_sloc1_1_0
   0391 2B                 1052 	dec	hl
   0392 5E                 1053 	ld	e,(hl)
   0393 23                 1054 	inc	hl
   0394 56                 1055 	ld	d,(hl)
   0395 1A                 1056 	ld	a,(de)
   0396 2B                 1057 	dec	hl
   0397 2B                 1058 	dec	hl
                           1059 ;	genAnd
                           1060 ;	AOP_STK for _l1_scene_1_sloc1_1_0
   0398 77                 1061 	ld      (hl),a
                           1062 ; Removed redundent load
   0399 E6 FD              1063 	and	a,#0xFD
                           1064 ;	genAssign (pointer)
   039B 02                 1065 	ld	(bc),a
                           1066 ;	level_1/level_1.c 142
                           1067 ;	genIpush
                           1068 ; _saveRegsForCall: sendSetSize: 0 deInUse: 0 bcInUse: 0 deSending: 0
   039C 3E 00              1069 	ld	a,#0x00
   039E F5                 1070 	push	af
   039F 33                 1071 	inc	sp
                           1072 ;	genCall
   03A0 CD 00 00           1073 	call	_sprite_clean
   03A3 E8 01              1074 	lda	sp,1(sp)
                           1075 ;	level_1/level_1.c 143
                           1076 ;	genCall
                           1077 ; _saveRegsForCall: sendSetSize: 0 deInUse: 0 bcInUse: 0 deSending: 0
   03A5 CD 00 00           1078 	call	_hide_sprites
                           1079 ;	level_1/level_1.c 144
                           1080 ;	genAssign
                           1081 ;	AOP_HL for _LETTER_COUNT
   03A8 21 00 00           1082 	ld	hl,#_LETTER_COUNT
   03AB 36 00              1083 	ld	(hl),#0x00
                           1084 ;	level_1/level_1.c 145
                           1085 ;	genCall
                           1086 ; _saveRegsForCall: sendSetSize: 0 deInUse: 0 bcInUse: 0 deSending: 0
   03AD CD 3D 04           1087 	call	_level_1_sprite_setup
                           1088 ;	level_1/level_1.c 146
                           1089 ;	genLabel
   03B0                    1090 00120$:
                           1091 ;	genEndFunction
   03B0 E8 03              1092 	lda	sp,3(sp)
   03B2 C9                 1093 	ret
   03B3                    1094 ___l1_scene_1_end:
   03B3                    1095 __str_2:
   03B3 5F 69 4D 4F 4E 54  1096 	.ascii "_iMONTHS"
        48 53
   03BB 0A                 1097 	.db 0x0A
   03BC 4F 4E              1098 	.ascii "ON"
   03BE 00                 1099 	.db 0x00
   03BF                    1100 __str_3:
   03BF 4B 41 4D 43 48 41  1101 	.ascii "KAMCHATKAS"
        54 4B 41 53
   03C9 0A                 1102 	.db 0x0A
   03CA 4E 4F 52 54 48 45  1103 	.ascii "NORTHERN"
        52 4E
   03D2 0A                 1104 	.db 0x0A
   03D3 57 41 54 45 52 53  1105 	.ascii "WATERSe"
        65
   03DA 00                 1106 	.db 0x00
   03DB                    1107 __str_4:
   03DB 49 54 69 57 4F 55  1108 	.ascii "ITiWOULD"
        4C 44
   03E3 0A                 1109 	.db 0x0A
   03E4 42 45 69 41 69 43  1110 	.ascii "BEiAiCOLD"
        4F 4C 44
   03ED 0A                 1111 	.db 0x0A
   03EE 44 45 41 54 48     1112 	.ascii "DEATH"
   03F3 0A                 1113 	.db 0x0A
   03F4 65 65 65           1114 	.ascii "eee"
   03F7 00                 1115 	.db 0x00
   03F8                    1116 __str_5:
   03F8 49 69 53 45 45 69  1117 	.ascii "IiSEEiWE"
        57 45
   0400 0A                 1118 	.db 0x0A
   0401 48 41 56 45 69 41  1119 	.ascii "HAVEiA"
   0407 0A                 1120 	.db 0x0A
   0408 51 55 49 45 54 69  1121 	.ascii "QUIETiONEe"
        4F 4E 45 65
   0412 00                 1122 	.db 0x00
   0413                    1123 __str_6:
   0413 43 6B 4D 4F 4E     1124 	.ascii "CkMON"
   0418 0A                 1125 	.db 0x0A
   0419 49 6B 4C 4C 69 54  1126 	.ascii "IkLLiTAKE"
        41 4B 45
   0422 0A                 1127 	.db 0x0A
   0423 59 4F 55 69 44 4F  1128 	.ascii "YOUiDOWN"
        57 4E
   042B 00                 1129 	.db 0x00
   042C                    1130 __str_7:
   042C 54 4F 69 54 48 45  1131 	.ascii "TOiTHE"
   0432 0A                 1132 	.db 0x0A
   0433 53 48 49 54 69 50  1133 	.ascii "SHITiPOTe"
        4F 54 65
   043C 00                 1134 	.db 0x00
                           1135 ;	level_1/level_1.c 152
                           1136 ;	genLabel
                           1137 ;	genFunction
                           1138 ;	---------------------------------
                           1139 ; Function level_1_sprite_setup
                           1140 ; ---------------------------------
   043D                    1141 ___level_1_sprite_setup_start:
   043D                    1142 _level_1_sprite_setup:
   043D E8 FD              1143 	lda	sp,-3(sp)
                           1144 ;	level_1/level_1.c 155
                           1145 ;	genAssign
                           1146 ;	AOP_HL for _hero_posx
   043F 21 00 00           1147 	ld	hl,#_hero_posx
   0442 36 46              1148 	ld	(hl),#0x46
                           1149 ;	level_1/level_1.c 156
                           1150 ;	genAssign
                           1151 ;	AOP_HL for _hero_posy
   0444 21 00 00           1152 	ld	hl,#_hero_posy
   0447 36 41              1153 	ld	(hl),#0x41
                           1154 ;	level_1/level_1.c 159
                           1155 ;	genAssign
                           1156 ;	AOP_HL for _fisherman_posx
   0449 21 00 00           1157 	ld	hl,#_fisherman_posx
   044C 36 56              1158 	ld	(hl),#0x56
                           1159 ;	level_1/level_1.c 160
                           1160 ;	genAssign
                           1161 ;	AOP_HL for _fisherman_posy
   044E 21 00 00           1162 	ld	hl,#_fisherman_posy
   0451 36 41              1163 	ld	(hl),#0x41
                           1164 ;	level_1/level_1.c 163
                           1165 ;	genAssign
                           1166 ;	AOP_HL for _miner_posx
   0453 21 00 00           1167 	ld	hl,#_miner_posx
   0456 36 96              1168 	ld	(hl),#0x96
                           1169 ;	level_1/level_1.c 164
                           1170 ;	genAssign
                           1171 ;	AOP_HL for _miner_posy
   0458 21 00 00           1172 	ld	hl,#_miner_posy
   045B 36 64              1173 	ld	(hl),#0x64
                           1174 ;	level_1/level_1.c 166
                           1175 ;	genAssign
   045D 01 40 FF           1176 	ld	bc,#0xFF40
                           1177 ;	genAssign
                           1178 ;	AOP_STK for _level_1_sprite_setup_sloc0_1_0
   0460 F8 01              1179 	lda	hl,1(sp)
   0462 36 40              1180 	ld	(hl),#0x40
   0464 23                 1181 	inc	hl
   0465 36 FF              1182 	ld	(hl),#0xFF
                           1183 ;	genPointerGet
                           1184 ;	AOP_STK for _level_1_sprite_setup_sloc0_1_0
                           1185 ;	AOP_STK for _level_1_sprite_setup_sloc1_1_0
   0467 2B                 1186 	dec	hl
   0468 5E                 1187 	ld	e,(hl)
   0469 23                 1188 	inc	hl
   046A 56                 1189 	ld	d,(hl)
   046B 1A                 1190 	ld	a,(de)
   046C 2B                 1191 	dec	hl
   046D 2B                 1192 	dec	hl
                           1193 ;	genOr
                           1194 ;	AOP_STK for _level_1_sprite_setup_sloc1_1_0
   046E 77                 1195 	ld      (hl),a
   046F 7F                 1196 	ld      a,a
   0470 F6 04              1197 	or	a,#0x04
                           1198 ;	genAssign (pointer)
   0472 02                 1199 	ld	(bc),a
                           1200 ;	level_1/level_1.c 168
                           1201 ;	genIpush
                           1202 ; _saveRegsForCall: sendSetSize: 0 deInUse: 0 bcInUse: 0 deSending: 0
   0473 21 00 00           1203 	ld	hl,#_hero_front_idle
   0476 E5                 1204 	push	hl
                           1205 ;	genIpush
   0477 21 00 08           1206 	ld	hl,#0x0800
   047A E5                 1207 	push	hl
                           1208 ;	genCall
   047B CD 00 00           1209 	call	_set_sprite_data
   047E E8 04              1210 	lda	sp,4(sp)
                           1211 ;	level_1/level_1.c 169
                           1212 ;	genIpush
                           1213 ; _saveRegsForCall: sendSetSize: 0 deInUse: 0 bcInUse: 0 deSending: 0
   0480 21 00 00           1214 	ld	hl,#0x0000
   0483 E5                 1215 	push	hl
                           1216 ;	genCall
   0484 CD 00 00           1217 	call	_set_sprite_tile
   0487 E8 02              1218 	lda	sp,2(sp)
                           1219 ;	level_1/level_1.c 170
                           1220 ;	genIpush
                           1221 ; _saveRegsForCall: sendSetSize: 0 deInUse: 0 bcInUse: 0 deSending: 0
   0489 21 01 02           1222 	ld	hl,#0x0201
   048C E5                 1223 	push	hl
                           1224 ;	genCall
   048D CD 00 00           1225 	call	_set_sprite_tile
   0490 E8 02              1226 	lda	sp,2(sp)
                           1227 ;	level_1/level_1.c 172
                           1228 ;	genIpush
                           1229 ; _saveRegsForCall: sendSetSize: 0 deInUse: 0 bcInUse: 0 deSending: 0
   0492 21 00 00           1230 	ld	hl,#_fisherman_front_idle
   0495 E5                 1231 	push	hl
                           1232 ;	genIpush
   0496 21 08 08           1233 	ld	hl,#0x0808
   0499 E5                 1234 	push	hl
                           1235 ;	genCall
   049A CD 00 00           1236 	call	_set_sprite_data
   049D E8 04              1237 	lda	sp,4(sp)
                           1238 ;	level_1/level_1.c 173
                           1239 ;	genIpush
                           1240 ; _saveRegsForCall: sendSetSize: 0 deInUse: 0 bcInUse: 0 deSending: 0
   049F 21 02 08           1241 	ld	hl,#0x0802
   04A2 E5                 1242 	push	hl
                           1243 ;	genCall
   04A3 CD 00 00           1244 	call	_set_sprite_tile
   04A6 E8 02              1245 	lda	sp,2(sp)
                           1246 ;	level_1/level_1.c 174
                           1247 ;	genIpush
                           1248 ; _saveRegsForCall: sendSetSize: 0 deInUse: 0 bcInUse: 0 deSending: 0
   04A8 21 03 08           1249 	ld	hl,#0x0803
   04AB E5                 1250 	push	hl
                           1251 ;	genCall
   04AC CD 00 00           1252 	call	_set_sprite_tile
   04AF E8 02              1253 	lda	sp,2(sp)
                           1254 ;	level_1/level_1.c 175
                           1255 ;	genIpush
                           1256 ; _saveRegsForCall: sendSetSize: 0 deInUse: 0 bcInUse: 0 deSending: 0
   04B1 21 03 20           1257 	ld	hl,#0x2003
   04B4 E5                 1258 	push	hl
                           1259 ;	genCall
   04B5 CD 00 00           1260 	call	_set_sprite_prop
   04B8 E8 02              1261 	lda	sp,2(sp)
                           1262 ;	level_1/level_1.c 178
                           1263 ;	genIpush
                           1264 ; _saveRegsForCall: sendSetSize: 0 deInUse: 0 bcInUse: 0 deSending: 0
   04BA 21 00 00           1265 	ld	hl,#_miner_walk_left
   04BD E5                 1266 	push	hl
                           1267 ;	genIpush
   04BE 21 10 08           1268 	ld	hl,#0x0810
   04C1 E5                 1269 	push	hl
                           1270 ;	genCall
   04C2 CD 00 00           1271 	call	_set_sprite_data
   04C5 E8 04              1272 	lda	sp,4(sp)
                           1273 ;	level_1/level_1.c 181
                           1274 ;	genIpush
                           1275 ; _saveRegsForCall: sendSetSize: 0 deInUse: 0 bcInUse: 0 deSending: 0
                           1276 ;	AOP_HL for _hero_posy
   04C7 21 00 00           1277 	ld	hl,#_hero_posy
   04CA 7E                 1278 	ld	a,(hl)
   04CB F5                 1279 	push	af
   04CC 33                 1280 	inc	sp
                           1281 ;	genIpush
                           1282 ;	AOP_HL for _hero_posx
   04CD 21 00 00           1283 	ld	hl,#_hero_posx
   04D0 7E                 1284 	ld	a,(hl)
   04D1 F5                 1285 	push	af
   04D2 33                 1286 	inc	sp
                           1287 ;	genIpush
   04D3 3E 00              1288 	ld	a,#0x00
   04D5 F5                 1289 	push	af
   04D6 33                 1290 	inc	sp
                           1291 ;	genCall
   04D7 CD 00 00           1292 	call	_move_sprite
   04DA E8 03              1293 	lda	sp,3(sp)
                           1294 ;	level_1/level_1.c 182
                           1295 ;	genPlus
                           1296 ;	AOP_HL for _hero_posx
                           1297 ;	AOP_HL for _sprite_width
                           1298 ;	Can't optimise plus by inc, falling back to the normal way
   04DC 21 00 00           1299 	ld	hl,#_hero_posx
   04DF 7E                 1300 	ld	a,(hl)
   04E0 21 00 00           1301 	ld	hl,#_sprite_width
   04E3 86                 1302 	add	a,(hl)
   04E4 4F                 1303 	ld	c,a
                           1304 ;	genIpush
                           1305 ; _saveRegsForCall: sendSetSize: 0 deInUse: 0 bcInUse: 0 deSending: 0
                           1306 ;	AOP_HL for _hero_posy
   04E5 21 00 00           1307 	ld	hl,#_hero_posy
   04E8 7E                 1308 	ld	a,(hl)
   04E9 F5                 1309 	push	af
   04EA 33                 1310 	inc	sp
                           1311 ;	genIpush
   04EB 79                 1312 	ld	a,c
   04EC F5                 1313 	push	af
   04ED 33                 1314 	inc	sp
                           1315 ;	genIpush
   04EE 3E 01              1316 	ld	a,#0x01
   04F0 F5                 1317 	push	af
   04F1 33                 1318 	inc	sp
                           1319 ;	genCall
   04F2 CD 00 00           1320 	call	_move_sprite
   04F5 E8 03              1321 	lda	sp,3(sp)
                           1322 ;	level_1/level_1.c 184
                           1323 ;	genIpush
                           1324 ; _saveRegsForCall: sendSetSize: 0 deInUse: 0 bcInUse: 0 deSending: 0
                           1325 ;	AOP_HL for _fisherman_posy
   04F7 21 00 00           1326 	ld	hl,#_fisherman_posy
   04FA 7E                 1327 	ld	a,(hl)
   04FB F5                 1328 	push	af
   04FC 33                 1329 	inc	sp
                           1330 ;	genIpush
                           1331 ;	AOP_HL for _fisherman_posx
   04FD 21 00 00           1332 	ld	hl,#_fisherman_posx
   0500 7E                 1333 	ld	a,(hl)
   0501 F5                 1334 	push	af
   0502 33                 1335 	inc	sp
                           1336 ;	genIpush
   0503 3E 02              1337 	ld	a,#0x02
   0505 F5                 1338 	push	af
   0506 33                 1339 	inc	sp
                           1340 ;	genCall
   0507 CD 00 00           1341 	call	_move_sprite
   050A E8 03              1342 	lda	sp,3(sp)
                           1343 ;	level_1/level_1.c 185
                           1344 ;	genPlus
                           1345 ;	AOP_HL for _fisherman_posx
                           1346 ;	AOP_HL for _sprite_width
                           1347 ;	Can't optimise plus by inc, falling back to the normal way
   050C 21 00 00           1348 	ld	hl,#_fisherman_posx
   050F 7E                 1349 	ld	a,(hl)
   0510 21 00 00           1350 	ld	hl,#_sprite_width
   0513 86                 1351 	add	a,(hl)
   0514 4F                 1352 	ld	c,a
                           1353 ;	genIpush
                           1354 ; _saveRegsForCall: sendSetSize: 0 deInUse: 0 bcInUse: 0 deSending: 0
                           1355 ;	AOP_HL for _fisherman_posy
   0515 21 00 00           1356 	ld	hl,#_fisherman_posy
   0518 7E                 1357 	ld	a,(hl)
   0519 F5                 1358 	push	af
   051A 33                 1359 	inc	sp
                           1360 ;	genIpush
   051B 79                 1361 	ld	a,c
   051C F5                 1362 	push	af
   051D 33                 1363 	inc	sp
                           1364 ;	genIpush
   051E 3E 03              1365 	ld	a,#0x03
   0520 F5                 1366 	push	af
   0521 33                 1367 	inc	sp
                           1368 ;	genCall
   0522 CD 00 00           1369 	call	_move_sprite
   0525 E8 03              1370 	lda	sp,3(sp)
                           1371 ;	level_1/level_1.c 187
                           1372 ;	genIpush
                           1373 ; _saveRegsForCall: sendSetSize: 0 deInUse: 0 bcInUse: 0 deSending: 0
   0527 21 90 01           1374 	ld	hl,#0x0190
   052A E5                 1375 	push	hl
                           1376 ;	genCall
   052B CD 00 00           1377 	call	_delay
   052E E8 02              1378 	lda	sp,2(sp)
                           1379 ;	level_1/level_1.c 188
                           1380 ;	genAssign
   0530 01 40 FF           1381 	ld	bc,#0xFF40
                           1382 ;	genAssign
                           1383 ;	AOP_STK for _level_1_sprite_setup_sloc0_1_0
   0533 F8 01              1384 	lda	hl,1(sp)
   0535 36 40              1385 	ld	(hl),#0x40
   0537 23                 1386 	inc	hl
   0538 36 FF              1387 	ld	(hl),#0xFF
                           1388 ;	genPointerGet
                           1389 ;	AOP_STK for _level_1_sprite_setup_sloc0_1_0
                           1390 ;	AOP_STK for _level_1_sprite_setup_sloc1_1_0
   053A 2B                 1391 	dec	hl
   053B 5E                 1392 	ld	e,(hl)
   053C 23                 1393 	inc	hl
   053D 56                 1394 	ld	d,(hl)
   053E 1A                 1395 	ld	a,(de)
   053F 2B                 1396 	dec	hl
   0540 2B                 1397 	dec	hl
                           1398 ;	genOr
                           1399 ;	AOP_STK for _level_1_sprite_setup_sloc1_1_0
   0541 77                 1400 	ld      (hl),a
   0542 7F                 1401 	ld      a,a
   0543 F6 02              1402 	or	a,#0x02
                           1403 ;	genAssign (pointer)
   0545 02                 1404 	ld	(bc),a
                           1405 ;	genLabel
   0546                    1406 00101$:
                           1407 ;	genEndFunction
   0546 E8 03              1408 	lda	sp,3(sp)
   0548 C9                 1409 	ret
   0549                    1410 ___level_1_sprite_setup_end:
                           1411 ;	level_1/level_1.c 194
                           1412 ;	genLabel
                           1413 ;	genFunction
                           1414 ;	---------------------------------
                           1415 ; Function enter_miner
                           1416 ; ---------------------------------
   0549                    1417 ___enter_miner_start:
   0549                    1418 _enter_miner:
   0549 E8 FB              1419 	lda	sp,-5(sp)
                           1420 ;	level_1/level_1.c 196
                           1421 ;	genAssign
                           1422 ;	AOP_STK for _enter_miner_step_x_1_1
   054B F8 04              1423 	lda	hl,4(sp)
   054D 36 04              1424 	ld	(hl),#0x04
                           1425 ;	level_1/level_1.c 197
                           1426 ;	genAssign
                           1427 ;	AOP_STK for _enter_miner_step_y_1_1
   054F 2B                 1428 	dec	hl
   0550 36 00              1429 	ld	(hl),#0x00
                           1430 ;	level_1/level_1.c 199
                           1431 ;	genCmpGt
                           1432 ;	AOP_HL for _miner_posx
   0552 3E 50              1433 	ld	a,#0x50
   0554 21 00 00           1434 	ld	hl,#_miner_posx
   0557 96                 1435 	sub	a,(hl)
   0558 DA 1A 06           1436 	jp	c,00104$
                           1437 ;	level_1/level_1.c 201
                           1438 ;	genAssign
                           1439 ;	AOP_STK for _enter_miner_step_y_1_1
   055B F8 03              1440 	lda	hl,3(sp)
   055D 36 04              1441 	ld	(hl),#0x04
                           1442 ;	level_1/level_1.c 202
                           1443 ;	genAssign
                           1444 ;	AOP_STK for _enter_miner_step_x_1_1
   055F 23                 1445 	inc	hl
   0560 36 00              1446 	ld	(hl),#0x00
                           1447 ;	level_1/level_1.c 203
                           1448 ;	genIpush
                           1449 ; _saveRegsForCall: sendSetSize: 0 deInUse: 0 bcInUse: 0 deSending: 0
   0562 21 00 00           1450 	ld	hl,#_miner_walk_up
   0565 E5                 1451 	push	hl
                           1452 ;	genIpush
   0566 21 10 08           1453 	ld	hl,#0x0810
   0569 E5                 1454 	push	hl
                           1455 ;	genCall
   056A CD 00 00           1456 	call	_set_sprite_data
   056D E8 04              1457 	lda	sp,4(sp)
                           1458 ;	level_1/level_1.c 204
                           1459 ;	genCmpGt
                           1460 ;	AOP_HL for _miner_posy
   056F 3E 5A              1461 	ld	a,#0x5A
   0571 21 00 00           1462 	ld	hl,#_miner_posy
   0574 96                 1463 	sub	a,(hl)
   0575 DA 94 05           1464 	jp	c,00102$
                           1465 ;	level_1/level_1.c 207
                           1466 ;	genIpush
                           1467 ; _saveRegsForCall: sendSetSize: 0 deInUse: 0 bcInUse: 0 deSending: 0
   0578 21 00 00           1468 	ld	hl,#_miner_idle_back
   057B E5                 1469 	push	hl
                           1470 ;	genIpush
   057C 21 10 08           1471 	ld	hl,#0x0810
   057F E5                 1472 	push	hl
                           1473 ;	genCall
   0580 CD 00 00           1474 	call	_set_sprite_data
   0583 E8 04              1475 	lda	sp,4(sp)
                           1476 ;	level_1/level_1.c 208
                           1477 ;	genIpush
                           1478 ; _saveRegsForCall: sendSetSize: 0 deInUse: 0 bcInUse: 0 deSending: 0
   0585 21 64 00           1479 	ld	hl,#0x0064
   0588 E5                 1480 	push	hl
                           1481 ;	genCall
   0589 CD 00 00           1482 	call	_delay
   058C E8 02              1483 	lda	sp,2(sp)
                           1484 ;	level_1/level_1.c 210
                           1485 ;	genRet
   058E 11 01 00           1486 	ld	de,#0x0001
   0591 C3 B4 06           1487 	jp	00105$
                           1488 ;	genLabel
   0594                    1489 00102$:
                           1490 ;	level_1/level_1.c 213
                           1491 ;	genAssign
                           1492 ;	(operands are equal 1)
                           1493 ;	level_1/level_1.c 214
                           1494 ;	genMinus
                           1495 ;	AOP_HL for _miner_posy
   0594 21 00 00           1496 	ld	hl,#_miner_posy
   0597 7E                 1497 	ld	a,(hl)
   0598 C6 FC              1498 	add	a,#0xFC
   059A 77                 1499 	ld	(hl),a
                           1500 ;	level_1/level_1.c 216
                           1501 ;	genAnd
                           1502 ;	AOP_HL for _i
   059B 21 00 00           1503 	ld	hl,#_i
   059E 7E                 1504 	ld	a,(hl)
   059F E6 01              1505 	and	a,#0x01
   05A1 47                 1506 	ld	b,a
                           1507 ;	genCast
                           1508 ; Removed redundent load
   05A2 0E 00              1509 	ld	c,#0x00
                           1510 ;	genLeftShift
   05A4 3E 03              1511 	ld	a,#0x02+1
   05A6 18 04              1512 	jr	00110$
   05A8                    1513 00109$:
   05A8 CB 20              1514 	sla	b
   05AA CB 11              1515 	rl	c
   05AC                    1516 00110$:
   05AC 3D                 1517 	dec	a
   05AD 20 F9              1518 	jr	nz,00109$
                           1519 ;	genPlus
                           1520 ;	AOP_STK for _enter_miner_sloc0_1_0
                           1521 ;	genPlusIncr
                           1522 ;	Can't optimise plus by inc, falling back to the normal way
   05AF 58                 1523 	ld	e,b
   05B0 51                 1524 	ld	d,c
   05B1 21 10 00           1525 	ld	hl,#0x0010
   05B4 19                 1526 	add	hl,de
   05B5 7D                 1527 	ld	a,l
   05B6 54                 1528 	ld	d,h
   05B7 F8 01              1529 	lda	hl,1(sp)
   05B9 22                 1530 	ld	(hl+),a
   05BA 72                 1531 	ld	(hl),d
                           1532 ;	genCast
                           1533 ;	AOP_STK for _enter_miner_sloc0_1_0
                           1534 ;	AOP_STK for _enter_miner_sloc1_1_0
   05BB 2B                 1535 	dec	hl
   05BC 7E                 1536 	ld	a,(hl)
   05BD 2B                 1537 	dec	hl
   05BE 77                 1538 	ld	(hl),a
                           1539 ;	genIpush
                           1540 ; _saveRegsForCall: sendSetSize: 0 deInUse: 0 bcInUse: 1 deSending: 0
   05BF C5                 1541 	push	bc
                           1542 ;	AOP_STK for _enter_miner_sloc1_1_0
   05C0 7E                 1543 	ld	a,(hl)
   05C1 F5                 1544 	push	af
   05C2 33                 1545 	inc	sp
                           1546 ;	genIpush
   05C3 3E 04              1547 	ld	a,#0x04
   05C5 F5                 1548 	push	af
   05C6 33                 1549 	inc	sp
                           1550 ;	genCall
   05C7 CD 00 00           1551 	call	_set_sprite_tile
   05CA E8 02              1552 	lda	sp,2(sp)
   05CC C1                 1553 	pop	bc
                           1554 ;	level_1/level_1.c 217
                           1555 ;	genPlus
                           1556 ;	genPlusIncr
                           1557 ;	Can't optimise plus by inc, falling back to the normal way
   05CD 78                 1558 	ld	a,b
   05CE C6 12              1559 	add	a,#0x12
   05D0 47                 1560 	ld	b,a
   05D1 79                 1561 	ld	a,c
   05D2 CE 00              1562 	adc	a,#0x00
   05D4 4F                 1563 	ld	c,a
                           1564 ;	genCast
                           1565 ; Removed redundent load
                           1566 ;	genIpush
                           1567 ; _saveRegsForCall: sendSetSize: 0 deInUse: 0 bcInUse: 0 deSending: 0
   05D5 78                 1568 	ld	a,b
   05D6 F5                 1569 	push	af
   05D7 33                 1570 	inc	sp
                           1571 ;	genIpush
   05D8 3E 05              1572 	ld	a,#0x05
   05DA F5                 1573 	push	af
   05DB 33                 1574 	inc	sp
                           1575 ;	genCall
   05DC CD 00 00           1576 	call	_set_sprite_tile
   05DF E8 02              1577 	lda	sp,2(sp)
                           1578 ;	level_1/level_1.c 219
                           1579 ;	genIpush
                           1580 ; _saveRegsForCall: sendSetSize: 0 deInUse: 0 bcInUse: 0 deSending: 0
                           1581 ;	AOP_HL for _miner_posy
   05E1 21 00 00           1582 	ld	hl,#_miner_posy
   05E4 7E                 1583 	ld	a,(hl)
   05E5 F5                 1584 	push	af
   05E6 33                 1585 	inc	sp
                           1586 ;	genIpush
                           1587 ;	AOP_HL for _miner_posx
   05E7 21 00 00           1588 	ld	hl,#_miner_posx
   05EA 7E                 1589 	ld	a,(hl)
   05EB F5                 1590 	push	af
   05EC 33                 1591 	inc	sp
                           1592 ;	genIpush
   05ED 3E 04              1593 	ld	a,#0x04
   05EF F5                 1594 	push	af
   05F0 33                 1595 	inc	sp
                           1596 ;	genCall
   05F1 CD 00 00           1597 	call	_move_sprite
   05F4 E8 03              1598 	lda	sp,3(sp)
                           1599 ;	level_1/level_1.c 220
                           1600 ;	genPlus
                           1601 ;	AOP_HL for _miner_posx
                           1602 ;	AOP_HL for _sprite_width
                           1603 ;	Can't optimise plus by inc, falling back to the normal way
   05F6 21 00 00           1604 	ld	hl,#_miner_posx
   05F9 7E                 1605 	ld	a,(hl)
   05FA 21 00 00           1606 	ld	hl,#_sprite_width
   05FD 86                 1607 	add	a,(hl)
   05FE 4F                 1608 	ld	c,a
                           1609 ;	genIpush
                           1610 ; _saveRegsForCall: sendSetSize: 0 deInUse: 0 bcInUse: 0 deSending: 0
                           1611 ;	AOP_HL for _miner_posy
   05FF 21 00 00           1612 	ld	hl,#_miner_posy
   0602 7E                 1613 	ld	a,(hl)
   0603 F5                 1614 	push	af
   0604 33                 1615 	inc	sp
                           1616 ;	genIpush
   0605 79                 1617 	ld	a,c
   0606 F5                 1618 	push	af
   0607 33                 1619 	inc	sp
                           1620 ;	genIpush
   0608 3E 05              1621 	ld	a,#0x05
   060A F5                 1622 	push	af
   060B 33                 1623 	inc	sp
                           1624 ;	genCall
   060C CD 00 00           1625 	call	_move_sprite
   060F E8 03              1626 	lda	sp,3(sp)
                           1627 ;	level_1/level_1.c 221
                           1628 ;	genIpush
                           1629 ; _saveRegsForCall: sendSetSize: 0 deInUse: 0 bcInUse: 0 deSending: 0
   0611 21 50 00           1630 	ld	hl,#0x0050
   0614 E5                 1631 	push	hl
                           1632 ;	genCall
   0615 CD 00 00           1633 	call	_delay
   0618 E8 02              1634 	lda	sp,2(sp)
                           1635 ;	genLabel
   061A                    1636 00104$:
                           1637 ;	level_1/level_1.c 225
                           1638 ;	genMinus
                           1639 ;	AOP_HL for _miner_posx
                           1640 ;	AOP_STK for _enter_miner_step_x_1_1
   061A 21 00 00           1641 	ld	hl,#_miner_posx
   061D 7E                 1642 	ld	a,(hl)
   061E F8 04              1643 	lda	hl,4(sp)
   0620 96                 1644 	sub	a,(hl)
   0621 21 00 00           1645 	ld	hl,#_miner_posx
   0624 77                 1646 	ld	(hl),a
                           1647 ;	level_1/level_1.c 226
                           1648 ;	genMinus
                           1649 ;	AOP_HL for _miner_posy
                           1650 ;	AOP_STK for _enter_miner_step_y_1_1
   0625 21 00 00           1651 	ld	hl,#_miner_posy
   0628 7E                 1652 	ld	a,(hl)
   0629 F8 03              1653 	lda	hl,3(sp)
   062B 96                 1654 	sub	a,(hl)
   062C 21 00 00           1655 	ld	hl,#_miner_posy
   062F 77                 1656 	ld	(hl),a
                           1657 ;	level_1/level_1.c 228
                           1658 ;	genAnd
                           1659 ;	AOP_HL for _i
   0630 21 00 00           1660 	ld	hl,#_i
   0633 7E                 1661 	ld	a,(hl)
   0634 E6 01              1662 	and	a,#0x01
   0636 4F                 1663 	ld	c,a
                           1664 ;	genCast
                           1665 ; Removed redundent load
   0637 06 00              1666 	ld	b,#0x00
                           1667 ;	genLeftShift
   0639 3E 03              1668 	ld	a,#0x02+1
   063B 18 04              1669 	jr	00112$
   063D                    1670 00111$:
   063D CB 21              1671 	sla	c
   063F CB 10              1672 	rl	b
   0641                    1673 00112$:
   0641 3D                 1674 	dec	a
   0642 20 F9              1675 	jr	nz,00111$
                           1676 ;	genPlus
                           1677 ;	AOP_STK for _enter_miner_sloc0_1_0
                           1678 ;	genPlusIncr
                           1679 ;	Can't optimise plus by inc, falling back to the normal way
   0644 21 10 00           1680 	ld	hl,#0x0010
   0647 09                 1681 	add	hl,bc
   0648 7D                 1682 	ld	a,l
   0649 54                 1683 	ld	d,h
   064A F8 01              1684 	lda	hl,1(sp)
   064C 22                 1685 	ld	(hl+),a
   064D 72                 1686 	ld	(hl),d
                           1687 ;	genCast
                           1688 ;	AOP_STK for _enter_miner_sloc0_1_0
                           1689 ;	AOP_STK for _enter_miner_sloc1_1_0
   064E 2B                 1690 	dec	hl
   064F 7E                 1691 	ld	a,(hl)
   0650 2B                 1692 	dec	hl
   0651 77                 1693 	ld	(hl),a
                           1694 ;	genIpush
                           1695 ; _saveRegsForCall: sendSetSize: 0 deInUse: 0 bcInUse: 1 deSending: 0
   0652 C5                 1696 	push	bc
                           1697 ;	AOP_STK for _enter_miner_sloc1_1_0
   0653 7E                 1698 	ld	a,(hl)
   0654 F5                 1699 	push	af
   0655 33                 1700 	inc	sp
                           1701 ;	genIpush
   0656 3E 04              1702 	ld	a,#0x04
   0658 F5                 1703 	push	af
   0659 33                 1704 	inc	sp
                           1705 ;	genCall
   065A CD 00 00           1706 	call	_set_sprite_tile
   065D E8 02              1707 	lda	sp,2(sp)
   065F C1                 1708 	pop	bc
                           1709 ;	level_1/level_1.c 229
                           1710 ;	genPlus
                           1711 ;	genPlusIncr
                           1712 ;	Can't optimise plus by inc, falling back to the normal way
   0660 79                 1713 	ld	a,c
   0661 C6 12              1714 	add	a,#0x12
   0663 4F                 1715 	ld	c,a
   0664 78                 1716 	ld	a,b
   0665 CE 00              1717 	adc	a,#0x00
   0667 47                 1718 	ld	b,a
                           1719 ;	genCast
                           1720 ; Removed redundent load
                           1721 ;	genIpush
                           1722 ; _saveRegsForCall: sendSetSize: 0 deInUse: 0 bcInUse: 0 deSending: 0
   0668 79                 1723 	ld	a,c
   0669 F5                 1724 	push	af
   066A 33                 1725 	inc	sp
                           1726 ;	genIpush
   066B 3E 05              1727 	ld	a,#0x05
   066D F5                 1728 	push	af
   066E 33                 1729 	inc	sp
                           1730 ;	genCall
   066F CD 00 00           1731 	call	_set_sprite_tile
   0672 E8 02              1732 	lda	sp,2(sp)
                           1733 ;	level_1/level_1.c 230
                           1734 ;	genIpush
                           1735 ; _saveRegsForCall: sendSetSize: 0 deInUse: 0 bcInUse: 0 deSending: 0
                           1736 ;	AOP_HL for _miner_posy
   0674 21 00 00           1737 	ld	hl,#_miner_posy
   0677 7E                 1738 	ld	a,(hl)
   0678 F5                 1739 	push	af
   0679 33                 1740 	inc	sp
                           1741 ;	genIpush
                           1742 ;	AOP_HL for _miner_posx
   067A 21 00 00           1743 	ld	hl,#_miner_posx
   067D 7E                 1744 	ld	a,(hl)
   067E F5                 1745 	push	af
   067F 33                 1746 	inc	sp
                           1747 ;	genIpush
   0680 3E 04              1748 	ld	a,#0x04
   0682 F5                 1749 	push	af
   0683 33                 1750 	inc	sp
                           1751 ;	genCall
   0684 CD 00 00           1752 	call	_move_sprite
   0687 E8 03              1753 	lda	sp,3(sp)
                           1754 ;	level_1/level_1.c 231
                           1755 ;	genPlus
                           1756 ;	AOP_HL for _miner_posx
                           1757 ;	AOP_HL for _sprite_width
                           1758 ;	Can't optimise plus by inc, falling back to the normal way
   0689 21 00 00           1759 	ld	hl,#_miner_posx
   068C 7E                 1760 	ld	a,(hl)
   068D 21 00 00           1761 	ld	hl,#_sprite_width
   0690 86                 1762 	add	a,(hl)
   0691 4F                 1763 	ld	c,a
                           1764 ;	genIpush
                           1765 ; _saveRegsForCall: sendSetSize: 0 deInUse: 0 bcInUse: 0 deSending: 0
                           1766 ;	AOP_HL for _miner_posy
   0692 21 00 00           1767 	ld	hl,#_miner_posy
   0695 7E                 1768 	ld	a,(hl)
   0696 F5                 1769 	push	af
   0697 33                 1770 	inc	sp
                           1771 ;	genIpush
   0698 79                 1772 	ld	a,c
   0699 F5                 1773 	push	af
   069A 33                 1774 	inc	sp
                           1775 ;	genIpush
   069B 3E 05              1776 	ld	a,#0x05
   069D F5                 1777 	push	af
   069E 33                 1778 	inc	sp
                           1779 ;	genCall
   069F CD 00 00           1780 	call	_move_sprite
   06A2 E8 03              1781 	lda	sp,3(sp)
                           1782 ;	level_1/level_1.c 232
                           1783 ;	genIpush
                           1784 ; _saveRegsForCall: sendSetSize: 0 deInUse: 0 bcInUse: 0 deSending: 0
   06A4 21 50 00           1785 	ld	hl,#0x0050
   06A7 E5                 1786 	push	hl
                           1787 ;	genCall
   06A8 CD 00 00           1788 	call	_delay
   06AB E8 02              1789 	lda	sp,2(sp)
                           1790 ;	level_1/level_1.c 234
                           1791 ;	genPlus
                           1792 ;	AOP_HL for _i
                           1793 ;	genPlusIncr
   06AD 21 00 00           1794 	ld	hl,#_i
   06B0 34                 1795 	inc	(hl)
                           1796 ;	level_1/level_1.c 236
                           1797 ;	genRet
   06B1 11 00 00           1798 	ld	de,#0x0000
                           1799 ;	genLabel
   06B4                    1800 00105$:
                           1801 ;	genEndFunction
   06B4 E8 05              1802 	lda	sp,5(sp)
   06B6 C9                 1803 	ret
   06B7                    1804 ___enter_miner_end:
                           1805 ;	level_1/level_1.c 240
                           1806 ;	genLabel
                           1807 ;	genFunction
                           1808 ;	---------------------------------
                           1809 ; Function miner_intro_setup
                           1810 ; ---------------------------------
   06B7                    1811 ___miner_intro_setup_start:
   06B7                    1812 _miner_intro_setup:
   06B7 E8 FD              1813 	lda	sp,-3(sp)
                           1814 ;	level_1/level_1.c 242
                           1815 ;	genCall
                           1816 ; _saveRegsForCall: sendSetSize: 0 deInUse: 0 bcInUse: 0 deSending: 0
   06B9 CD 00 00           1817 	call	_display_off
                           1818 ;	level_1/level_1.c 243
                           1819 ;	genAssign
   06BC 01 40 FF           1820 	ld	bc,#0xFF40
                           1821 ;	genAssign
                           1822 ;	AOP_STK for _miner_intro_setup_sloc0_1_0
   06BF F8 01              1823 	lda	hl,1(sp)
   06C1 36 40              1824 	ld	(hl),#0x40
   06C3 23                 1825 	inc	hl
   06C4 36 FF              1826 	ld	(hl),#0xFF
                           1827 ;	genPointerGet
                           1828 ;	AOP_STK for _miner_intro_setup_sloc0_1_0
                           1829 ;	AOP_STK for _miner_intro_setup_sloc1_1_0
   06C6 2B                 1830 	dec	hl
   06C7 5E                 1831 	ld	e,(hl)
   06C8 23                 1832 	inc	hl
   06C9 56                 1833 	ld	d,(hl)
   06CA 1A                 1834 	ld	a,(de)
   06CB 2B                 1835 	dec	hl
   06CC 2B                 1836 	dec	hl
                           1837 ;	genAnd
                           1838 ;	AOP_STK for _miner_intro_setup_sloc1_1_0
   06CD 77                 1839 	ld      (hl),a
   06CE 7F                 1840 	ld      a,a
   06CF E6 FD              1841 	and	a,#0xFD
                           1842 ;	genAssign (pointer)
   06D1 02                 1843 	ld	(bc),a
                           1844 ;	level_1/level_1.c 244
                           1845 ;	genAssign
   06D2 01 40 FF           1846 	ld	bc,#0xFF40
                           1847 ;	genAssign
                           1848 ;	AOP_STK for _miner_intro_setup_sloc0_1_0
   06D5 23                 1849 	inc	hl
   06D6 36 40              1850 	ld	(hl),#0x40
   06D8 23                 1851 	inc	hl
   06D9 36 FF              1852 	ld	(hl),#0xFF
                           1853 ;	genPointerGet
                           1854 ;	AOP_STK for _miner_intro_setup_sloc0_1_0
                           1855 ;	AOP_STK for _miner_intro_setup_sloc1_1_0
   06DB 2B                 1856 	dec	hl
   06DC 5E                 1857 	ld	e,(hl)
   06DD 23                 1858 	inc	hl
   06DE 56                 1859 	ld	d,(hl)
   06DF 1A                 1860 	ld	a,(de)
   06E0 2B                 1861 	dec	hl
   06E1 2B                 1862 	dec	hl
                           1863 ;	genAnd
                           1864 ;	AOP_STK for _miner_intro_setup_sloc1_1_0
   06E2 77                 1865 	ld      (hl),a
   06E3 7F                 1866 	ld      a,a
   06E4 E6 DF              1867 	and	a,#0xDF
                           1868 ;	genAssign (pointer)
   06E6 02                 1869 	ld	(bc),a
                           1870 ;	level_1/level_1.c 245
                           1871 ;	genAssign
   06E7 01 40 FF           1872 	ld	bc,#0xFF40
                           1873 ;	genAssign
                           1874 ;	AOP_STK for _miner_intro_setup_sloc0_1_0
   06EA 23                 1875 	inc	hl
   06EB 36 40              1876 	ld	(hl),#0x40
   06ED 23                 1877 	inc	hl
   06EE 36 FF              1878 	ld	(hl),#0xFF
                           1879 ;	genPointerGet
                           1880 ;	AOP_STK for _miner_intro_setup_sloc0_1_0
                           1881 ;	AOP_STK for _miner_intro_setup_sloc1_1_0
   06F0 2B                 1882 	dec	hl
   06F1 5E                 1883 	ld	e,(hl)
   06F2 23                 1884 	inc	hl
   06F3 56                 1885 	ld	d,(hl)
   06F4 1A                 1886 	ld	a,(de)
   06F5 2B                 1887 	dec	hl
   06F6 2B                 1888 	dec	hl
                           1889 ;	genAnd
                           1890 ;	AOP_STK for _miner_intro_setup_sloc1_1_0
   06F7 77                 1891 	ld      (hl),a
   06F8 7F                 1892 	ld      a,a
   06F9 E6 FE              1893 	and	a,#0xFE
                           1894 ;	genAssign (pointer)
   06FB 02                 1895 	ld	(bc),a
                           1896 ;	level_1/level_1.c 247
                           1897 ;	genCall
                           1898 ; _saveRegsForCall: sendSetSize: 0 deInUse: 0 bcInUse: 0 deSending: 0
   06FC CD 00 00           1899 	call	_bkg_clean
                           1900 ;	level_1/level_1.c 249
                           1901 ;	genAssign
   06FF 01 40 FF           1902 	ld	bc,#0xFF40
                           1903 ;	genAssign
                           1904 ;	AOP_STK for _miner_intro_setup_sloc0_1_0
   0702 F8 01              1905 	lda	hl,1(sp)
   0704 36 40              1906 	ld	(hl),#0x40
   0706 23                 1907 	inc	hl
   0707 36 FF              1908 	ld	(hl),#0xFF
                           1909 ;	genPointerGet
                           1910 ;	AOP_STK for _miner_intro_setup_sloc0_1_0
                           1911 ;	AOP_STK for _miner_intro_setup_sloc1_1_0
   0709 2B                 1912 	dec	hl
   070A 5E                 1913 	ld	e,(hl)
   070B 23                 1914 	inc	hl
   070C 56                 1915 	ld	d,(hl)
   070D 1A                 1916 	ld	a,(de)
   070E 2B                 1917 	dec	hl
   070F 2B                 1918 	dec	hl
                           1919 ;	genOr
                           1920 ;	AOP_STK for _miner_intro_setup_sloc1_1_0
   0710 77                 1921 	ld      (hl),a
   0711 7F                 1922 	ld      a,a
   0712 F6 01              1923 	or	a,#0x01
                           1924 ;	genAssign (pointer)
   0714 02                 1925 	ld	(bc),a
                           1926 ;	level_1/level_1.c 250
                           1927 ;	genAssign
   0715 01 40 FF           1928 	ld	bc,#0xFF40
                           1929 ;	genAssign
                           1930 ;	AOP_STK for _miner_intro_setup_sloc0_1_0
   0718 23                 1931 	inc	hl
   0719 36 40              1932 	ld	(hl),#0x40
   071B 23                 1933 	inc	hl
   071C 36 FF              1934 	ld	(hl),#0xFF
                           1935 ;	genPointerGet
                           1936 ;	AOP_STK for _miner_intro_setup_sloc0_1_0
                           1937 ;	AOP_STK for _miner_intro_setup_sloc1_1_0
   071E 2B                 1938 	dec	hl
   071F 5E                 1939 	ld	e,(hl)
   0720 23                 1940 	inc	hl
   0721 56                 1941 	ld	d,(hl)
   0722 1A                 1942 	ld	a,(de)
   0723 2B                 1943 	dec	hl
   0724 2B                 1944 	dec	hl
                           1945 ;	genOr
                           1946 ;	AOP_STK for _miner_intro_setup_sloc1_1_0
   0725 77                 1947 	ld      (hl),a
   0726 7F                 1948 	ld      a,a
   0727 F6 02              1949 	or	a,#0x02
                           1950 ;	genAssign (pointer)
   0729 02                 1951 	ld	(bc),a
                           1952 ;	level_1/level_1.c 251
                           1953 ;	genAssign
   072A 01 40 FF           1954 	ld	bc,#0xFF40
                           1955 ;	genAssign
                           1956 ;	AOP_STK for _miner_intro_setup_sloc0_1_0
   072D 23                 1957 	inc	hl
   072E 36 40              1958 	ld	(hl),#0x40
   0730 23                 1959 	inc	hl
   0731 36 FF              1960 	ld	(hl),#0xFF
                           1961 ;	genPointerGet
                           1962 ;	AOP_STK for _miner_intro_setup_sloc0_1_0
                           1963 ;	AOP_STK for _miner_intro_setup_sloc1_1_0
   0733 2B                 1964 	dec	hl
   0734 5E                 1965 	ld	e,(hl)
   0735 23                 1966 	inc	hl
   0736 56                 1967 	ld	d,(hl)
   0737 1A                 1968 	ld	a,(de)
   0738 2B                 1969 	dec	hl
   0739 2B                 1970 	dec	hl
                           1971 ;	genOr
                           1972 ;	AOP_STK for _miner_intro_setup_sloc1_1_0
   073A 77                 1973 	ld      (hl),a
   073B 7F                 1974 	ld      a,a
   073C F6 80              1975 	or	a,#0x80
                           1976 ;	genAssign (pointer)
   073E 02                 1977 	ld	(bc),a
                           1978 ;	level_1/level_1.c 253
                           1979 ;	genCall
                           1980 ; _saveRegsForCall: sendSetSize: 0 deInUse: 0 bcInUse: 0 deSending: 0
   073F CD 00 00           1981 	call	_miner
                           1982 ;	level_1/level_1.c 254
                           1983 ;	genIpush
                           1984 ; _saveRegsForCall: sendSetSize: 0 deInUse: 0 bcInUse: 0 deSending: 0
   0742 21 18 30           1985 	ld	hl,#0x3018
   0745 E5                 1986 	push	hl
                           1987 ;	genIpush
   0746 21 52 07           1988 	ld	hl,#__str_8
   0749 E5                 1989 	push	hl
                           1990 ;	genCall
   074A CD 00 00           1991 	call	_print
   074D E8 04              1992 	lda	sp,4(sp)
                           1993 ;	genLabel
   074F                    1994 00101$:
                           1995 ;	genEndFunction
   074F E8 03              1996 	lda	sp,3(sp)
   0751 C9                 1997 	ret
   0752                    1998 ___miner_intro_setup_end:
   0752                    1999 __str_8:
   0752 49 69 43 4F 4D 45  2000 	.ascii "IiCOME"
   0758 0A                 2001 	.db 0x0A
   0759 46 52 4F 4D 69 54  2002 	.ascii "FROMiTHE"
        48 45
   0761 0A                 2003 	.db 0x0A
   0762 59 55 42 41 52 49  2004 	.ascii "YUBARI"
   0768 0A                 2005 	.db 0x0A
   0769 43 4F 41 4C        2006 	.ascii "COAL"
   076D 0A                 2007 	.db 0x0A
   076E 4D 49 4E 45 53 65  2008 	.ascii "MINESe"
   0774 00                 2009 	.db 0x00
                           2010 ;	level_1/level_1.c 259
                           2011 ;	genLabel
                           2012 ;	genFunction
                           2013 ;	---------------------------------
                           2014 ; Function miner_intro
                           2015 ; ---------------------------------
   0775                    2016 ___miner_intro_start:
   0775                    2017 _miner_intro:
   0775 E8 FD              2018 	lda	sp,-3(sp)
                           2019 ;	level_1/level_1.c 261
                           2020 ;	genAssign
   0777 01 40 FF           2021 	ld	bc,#0xFF40
                           2022 ;	genAssign
                           2023 ;	AOP_STK for _miner_intro_sloc0_1_0
   077A F8 01              2024 	lda	hl,1(sp)
   077C 36 40              2025 	ld	(hl),#0x40
   077E 23                 2026 	inc	hl
   077F 36 FF              2027 	ld	(hl),#0xFF
                           2028 ;	genPointerGet
                           2029 ;	AOP_STK for _miner_intro_sloc0_1_0
                           2030 ;	AOP_STK for _miner_intro_sloc1_1_0
   0781 2B                 2031 	dec	hl
   0782 5E                 2032 	ld	e,(hl)
   0783 23                 2033 	inc	hl
   0784 56                 2034 	ld	d,(hl)
   0785 1A                 2035 	ld	a,(de)
   0786 2B                 2036 	dec	hl
   0787 2B                 2037 	dec	hl
                           2038 ;	genOr
                           2039 ;	AOP_STK for _miner_intro_sloc1_1_0
   0788 77                 2040 	ld      (hl),a
                           2041 ; Removed redundent load
   0789 F6 80              2042 	or	a,#0x80
                           2043 ;	genAssign (pointer)
   078B 02                 2044 	ld	(bc),a
                           2045 ;	level_1/level_1.c 262
                           2046 ;	genAssign
                           2047 ;	AOP_HL for _talking
   078C 21 00 00           2048 	ld	hl,#_talking
   078F 36 01              2049 	ld	(hl),#0x01
                           2050 ;	level_1/level_1.c 263
                           2051 ;	genLabel
   0791                    2052 00127$:
                           2053 ;	genIfx
                           2054 ;	AOP_HL for _talking
   0791 AF                 2055 	xor	a,a
   0792 21 00 00           2056 	ld	hl,#_talking
   0795 B6                 2057 	or	a,(hl)
   0796 CA 81 09           2058 	jp	z,00130$
                           2059 ;	level_1/level_1.c 265
                           2060 ;	genCall
                           2061 ; _saveRegsForCall: sendSetSize: 0 deInUse: 0 bcInUse: 0 deSending: 0
   0799 CD 00 00           2062 	call	_joypad
   079C 4B                 2063 	ld	c,e
                           2064 ;	genAnd
   079D 79                 2065 	ld	a,c
   079E E6 10              2066 	and	a,#0x10
   07A0 20 03              2067 	jr	nz,00146$
   07A2 C3 91 07           2068 	jp	00127$
   07A5                    2069 00146$:
                           2070 ;	level_1/level_1.c 267
                           2071 ;	genPlus
                           2072 ;	AOP_HL for _talking
                           2073 ;	genPlusIncr
   07A5 21 00 00           2074 	ld	hl,#_talking
   07A8 34                 2075 	inc	(hl)
                           2076 ;	level_1/level_1.c 268
                           2077 ;	genIpush
                           2078 ; _saveRegsForCall: sendSetSize: 0 deInUse: 0 bcInUse: 0 deSending: 0
   07A9 21 C8 00           2079 	ld	hl,#0x00C8
   07AC E5                 2080 	push	hl
                           2081 ;	genCall
   07AD CD 00 00           2082 	call	_delay
   07B0 E8 02              2083 	lda	sp,2(sp)
                           2084 ;	level_1/level_1.c 269
                           2085 ;	genCmpEq
                           2086 ;	AOP_HL for _talking
                           2087 ; genCmpEq: left 1, right 1, result 0
   07B2 21 00 00           2088 	ld	hl,#_talking
   07B5 7E                 2089 	ld	a,(hl)
   07B6 FE 02              2090 	cp	a,#0x02
   07B8 C2 DB 07           2091 	jp	nz,00102$
   07BB 18 03              2092 	jr	00148$
   07BD                    2093 00147$:
   07BD C3 DB 07           2094 	jp	00102$
   07C0                    2095 00148$:
                           2096 ;	level_1/level_1.c 271
                           2097 ;	genIpush
                           2098 ; _saveRegsForCall: sendSetSize: 0 deInUse: 0 bcInUse: 0 deSending: 0
   07C0 3E 06              2099 	ld	a,#0x06
   07C2 F5                 2100 	push	af
   07C3 33                 2101 	inc	sp
                           2102 ;	genCall
   07C4 CD 00 00           2103 	call	_sprite_clean
   07C7 E8 01              2104 	lda	sp,1(sp)
                           2105 ;	level_1/level_1.c 272
                           2106 ;	genAssign
                           2107 ;	AOP_HL for _LETTER_COUNT
   07C9 21 00 00           2108 	ld	hl,#_LETTER_COUNT
   07CC 36 06              2109 	ld	(hl),#0x06
                           2110 ;	level_1/level_1.c 273
                           2111 ;	genIpush
                           2112 ; _saveRegsForCall: sendSetSize: 0 deInUse: 0 bcInUse: 0 deSending: 0
   07CE 21 18 30           2113 	ld	hl,#0x3018
   07D1 E5                 2114 	push	hl
                           2115 ;	genIpush
   07D2 21 84 09           2116 	ld	hl,#__str_9
   07D5 E5                 2117 	push	hl
                           2118 ;	genCall
   07D6 CD 00 00           2119 	call	_print
   07D9 E8 04              2120 	lda	sp,4(sp)
                           2121 ;	genLabel
   07DB                    2122 00102$:
                           2123 ;	level_1/level_1.c 275
                           2124 ;	genCmpEq
                           2125 ;	AOP_HL for _talking
                           2126 ; genCmpEq: left 1, right 1, result 0
   07DB 21 00 00           2127 	ld	hl,#_talking
   07DE 7E                 2128 	ld	a,(hl)
   07DF FE 03              2129 	cp	a,#0x03
   07E1 C2 07 08           2130 	jp	nz,00104$
   07E4 18 03              2131 	jr	00150$
   07E6                    2132 00149$:
   07E6 C3 07 08           2133 	jp	00104$
   07E9                    2134 00150$:
                           2135 ;	level_1/level_1.c 277
                           2136 ;	genIpush
                           2137 ; _saveRegsForCall: sendSetSize: 0 deInUse: 0 bcInUse: 0 deSending: 0
   07E9 3E 00              2138 	ld	a,#0x00
   07EB F5                 2139 	push	af
   07EC 33                 2140 	inc	sp
                           2141 ;	genCall
   07ED CD 00 00           2142 	call	_sprite_clean
   07F0 E8 01              2143 	lda	sp,1(sp)
                           2144 ;	level_1/level_1.c 278
                           2145 ;	genAssign
                           2146 ;	AOP_HL for _LETTER_COUNT
   07F2 21 00 00           2147 	ld	hl,#_LETTER_COUNT
   07F5 36 00              2148 	ld	(hl),#0x00
                           2149 ;	level_1/level_1.c 279
                           2150 ;	genCall
                           2151 ; _saveRegsForCall: sendSetSize: 0 deInUse: 0 bcInUse: 0 deSending: 0
   07F7 CD 00 00           2152 	call	_fisherman
                           2153 ;	level_1/level_1.c 280
                           2154 ;	genIpush
                           2155 ; _saveRegsForCall: sendSetSize: 0 deInUse: 0 bcInUse: 0 deSending: 0
   07FA 21 18 30           2156 	ld	hl,#0x3018
   07FD E5                 2157 	push	hl
                           2158 ;	genIpush
   07FE 21 A2 09           2159 	ld	hl,#__str_10
   0801 E5                 2160 	push	hl
                           2161 ;	genCall
   0802 CD 00 00           2162 	call	_print
   0805 E8 04              2163 	lda	sp,4(sp)
                           2164 ;	genLabel
   0807                    2165 00104$:
                           2166 ;	level_1/level_1.c 282
                           2167 ;	genCmpEq
                           2168 ;	AOP_HL for _talking
                           2169 ; genCmpEq: left 1, right 1, result 0
   0807 21 00 00           2170 	ld	hl,#_talking
   080A 7E                 2171 	ld	a,(hl)
   080B FE 04              2172 	cp	a,#0x04
   080D C2 30 08           2173 	jp	nz,00106$
   0810 18 03              2174 	jr	00152$
   0812                    2175 00151$:
   0812 C3 30 08           2176 	jp	00106$
   0815                    2177 00152$:
                           2178 ;	level_1/level_1.c 284
                           2179 ;	genIpush
                           2180 ; _saveRegsForCall: sendSetSize: 0 deInUse: 0 bcInUse: 0 deSending: 0
   0815 3E 0A              2181 	ld	a,#0x0A
   0817 F5                 2182 	push	af
   0818 33                 2183 	inc	sp
                           2184 ;	genCall
   0819 CD 00 00           2185 	call	_sprite_clean
   081C E8 01              2186 	lda	sp,1(sp)
                           2187 ;	level_1/level_1.c 285
                           2188 ;	genAssign
                           2189 ;	AOP_HL for _LETTER_COUNT
   081E 21 00 00           2190 	ld	hl,#_LETTER_COUNT
   0821 36 0A              2191 	ld	(hl),#0x0A
                           2192 ;	level_1/level_1.c 286
                           2193 ;	genIpush
                           2194 ; _saveRegsForCall: sendSetSize: 0 deInUse: 0 bcInUse: 0 deSending: 0
   0823 21 18 30           2195 	ld	hl,#0x3018
   0826 E5                 2196 	push	hl
                           2197 ;	genIpush
   0827 21 B0 09           2198 	ld	hl,#__str_11
   082A E5                 2199 	push	hl
                           2200 ;	genCall
   082B CD 00 00           2201 	call	_print
   082E E8 04              2202 	lda	sp,4(sp)
                           2203 ;	genLabel
   0830                    2204 00106$:
                           2205 ;	level_1/level_1.c 288
                           2206 ;	genCmpEq
                           2207 ;	AOP_HL for _talking
                           2208 ; genCmpEq: left 1, right 1, result 0
   0830 21 00 00           2209 	ld	hl,#_talking
   0833 7E                 2210 	ld	a,(hl)
   0834 FE 05              2211 	cp	a,#0x05
   0836 C2 5C 08           2212 	jp	nz,00108$
   0839 18 03              2213 	jr	00154$
   083B                    2214 00153$:
   083B C3 5C 08           2215 	jp	00108$
   083E                    2216 00154$:
                           2217 ;	level_1/level_1.c 290
                           2218 ;	genIpush
                           2219 ; _saveRegsForCall: sendSetSize: 0 deInUse: 0 bcInUse: 0 deSending: 0
   083E 3E 00              2220 	ld	a,#0x00
   0840 F5                 2221 	push	af
   0841 33                 2222 	inc	sp
                           2223 ;	genCall
   0842 CD 00 00           2224 	call	_sprite_clean
   0845 E8 01              2225 	lda	sp,1(sp)
                           2226 ;	level_1/level_1.c 291
                           2227 ;	genAssign
                           2228 ;	AOP_HL for _LETTER_COUNT
   0847 21 00 00           2229 	ld	hl,#_LETTER_COUNT
   084A 36 00              2230 	ld	(hl),#0x00
                           2231 ;	level_1/level_1.c 292
                           2232 ;	genCall
                           2233 ; _saveRegsForCall: sendSetSize: 0 deInUse: 0 bcInUse: 0 deSending: 0
   084C CD 00 00           2234 	call	_miner
                           2235 ;	level_1/level_1.c 293
                           2236 ;	genIpush
                           2237 ; _saveRegsForCall: sendSetSize: 0 deInUse: 0 bcInUse: 0 deSending: 0
   084F 21 18 30           2238 	ld	hl,#0x3018
   0852 E5                 2239 	push	hl
                           2240 ;	genIpush
   0853 21 D1 09           2241 	ld	hl,#__str_12
   0856 E5                 2242 	push	hl
                           2243 ;	genCall
   0857 CD 00 00           2244 	call	_print
   085A E8 04              2245 	lda	sp,4(sp)
                           2246 ;	genLabel
   085C                    2247 00108$:
                           2248 ;	level_1/level_1.c 295
                           2249 ;	genCmpEq
                           2250 ;	AOP_HL for _talking
                           2251 ; genCmpEq: left 1, right 1, result 0
   085C 21 00 00           2252 	ld	hl,#_talking
   085F 7E                 2253 	ld	a,(hl)
   0860 FE 06              2254 	cp	a,#0x06
   0862 C2 85 08           2255 	jp	nz,00110$
   0865 18 03              2256 	jr	00156$
   0867                    2257 00155$:
   0867 C3 85 08           2258 	jp	00110$
   086A                    2259 00156$:
                           2260 ;	level_1/level_1.c 297
                           2261 ;	genIpush
                           2262 ; _saveRegsForCall: sendSetSize: 0 deInUse: 0 bcInUse: 0 deSending: 0
   086A 3E 06              2263 	ld	a,#0x06
   086C F5                 2264 	push	af
   086D 33                 2265 	inc	sp
                           2266 ;	genCall
   086E CD 00 00           2267 	call	_sprite_clean
   0871 E8 01              2268 	lda	sp,1(sp)
                           2269 ;	level_1/level_1.c 298
                           2270 ;	genAssign
                           2271 ;	AOP_HL for _LETTER_COUNT
   0873 21 00 00           2272 	ld	hl,#_LETTER_COUNT
   0876 36 06              2273 	ld	(hl),#0x06
                           2274 ;	level_1/level_1.c 299
                           2275 ;	genIpush
                           2276 ; _saveRegsForCall: sendSetSize: 0 deInUse: 0 bcInUse: 0 deSending: 0
   0878 21 18 30           2277 	ld	hl,#0x3018
   087B E5                 2278 	push	hl
                           2279 ;	genIpush
   087C 21 EB 09           2280 	ld	hl,#__str_13
   087F E5                 2281 	push	hl
                           2282 ;	genCall
   0880 CD 00 00           2283 	call	_print
   0883 E8 04              2284 	lda	sp,4(sp)
                           2285 ;	genLabel
   0885                    2286 00110$:
                           2287 ;	level_1/level_1.c 301
                           2288 ;	genCmpEq
                           2289 ;	AOP_HL for _talking
                           2290 ; genCmpEq: left 1, right 1, result 0
   0885 21 00 00           2291 	ld	hl,#_talking
   0888 7E                 2292 	ld	a,(hl)
   0889 FE 07              2293 	cp	a,#0x07
   088B C2 AE 08           2294 	jp	nz,00112$
   088E 18 03              2295 	jr	00158$
   0890                    2296 00157$:
   0890 C3 AE 08           2297 	jp	00112$
   0893                    2298 00158$:
                           2299 ;	level_1/level_1.c 303
                           2300 ;	genIpush
                           2301 ; _saveRegsForCall: sendSetSize: 0 deInUse: 0 bcInUse: 0 deSending: 0
   0893 3E 06              2302 	ld	a,#0x06
   0895 F5                 2303 	push	af
   0896 33                 2304 	inc	sp
                           2305 ;	genCall
   0897 CD 00 00           2306 	call	_sprite_clean
   089A E8 01              2307 	lda	sp,1(sp)
                           2308 ;	level_1/level_1.c 304
                           2309 ;	genAssign
                           2310 ;	AOP_HL for _LETTER_COUNT
   089C 21 00 00           2311 	ld	hl,#_LETTER_COUNT
   089F 36 06              2312 	ld	(hl),#0x06
                           2313 ;	level_1/level_1.c 305
                           2314 ;	genIpush
                           2315 ; _saveRegsForCall: sendSetSize: 0 deInUse: 0 bcInUse: 0 deSending: 0
   08A1 21 18 30           2316 	ld	hl,#0x3018
   08A4 E5                 2317 	push	hl
                           2318 ;	genIpush
   08A5 21 FF 09           2319 	ld	hl,#__str_14
   08A8 E5                 2320 	push	hl
                           2321 ;	genCall
   08A9 CD 00 00           2322 	call	_print
   08AC E8 04              2323 	lda	sp,4(sp)
                           2324 ;	genLabel
   08AE                    2325 00112$:
                           2326 ;	level_1/level_1.c 307
                           2327 ;	genCmpEq
                           2328 ;	AOP_HL for _talking
                           2329 ; genCmpEq: left 1, right 1, result 0
   08AE 21 00 00           2330 	ld	hl,#_talking
   08B1 7E                 2331 	ld	a,(hl)
   08B2 FE 08              2332 	cp	a,#0x08
   08B4 C2 D7 08           2333 	jp	nz,00114$
   08B7 18 03              2334 	jr	00160$
   08B9                    2335 00159$:
   08B9 C3 D7 08           2336 	jp	00114$
   08BC                    2337 00160$:
                           2338 ;	level_1/level_1.c 309
                           2339 ;	genIpush
                           2340 ; _saveRegsForCall: sendSetSize: 0 deInUse: 0 bcInUse: 0 deSending: 0
   08BC 3E 06              2341 	ld	a,#0x06
   08BE F5                 2342 	push	af
   08BF 33                 2343 	inc	sp
                           2344 ;	genCall
   08C0 CD 00 00           2345 	call	_sprite_clean
   08C3 E8 01              2346 	lda	sp,1(sp)
                           2347 ;	level_1/level_1.c 310
                           2348 ;	genAssign
                           2349 ;	AOP_HL for _LETTER_COUNT
   08C5 21 00 00           2350 	ld	hl,#_LETTER_COUNT
   08C8 36 06              2351 	ld	(hl),#0x06
                           2352 ;	level_1/level_1.c 311
                           2353 ;	genIpush
                           2354 ; _saveRegsForCall: sendSetSize: 0 deInUse: 0 bcInUse: 0 deSending: 0
   08CA 21 18 30           2355 	ld	hl,#0x3018
   08CD E5                 2356 	push	hl
                           2357 ;	genIpush
   08CE 21 14 0A           2358 	ld	hl,#__str_15
   08D1 E5                 2359 	push	hl
                           2360 ;	genCall
   08D2 CD 00 00           2361 	call	_print
   08D5 E8 04              2362 	lda	sp,4(sp)
                           2363 ;	genLabel
   08D7                    2364 00114$:
                           2365 ;	level_1/level_1.c 313
                           2366 ;	genCmpEq
                           2367 ;	AOP_HL for _talking
                           2368 ; genCmpEq: left 1, right 1, result 0
   08D7 21 00 00           2369 	ld	hl,#_talking
   08DA 7E                 2370 	ld	a,(hl)
   08DB FE 09              2371 	cp	a,#0x09
   08DD C2 03 09           2372 	jp	nz,00116$
   08E0 18 03              2373 	jr	00162$
   08E2                    2374 00161$:
   08E2 C3 03 09           2375 	jp	00116$
   08E5                    2376 00162$:
                           2377 ;	level_1/level_1.c 315
                           2378 ;	genIpush
                           2379 ; _saveRegsForCall: sendSetSize: 0 deInUse: 0 bcInUse: 0 deSending: 0
   08E5 3E 00              2380 	ld	a,#0x00
   08E7 F5                 2381 	push	af
   08E8 33                 2382 	inc	sp
                           2383 ;	genCall
   08E9 CD 00 00           2384 	call	_sprite_clean
   08EC E8 01              2385 	lda	sp,1(sp)
                           2386 ;	level_1/level_1.c 316
                           2387 ;	genAssign
                           2388 ;	AOP_HL for _LETTER_COUNT
   08EE 21 00 00           2389 	ld	hl,#_LETTER_COUNT
   08F1 36 00              2390 	ld	(hl),#0x00
                           2391 ;	level_1/level_1.c 317
                           2392 ;	genCall
                           2393 ; _saveRegsForCall: sendSetSize: 0 deInUse: 0 bcInUse: 0 deSending: 0
   08F3 CD 00 00           2394 	call	_fisherman
                           2395 ;	level_1/level_1.c 318
                           2396 ;	genIpush
                           2397 ; _saveRegsForCall: sendSetSize: 0 deInUse: 0 bcInUse: 0 deSending: 0
   08F6 21 18 30           2398 	ld	hl,#0x3018
   08F9 E5                 2399 	push	hl
                           2400 ;	genIpush
   08FA 21 2F 0A           2401 	ld	hl,#__str_16
   08FD E5                 2402 	push	hl
                           2403 ;	genCall
   08FE CD 00 00           2404 	call	_print
   0901 E8 04              2405 	lda	sp,4(sp)
                           2406 ;	genLabel
   0903                    2407 00116$:
                           2408 ;	level_1/level_1.c 320
                           2409 ;	genCmpEq
                           2410 ;	AOP_HL for _talking
                           2411 ; genCmpEq: left 1, right 1, result 0
   0903 21 00 00           2412 	ld	hl,#_talking
   0906 7E                 2413 	ld	a,(hl)
   0907 FE 0A              2414 	cp	a,#0x0A
   0909 C2 2C 09           2415 	jp	nz,00118$
   090C 18 03              2416 	jr	00164$
   090E                    2417 00163$:
   090E C3 2C 09           2418 	jp	00118$
   0911                    2419 00164$:
                           2420 ;	level_1/level_1.c 322
                           2421 ;	genIpush
                           2422 ; _saveRegsForCall: sendSetSize: 0 deInUse: 0 bcInUse: 0 deSending: 0
   0911 3E 0A              2423 	ld	a,#0x0A
   0913 F5                 2424 	push	af
   0914 33                 2425 	inc	sp
                           2426 ;	genCall
   0915 CD 00 00           2427 	call	_sprite_clean
   0918 E8 01              2428 	lda	sp,1(sp)
                           2429 ;	level_1/level_1.c 323
                           2430 ;	genAssign
                           2431 ;	AOP_HL for _LETTER_COUNT
   091A 21 00 00           2432 	ld	hl,#_LETTER_COUNT
   091D 36 0A              2433 	ld	(hl),#0x0A
                           2434 ;	level_1/level_1.c 324
                           2435 ;	genIpush
                           2436 ; _saveRegsForCall: sendSetSize: 0 deInUse: 0 bcInUse: 0 deSending: 0
   091F 21 18 30           2437 	ld	hl,#0x3018
   0922 E5                 2438 	push	hl
                           2439 ;	genIpush
   0923 21 3D 0A           2440 	ld	hl,#__str_17
   0926 E5                 2441 	push	hl
                           2442 ;	genCall
   0927 CD 00 00           2443 	call	_print
   092A E8 04              2444 	lda	sp,4(sp)
                           2445 ;	genLabel
   092C                    2446 00118$:
                           2447 ;	level_1/level_1.c 326
                           2448 ;	genCmpEq
                           2449 ;	AOP_HL for _talking
                           2450 ; genCmpEq: left 1, right 1, result 0
   092C 21 00 00           2451 	ld	hl,#_talking
   092F 7E                 2452 	ld	a,(hl)
   0930 FE 0B              2453 	cp	a,#0x0B
   0932 C2 58 09           2454 	jp	nz,00120$
   0935 18 03              2455 	jr	00166$
   0937                    2456 00165$:
   0937 C3 58 09           2457 	jp	00120$
   093A                    2458 00166$:
                           2459 ;	level_1/level_1.c 328
                           2460 ;	genIpush
                           2461 ; _saveRegsForCall: sendSetSize: 0 deInUse: 0 bcInUse: 0 deSending: 0
   093A 3E 00              2462 	ld	a,#0x00
   093C F5                 2463 	push	af
   093D 33                 2464 	inc	sp
                           2465 ;	genCall
   093E CD 00 00           2466 	call	_sprite_clean
   0941 E8 01              2467 	lda	sp,1(sp)
                           2468 ;	level_1/level_1.c 329
                           2469 ;	genAssign
                           2470 ;	AOP_HL for _LETTER_COUNT
   0943 21 00 00           2471 	ld	hl,#_LETTER_COUNT
   0946 36 00              2472 	ld	(hl),#0x00
                           2473 ;	level_1/level_1.c 330
                           2474 ;	genCall
                           2475 ; _saveRegsForCall: sendSetSize: 0 deInUse: 0 bcInUse: 0 deSending: 0
   0948 CD 00 00           2476 	call	_miner
                           2477 ;	level_1/level_1.c 331
                           2478 ;	genIpush
                           2479 ; _saveRegsForCall: sendSetSize: 0 deInUse: 0 bcInUse: 0 deSending: 0
   094B 21 18 30           2480 	ld	hl,#0x3018
   094E E5                 2481 	push	hl
                           2482 ;	genIpush
   094F 21 5C 0A           2483 	ld	hl,#__str_18
   0952 E5                 2484 	push	hl
                           2485 ;	genCall
   0953 CD 00 00           2486 	call	_print
   0956 E8 04              2487 	lda	sp,4(sp)
                           2488 ;	genLabel
   0958                    2489 00120$:
                           2490 ;	level_1/level_1.c 333
                           2491 ;	genCmpEq
                           2492 ;	AOP_HL for _talking
                           2493 ; genCmpEq: left 1, right 1, result 0
   0958 21 00 00           2494 	ld	hl,#_talking
   095B 7E                 2495 	ld	a,(hl)
   095C FE 0C              2496 	cp	a,#0x0C
   095E C2 73 09           2497 	jp	nz,00122$
   0961 18 03              2498 	jr	00168$
   0963                    2499 00167$:
   0963 C3 73 09           2500 	jp	00122$
   0966                    2501 00168$:
                           2502 ;	level_1/level_1.c 334
                           2503 ;	genIpush
                           2504 ; _saveRegsForCall: sendSetSize: 0 deInUse: 0 bcInUse: 0 deSending: 0
   0966 21 18 50           2505 	ld	hl,#0x5018
   0969 E5                 2506 	push	hl
                           2507 ;	genIpush
   096A 21 69 0A           2508 	ld	hl,#__str_19
   096D E5                 2509 	push	hl
                           2510 ;	genCall
   096E CD 00 00           2511 	call	_print
   0971 E8 04              2512 	lda	sp,4(sp)
                           2513 ;	genLabel
   0973                    2514 00122$:
                           2515 ;	level_1/level_1.c 335
                           2516 ;	genCmpEq
                           2517 ;	AOP_HL for _talking
                           2518 ; genCmpEq: left 1, right 1, result 0
   0973 21 00 00           2519 	ld	hl,#_talking
   0976 7E                 2520 	ld	a,(hl)
   0977 FE 0D              2521 	cp	a,#0x0D
   0979 C2 91 07           2522 	jp	nz,00127$
   097C 18 03              2523 	jr	00170$
   097E                    2524 00169$:
   097E C3 91 07           2525 	jp	00127$
   0981                    2526 00170$:
                           2527 ;	level_1/level_1.c 336
                           2528 ;	genLabel
   0981                    2529 00130$:
                           2530 ;	genEndFunction
   0981 E8 03              2531 	lda	sp,3(sp)
   0983 C9                 2532 	ret
   0984                    2533 ___miner_intro_end:
   0984                    2534 __str_9:
   0984 57 4F 52 4B 45 44  2535 	.ascii "WORKED"
   098A 0A                 2536 	.db 0x0A
   098B 54 48 45 52 45 69  2537 	.ascii "THEREiFOR"
        46 4F 52
   0994 0A                 2538 	.db 0x0A
   0995 53 45 56 45 4E     2539 	.ascii "SEVEN"
   099A 0A                 2540 	.db 0x0A
   099B 59 45 41 52 53 65  2541 	.ascii "YEARSe"
   09A1 00                 2542 	.db 0x00
   09A2                    2543 __str_10:
   09A2 41 69 4D 49 4E 45  2544 	.ascii "AiMINERf"
        52 66
   09AA 0A                 2545 	.db 0x0A
   09AB 48 55 48 6E        2546 	.ascii "HUHn"
   09AF 00                 2547 	.db 0x00
   09B0                    2548 __str_11:
   09B0 4D 55 53 54 6B 56  2549 	.ascii "MUSTkVE"
        45
   09B7 0A                 2550 	.db 0x0A
   09B8 42 45 45 4E 69 4E  2551 	.ascii "BEENiNO"
        4F
   09BF 0A                 2552 	.db 0x0A
   09C0 4D 4F 4E 45 59 69  2553 	.ascii "MONEYiIN"
        49 4E
   09C8 0A                 2554 	.db 0x0A
   09C9 4D 49 4E 49 4E 47  2555 	.ascii "MININGn"
        6E
   09D0 00                 2556 	.db 0x00
   09D1                    2557 __str_12:
   09D1 65 65 65 54 48 45  2558 	.ascii "eeeTHERE"
        52 45
   09D9 0A                 2559 	.db 0x0A
   09DA 57 41 53 69 41 4E  2560 	.ascii "WASiAN"
   09E0 0A                 2561 	.db 0x0A
   09E1 45 58 50 4C 4F 53  2562 	.ascii "EXPLOSION"
        49 4F 4E
   09EA 00                 2563 	.db 0x00
   09EB                    2564 __str_13:
   09EB 65 65 65           2565 	.ascii "eee"
   09EE 0A                 2566 	.db 0x0A
   09EF 46 52 4F 4D 69 54  2567 	.ascii "FROMiTHE"
        48 45
   09F7 0A                 2568 	.db 0x0A
   09F8 47 41 53 65 65 65  2569 	.ascii "GASeee"
   09FE 00                 2570 	.db 0x00
   09FF                    2571 __str_14:
   09FF 47 4F 4F 44 69 4C  2572 	.ascii "GOODiLIVES"
        49 56 45 53
   0A09 0A                 2573 	.db 0x0A
   0A0A 57 45 52 45 69 4C  2574 	.ascii "WEREiLOST"
        4F 53 54
   0A13 00                 2575 	.db 0x00
   0A14                    2576 __str_15:
   0A14 54 48 41 54 69 43  2577 	.ascii "THATiCANkT"
        41 4E 6B 54
   0A1E 0A                 2578 	.db 0x0A
   0A1F 42 45              2579 	.ascii "BE"
   0A21 0A                 2580 	.db 0x0A
   0A22 52 45 54 55 52 4E  2581 	.ascii "RETURNED"
        45 44
   0A2A 0A                 2582 	.db 0x0A
   0A2B 65 65 65           2583 	.ascii "eee"
   0A2E 00                 2584 	.db 0x00
   0A2F                    2585 __str_16:
   0A2F 57 45 69 42 45 54  2586 	.ascii "WEiBETTER"
        54 45 52
   0A38 0A                 2587 	.db 0x0A
   0A39 47 4F 6C           2588 	.ascii "GOl"
   0A3C 00                 2589 	.db 0x00
   0A3D                    2590 __str_17:
   0A3D 49 69 54 48 49 4E  2591 	.ascii "IiTHINK"
        4B
   0A44 0A                 2592 	.db 0x0A
   0A45 49 69 48 45 41 52  2593 	.ascii "IiHEAR"
   0A4B 0A                 2594 	.db 0x0A
   0A4C 41 53 41 4B 41 57  2595 	.ascii "ASAKAWA"
        41
   0A53 0A                 2596 	.db 0x0A
   0A54 43 4F 4D 49 4E 47  2597 	.ascii "COMINGl"
        6C
   0A5B 00                 2598 	.db 0x00
   0A5C                    2599 __str_18:
   0A5C 57 48 4F 6B 53 69  2600 	.ascii "WHOkSiTHAT"
        54 48 41 54
   0A66 0A                 2601 	.db 0x0A
   0A67 6E                 2602 	.ascii "n"
   0A68 00                 2603 	.db 0x00
   0A69                    2604 __str_19:
   0A69 46 49 53 48 45 52  2605 	.ascii "FISHERMANg"
        4D 41 4E 67
   0A73 0A                 2606 	.db 0x0A
   0A74 54 48 45           2607 	.ascii "THE"
   0A77 0A                 2608 	.db 0x0A
   0A78 4D 41 4E 41 47 45  2609 	.ascii "MANAGERl"
        52 6C
   0A80 00                 2610 	.db 0x00
                           2611 ;	level_1/level_1.c 348
                           2612 ;	genLabel
                           2613 ;	genFunction
                           2614 ;	---------------------------------
                           2615 ; Function l1_scene_3_setup
                           2616 ; ---------------------------------
   0A81                    2617 ___l1_scene_3_setup_start:
   0A81                    2618 _l1_scene_3_setup:
   0A81 E8 FD              2619 	lda	sp,-3(sp)
                           2620 ;	level_1/level_1.c 350
                           2621 ;	genAssign
   0A83 01 40 FF           2622 	ld	bc,#0xFF40
                           2623 ;	genAssign
                           2624 ;	AOP_STK for _l1_scene_3_setup_sloc0_1_0
   0A86 F8 01              2625 	lda	hl,1(sp)
   0A88 36 40              2626 	ld	(hl),#0x40
   0A8A 23                 2627 	inc	hl
   0A8B 36 FF              2628 	ld	(hl),#0xFF
                           2629 ;	genPointerGet
                           2630 ;	AOP_STK for _l1_scene_3_setup_sloc0_1_0
                           2631 ;	AOP_STK for _l1_scene_3_setup_sloc1_1_0
   0A8D 2B                 2632 	dec	hl
   0A8E 5E                 2633 	ld	e,(hl)
   0A8F 23                 2634 	inc	hl
   0A90 56                 2635 	ld	d,(hl)
   0A91 1A                 2636 	ld	a,(de)
   0A92 2B                 2637 	dec	hl
   0A93 2B                 2638 	dec	hl
                           2639 ;	genAnd
                           2640 ;	AOP_STK for _l1_scene_3_setup_sloc1_1_0
   0A94 77                 2641 	ld      (hl),a
   0A95 7F                 2642 	ld      a,a
   0A96 E6 DF              2643 	and	a,#0xDF
                           2644 ;	genAssign (pointer)
   0A98 02                 2645 	ld	(bc),a
                           2646 ;	level_1/level_1.c 351
                           2647 ;	genAssign
   0A99 01 40 FF           2648 	ld	bc,#0xFF40
                           2649 ;	genAssign
                           2650 ;	AOP_STK for _l1_scene_3_setup_sloc0_1_0
   0A9C 23                 2651 	inc	hl
   0A9D 36 40              2652 	ld	(hl),#0x40
   0A9F 23                 2653 	inc	hl
   0AA0 36 FF              2654 	ld	(hl),#0xFF
                           2655 ;	genPointerGet
                           2656 ;	AOP_STK for _l1_scene_3_setup_sloc0_1_0
                           2657 ;	AOP_STK for _l1_scene_3_setup_sloc1_1_0
   0AA2 2B                 2658 	dec	hl
   0AA3 5E                 2659 	ld	e,(hl)
   0AA4 23                 2660 	inc	hl
   0AA5 56                 2661 	ld	d,(hl)
   0AA6 1A                 2662 	ld	a,(de)
   0AA7 2B                 2663 	dec	hl
   0AA8 2B                 2664 	dec	hl
                           2665 ;	genAnd
                           2666 ;	AOP_STK for _l1_scene_3_setup_sloc1_1_0
   0AA9 77                 2667 	ld      (hl),a
   0AAA 7F                 2668 	ld      a,a
   0AAB E6 FE              2669 	and	a,#0xFE
                           2670 ;	genAssign (pointer)
   0AAD 02                 2671 	ld	(bc),a
                           2672 ;	level_1/level_1.c 352
                           2673 ;	genAssign
   0AAE 01 40 FF           2674 	ld	bc,#0xFF40
                           2675 ;	genAssign
                           2676 ;	AOP_STK for _l1_scene_3_setup_sloc0_1_0
   0AB1 23                 2677 	inc	hl
   0AB2 36 40              2678 	ld	(hl),#0x40
   0AB4 23                 2679 	inc	hl
   0AB5 36 FF              2680 	ld	(hl),#0xFF
                           2681 ;	genPointerGet
                           2682 ;	AOP_STK for _l1_scene_3_setup_sloc0_1_0
                           2683 ;	AOP_STK for _l1_scene_3_setup_sloc1_1_0
   0AB7 2B                 2684 	dec	hl
   0AB8 5E                 2685 	ld	e,(hl)
   0AB9 23                 2686 	inc	hl
   0ABA 56                 2687 	ld	d,(hl)
   0ABB 1A                 2688 	ld	a,(de)
   0ABC 2B                 2689 	dec	hl
   0ABD 2B                 2690 	dec	hl
                           2691 ;	genAnd
                           2692 ;	AOP_STK for _l1_scene_3_setup_sloc1_1_0
   0ABE 77                 2693 	ld      (hl),a
   0ABF 7F                 2694 	ld      a,a
   0AC0 E6 FD              2695 	and	a,#0xFD
                           2696 ;	genAssign (pointer)
   0AC2 02                 2697 	ld	(bc),a
                           2698 ;	level_1/level_1.c 353
                           2699 ;	genCall
                           2700 ; _saveRegsForCall: sendSetSize: 0 deInUse: 0 bcInUse: 0 deSending: 0
   0AC3 CD 00 00           2701 	call	_display_off
                           2702 ;	level_1/level_1.c 356
                           2703 ;	genIpush
                           2704 ; _saveRegsForCall: sendSetSize: 0 deInUse: 0 bcInUse: 0 deSending: 0
   0AC6 21 00 00           2705 	ld	hl,#_blank_screen_tiles
   0AC9 E5                 2706 	push	hl
                           2707 ;	genIpush
   0ACA 21 00 04           2708 	ld	hl,#0x0400
   0ACD E5                 2709 	push	hl
                           2710 ;	genCall
   0ACE CD 00 00           2711 	call	_set_bkg_data
   0AD1 E8 04              2712 	lda	sp,4(sp)
                           2713 ;	level_1/level_1.c 357
                           2714 ;	genIpush
                           2715 ; _saveRegsForCall: sendSetSize: 0 deInUse: 0 bcInUse: 0 deSending: 0
   0AD3 21 00 00           2716 	ld	hl,#_shit_pot
   0AD6 E5                 2717 	push	hl
                           2718 ;	genIpush
   0AD7 21 14 12           2719 	ld	hl,#0x1214
   0ADA E5                 2720 	push	hl
                           2721 ;	genIpush
   0ADB 21 00 00           2722 	ld	hl,#0x0000
   0ADE E5                 2723 	push	hl
                           2724 ;	genCall
   0ADF CD 00 00           2725 	call	_set_bkg_tiles
   0AE2 E8 06              2726 	lda	sp,6(sp)
                           2727 ;	level_1/level_1.c 360
                           2728 ;	genCall
                           2729 ; _saveRegsForCall: sendSetSize: 0 deInUse: 0 bcInUse: 0 deSending: 0
   0AE4 CD 00 00           2730 	call	_hide_sprites
                           2731 ;	level_1/level_1.c 363
                           2732 ;	genAssign
                           2733 ;	AOP_HL for _hero_posx
   0AE7 21 00 00           2734 	ld	hl,#_hero_posx
   0AEA 36 64              2735 	ld	(hl),#0x64
                           2736 ;	level_1/level_1.c 364
                           2737 ;	genAssign
                           2738 ;	AOP_HL for _hero_posy
   0AEC 21 00 00           2739 	ld	hl,#_hero_posy
   0AEF 36 64              2740 	ld	(hl),#0x64
                           2741 ;	level_1/level_1.c 367
                           2742 ;	genAssign
                           2743 ;	AOP_HL for _fisherman_posx
   0AF1 21 00 00           2744 	ld	hl,#_fisherman_posx
   0AF4 36 78              2745 	ld	(hl),#0x78
                           2746 ;	level_1/level_1.c 368
                           2747 ;	genAssign
                           2748 ;	AOP_HL for _fisherman_posy
   0AF6 21 00 00           2749 	ld	hl,#_fisherman_posy
   0AF9 36 64              2750 	ld	(hl),#0x64
                           2751 ;	level_1/level_1.c 371
                           2752 ;	genAssign
                           2753 ;	AOP_HL for _miner_posx
   0AFB 21 00 00           2754 	ld	hl,#_miner_posx
   0AFE 36 50              2755 	ld	(hl),#0x50
                           2756 ;	level_1/level_1.c 372
                           2757 ;	genAssign
                           2758 ;	AOP_HL for _miner_posy
   0B00 21 00 00           2759 	ld	hl,#_miner_posy
   0B03 36 64              2760 	ld	(hl),#0x64
                           2761 ;	level_1/level_1.c 375
                           2762 ;	genAssign
                           2763 ;	AOP_HL for _student_posx
   0B05 21 00 00           2764 	ld	hl,#_student_posx
   0B08 36 3C              2765 	ld	(hl),#0x3C
                           2766 ;	level_1/level_1.c 376
                           2767 ;	genAssign
                           2768 ;	AOP_HL for _student_posy
   0B0A 21 00 00           2769 	ld	hl,#_student_posy
   0B0D 36 64              2770 	ld	(hl),#0x64
                           2771 ;	level_1/level_1.c 379
                           2772 ;	genAssign
                           2773 ;	AOP_HL for _asakawa_posx
   0B0F 21 00 00           2774 	ld	hl,#_asakawa_posx
   0B12 36 4B              2775 	ld	(hl),#0x4B
                           2776 ;	level_1/level_1.c 380
                           2777 ;	genAssign
                           2778 ;	AOP_HL for _asakawa_posy
   0B14 21 00 00           2779 	ld	hl,#_asakawa_posy
   0B17 36 41              2780 	ld	(hl),#0x41
                           2781 ;	level_1/level_1.c 382
                           2782 ;	genAssign
   0B19 01 40 FF           2783 	ld	bc,#0xFF40
                           2784 ;	genAssign
                           2785 ;	AOP_STK for _l1_scene_3_setup_sloc0_1_0
   0B1C F8 01              2786 	lda	hl,1(sp)
   0B1E 36 40              2787 	ld	(hl),#0x40
   0B20 23                 2788 	inc	hl
   0B21 36 FF              2789 	ld	(hl),#0xFF
                           2790 ;	genPointerGet
                           2791 ;	AOP_STK for _l1_scene_3_setup_sloc0_1_0
                           2792 ;	AOP_STK for _l1_scene_3_setup_sloc1_1_0
   0B23 2B                 2793 	dec	hl
   0B24 5E                 2794 	ld	e,(hl)
   0B25 23                 2795 	inc	hl
   0B26 56                 2796 	ld	d,(hl)
   0B27 1A                 2797 	ld	a,(de)
   0B28 2B                 2798 	dec	hl
   0B29 2B                 2799 	dec	hl
                           2800 ;	genOr
                           2801 ;	AOP_STK for _l1_scene_3_setup_sloc1_1_0
   0B2A 77                 2802 	ld      (hl),a
   0B2B 7F                 2803 	ld      a,a
   0B2C F6 04              2804 	or	a,#0x04
                           2805 ;	genAssign (pointer)
   0B2E 02                 2806 	ld	(bc),a
                           2807 ;	level_1/level_1.c 384
                           2808 ;	genIpush
                           2809 ; _saveRegsForCall: sendSetSize: 0 deInUse: 0 bcInUse: 0 deSending: 0
   0B2F 21 00 00           2810 	ld	hl,#_hero_back_idle
   0B32 E5                 2811 	push	hl
                           2812 ;	genIpush
   0B33 21 00 08           2813 	ld	hl,#0x0800
   0B36 E5                 2814 	push	hl
                           2815 ;	genCall
   0B37 CD 00 00           2816 	call	_set_sprite_data
   0B3A E8 04              2817 	lda	sp,4(sp)
                           2818 ;	level_1/level_1.c 385
                           2819 ;	genIpush
                           2820 ; _saveRegsForCall: sendSetSize: 0 deInUse: 0 bcInUse: 0 deSending: 0
   0B3C 21 00 00           2821 	ld	hl,#0x0000
   0B3F E5                 2822 	push	hl
                           2823 ;	genCall
   0B40 CD 00 00           2824 	call	_set_sprite_tile
   0B43 E8 02              2825 	lda	sp,2(sp)
                           2826 ;	level_1/level_1.c 386
                           2827 ;	genIpush
                           2828 ; _saveRegsForCall: sendSetSize: 0 deInUse: 0 bcInUse: 0 deSending: 0
   0B45 21 01 02           2829 	ld	hl,#0x0201
   0B48 E5                 2830 	push	hl
                           2831 ;	genCall
   0B49 CD 00 00           2832 	call	_set_sprite_tile
   0B4C E8 02              2833 	lda	sp,2(sp)
                           2834 ;	level_1/level_1.c 388
                           2835 ;	genIpush
                           2836 ; _saveRegsForCall: sendSetSize: 0 deInUse: 0 bcInUse: 0 deSending: 0
   0B4E 21 00 00           2837 	ld	hl,#_fisherman_idle_back
   0B51 E5                 2838 	push	hl
                           2839 ;	genIpush
   0B52 21 08 08           2840 	ld	hl,#0x0808
   0B55 E5                 2841 	push	hl
                           2842 ;	genCall
   0B56 CD 00 00           2843 	call	_set_sprite_data
   0B59 E8 04              2844 	lda	sp,4(sp)
                           2845 ;	level_1/level_1.c 389
                           2846 ;	genIpush
                           2847 ; _saveRegsForCall: sendSetSize: 0 deInUse: 0 bcInUse: 0 deSending: 0
   0B5B 21 02 08           2848 	ld	hl,#0x0802
   0B5E E5                 2849 	push	hl
                           2850 ;	genCall
   0B5F CD 00 00           2851 	call	_set_sprite_tile
   0B62 E8 02              2852 	lda	sp,2(sp)
                           2853 ;	level_1/level_1.c 390
                           2854 ;	genIpush
                           2855 ; _saveRegsForCall: sendSetSize: 0 deInUse: 0 bcInUse: 0 deSending: 0
   0B64 21 03 0A           2856 	ld	hl,#0x0A03
   0B67 E5                 2857 	push	hl
                           2858 ;	genCall
   0B68 CD 00 00           2859 	call	_set_sprite_tile
   0B6B E8 02              2860 	lda	sp,2(sp)
                           2861 ;	level_1/level_1.c 392
                           2862 ;	genIpush
                           2863 ; _saveRegsForCall: sendSetSize: 0 deInUse: 0 bcInUse: 0 deSending: 0
   0B6D 21 00 00           2864 	ld	hl,#_miner_idle_back
   0B70 E5                 2865 	push	hl
                           2866 ;	genIpush
   0B71 21 10 08           2867 	ld	hl,#0x0810
   0B74 E5                 2868 	push	hl
                           2869 ;	genCall
   0B75 CD 00 00           2870 	call	_set_sprite_data
   0B78 E8 04              2871 	lda	sp,4(sp)
                           2872 ;	level_1/level_1.c 393
                           2873 ;	genIpush
                           2874 ; _saveRegsForCall: sendSetSize: 0 deInUse: 0 bcInUse: 0 deSending: 0
   0B7A 21 04 10           2875 	ld	hl,#0x1004
   0B7D E5                 2876 	push	hl
                           2877 ;	genCall
   0B7E CD 00 00           2878 	call	_set_sprite_tile
   0B81 E8 02              2879 	lda	sp,2(sp)
                           2880 ;	level_1/level_1.c 394
                           2881 ;	genIpush
                           2882 ; _saveRegsForCall: sendSetSize: 0 deInUse: 0 bcInUse: 0 deSending: 0
   0B83 21 05 12           2883 	ld	hl,#0x1205
   0B86 E5                 2884 	push	hl
                           2885 ;	genCall
   0B87 CD 00 00           2886 	call	_set_sprite_tile
   0B8A E8 02              2887 	lda	sp,2(sp)
                           2888 ;	level_1/level_1.c 396
                           2889 ;	genIpush
                           2890 ; _saveRegsForCall: sendSetSize: 0 deInUse: 0 bcInUse: 0 deSending: 0
   0B8C 21 00 00           2891 	ld	hl,#_student_idle_back
   0B8F E5                 2892 	push	hl
                           2893 ;	genIpush
   0B90 21 18 08           2894 	ld	hl,#0x0818
   0B93 E5                 2895 	push	hl
                           2896 ;	genCall
   0B94 CD 00 00           2897 	call	_set_sprite_data
   0B97 E8 04              2898 	lda	sp,4(sp)
                           2899 ;	level_1/level_1.c 397
                           2900 ;	genIpush
                           2901 ; _saveRegsForCall: sendSetSize: 0 deInUse: 0 bcInUse: 0 deSending: 0
   0B99 21 06 18           2902 	ld	hl,#0x1806
   0B9C E5                 2903 	push	hl
                           2904 ;	genCall
   0B9D CD 00 00           2905 	call	_set_sprite_tile
   0BA0 E8 02              2906 	lda	sp,2(sp)
                           2907 ;	level_1/level_1.c 398
                           2908 ;	genIpush
                           2909 ; _saveRegsForCall: sendSetSize: 0 deInUse: 0 bcInUse: 0 deSending: 0
   0BA2 21 07 1A           2910 	ld	hl,#0x1A07
   0BA5 E5                 2911 	push	hl
                           2912 ;	genCall
   0BA6 CD 00 00           2913 	call	_set_sprite_tile
   0BA9 E8 02              2914 	lda	sp,2(sp)
                           2915 ;	level_1/level_1.c 400
                           2916 ;	genIpush
                           2917 ; _saveRegsForCall: sendSetSize: 0 deInUse: 0 bcInUse: 0 deSending: 0
   0BAB 21 00 00           2918 	ld	hl,#_asakawa_front_idle
   0BAE E5                 2919 	push	hl
                           2920 ;	genIpush
   0BAF 21 20 08           2921 	ld	hl,#0x0820
   0BB2 E5                 2922 	push	hl
                           2923 ;	genCall
   0BB3 CD 00 00           2924 	call	_set_sprite_data
   0BB6 E8 04              2925 	lda	sp,4(sp)
                           2926 ;	level_1/level_1.c 401
                           2927 ;	genIpush
                           2928 ; _saveRegsForCall: sendSetSize: 0 deInUse: 0 bcInUse: 0 deSending: 0
   0BB8 21 08 20           2929 	ld	hl,#0x2008
   0BBB E5                 2930 	push	hl
                           2931 ;	genCall
   0BBC CD 00 00           2932 	call	_set_sprite_tile
   0BBF E8 02              2933 	lda	sp,2(sp)
                           2934 ;	level_1/level_1.c 402
                           2935 ;	genIpush
                           2936 ; _saveRegsForCall: sendSetSize: 0 deInUse: 0 bcInUse: 0 deSending: 0
   0BC1 21 09 22           2937 	ld	hl,#0x2209
   0BC4 E5                 2938 	push	hl
                           2939 ;	genCall
   0BC5 CD 00 00           2940 	call	_set_sprite_tile
   0BC8 E8 02              2941 	lda	sp,2(sp)
                           2942 ;	level_1/level_1.c 405
                           2943 ;	genIpush
                           2944 ; _saveRegsForCall: sendSetSize: 0 deInUse: 0 bcInUse: 0 deSending: 0
                           2945 ;	AOP_HL for _hero_posy
   0BCA 21 00 00           2946 	ld	hl,#_hero_posy
   0BCD 7E                 2947 	ld	a,(hl)
   0BCE F5                 2948 	push	af
   0BCF 33                 2949 	inc	sp
                           2950 ;	genIpush
                           2951 ;	AOP_HL for _hero_posx
   0BD0 21 00 00           2952 	ld	hl,#_hero_posx
   0BD3 7E                 2953 	ld	a,(hl)
   0BD4 F5                 2954 	push	af
   0BD5 33                 2955 	inc	sp
                           2956 ;	genIpush
   0BD6 3E 00              2957 	ld	a,#0x00
   0BD8 F5                 2958 	push	af
   0BD9 33                 2959 	inc	sp
                           2960 ;	genCall
   0BDA CD 00 00           2961 	call	_move_sprite
   0BDD E8 03              2962 	lda	sp,3(sp)
                           2963 ;	level_1/level_1.c 406
                           2964 ;	genPlus
                           2965 ;	AOP_HL for _hero_posx
                           2966 ;	AOP_HL for _sprite_width
                           2967 ;	Can't optimise plus by inc, falling back to the normal way
   0BDF 21 00 00           2968 	ld	hl,#_hero_posx
   0BE2 7E                 2969 	ld	a,(hl)
   0BE3 21 00 00           2970 	ld	hl,#_sprite_width
   0BE6 86                 2971 	add	a,(hl)
   0BE7 4F                 2972 	ld	c,a
                           2973 ;	genIpush
                           2974 ; _saveRegsForCall: sendSetSize: 0 deInUse: 0 bcInUse: 0 deSending: 0
                           2975 ;	AOP_HL for _hero_posy
   0BE8 21 00 00           2976 	ld	hl,#_hero_posy
   0BEB 7E                 2977 	ld	a,(hl)
   0BEC F5                 2978 	push	af
   0BED 33                 2979 	inc	sp
                           2980 ;	genIpush
   0BEE 79                 2981 	ld	a,c
   0BEF F5                 2982 	push	af
   0BF0 33                 2983 	inc	sp
                           2984 ;	genIpush
   0BF1 3E 01              2985 	ld	a,#0x01
   0BF3 F5                 2986 	push	af
   0BF4 33                 2987 	inc	sp
                           2988 ;	genCall
   0BF5 CD 00 00           2989 	call	_move_sprite
   0BF8 E8 03              2990 	lda	sp,3(sp)
                           2991 ;	level_1/level_1.c 408
                           2992 ;	genIpush
                           2993 ; _saveRegsForCall: sendSetSize: 0 deInUse: 0 bcInUse: 0 deSending: 0
                           2994 ;	AOP_HL for _fisherman_posy
   0BFA 21 00 00           2995 	ld	hl,#_fisherman_posy
   0BFD 7E                 2996 	ld	a,(hl)
   0BFE F5                 2997 	push	af
   0BFF 33                 2998 	inc	sp
                           2999 ;	genIpush
                           3000 ;	AOP_HL for _fisherman_posx
   0C00 21 00 00           3001 	ld	hl,#_fisherman_posx
   0C03 7E                 3002 	ld	a,(hl)
   0C04 F5                 3003 	push	af
   0C05 33                 3004 	inc	sp
                           3005 ;	genIpush
   0C06 3E 02              3006 	ld	a,#0x02
   0C08 F5                 3007 	push	af
   0C09 33                 3008 	inc	sp
                           3009 ;	genCall
   0C0A CD 00 00           3010 	call	_move_sprite
   0C0D E8 03              3011 	lda	sp,3(sp)
                           3012 ;	level_1/level_1.c 409
                           3013 ;	genPlus
                           3014 ;	AOP_HL for _fisherman_posx
                           3015 ;	AOP_HL for _sprite_width
                           3016 ;	Can't optimise plus by inc, falling back to the normal way
   0C0F 21 00 00           3017 	ld	hl,#_fisherman_posx
   0C12 7E                 3018 	ld	a,(hl)
   0C13 21 00 00           3019 	ld	hl,#_sprite_width
   0C16 86                 3020 	add	a,(hl)
   0C17 4F                 3021 	ld	c,a
                           3022 ;	genIpush
                           3023 ; _saveRegsForCall: sendSetSize: 0 deInUse: 0 bcInUse: 0 deSending: 0
                           3024 ;	AOP_HL for _fisherman_posy
   0C18 21 00 00           3025 	ld	hl,#_fisherman_posy
   0C1B 7E                 3026 	ld	a,(hl)
   0C1C F5                 3027 	push	af
   0C1D 33                 3028 	inc	sp
                           3029 ;	genIpush
   0C1E 79                 3030 	ld	a,c
   0C1F F5                 3031 	push	af
   0C20 33                 3032 	inc	sp
                           3033 ;	genIpush
   0C21 3E 03              3034 	ld	a,#0x03
   0C23 F5                 3035 	push	af
   0C24 33                 3036 	inc	sp
                           3037 ;	genCall
   0C25 CD 00 00           3038 	call	_move_sprite
   0C28 E8 03              3039 	lda	sp,3(sp)
                           3040 ;	level_1/level_1.c 411
                           3041 ;	genIpush
                           3042 ; _saveRegsForCall: sendSetSize: 0 deInUse: 0 bcInUse: 0 deSending: 0
                           3043 ;	AOP_HL for _miner_posy
   0C2A 21 00 00           3044 	ld	hl,#_miner_posy
   0C2D 7E                 3045 	ld	a,(hl)
   0C2E F5                 3046 	push	af
   0C2F 33                 3047 	inc	sp
                           3048 ;	genIpush
                           3049 ;	AOP_HL for _miner_posx
   0C30 21 00 00           3050 	ld	hl,#_miner_posx
   0C33 7E                 3051 	ld	a,(hl)
   0C34 F5                 3052 	push	af
   0C35 33                 3053 	inc	sp
                           3054 ;	genIpush
   0C36 3E 04              3055 	ld	a,#0x04
   0C38 F5                 3056 	push	af
   0C39 33                 3057 	inc	sp
                           3058 ;	genCall
   0C3A CD 00 00           3059 	call	_move_sprite
   0C3D E8 03              3060 	lda	sp,3(sp)
                           3061 ;	level_1/level_1.c 412
                           3062 ;	genPlus
                           3063 ;	AOP_HL for _miner_posx
                           3064 ;	AOP_HL for _sprite_width
                           3065 ;	Can't optimise plus by inc, falling back to the normal way
   0C3F 21 00 00           3066 	ld	hl,#_miner_posx
   0C42 7E                 3067 	ld	a,(hl)
   0C43 21 00 00           3068 	ld	hl,#_sprite_width
   0C46 86                 3069 	add	a,(hl)
   0C47 4F                 3070 	ld	c,a
                           3071 ;	genIpush
                           3072 ; _saveRegsForCall: sendSetSize: 0 deInUse: 0 bcInUse: 0 deSending: 0
                           3073 ;	AOP_HL for _miner_posy
   0C48 21 00 00           3074 	ld	hl,#_miner_posy
   0C4B 7E                 3075 	ld	a,(hl)
   0C4C F5                 3076 	push	af
   0C4D 33                 3077 	inc	sp
                           3078 ;	genIpush
   0C4E 79                 3079 	ld	a,c
   0C4F F5                 3080 	push	af
   0C50 33                 3081 	inc	sp
                           3082 ;	genIpush
   0C51 3E 05              3083 	ld	a,#0x05
   0C53 F5                 3084 	push	af
   0C54 33                 3085 	inc	sp
                           3086 ;	genCall
   0C55 CD 00 00           3087 	call	_move_sprite
   0C58 E8 03              3088 	lda	sp,3(sp)
                           3089 ;	level_1/level_1.c 414
                           3090 ;	genIpush
                           3091 ; _saveRegsForCall: sendSetSize: 0 deInUse: 0 bcInUse: 0 deSending: 0
                           3092 ;	AOP_HL for _student_posy
   0C5A 21 00 00           3093 	ld	hl,#_student_posy
   0C5D 7E                 3094 	ld	a,(hl)
   0C5E F5                 3095 	push	af
   0C5F 33                 3096 	inc	sp
                           3097 ;	genIpush
                           3098 ;	AOP_HL for _student_posx
   0C60 21 00 00           3099 	ld	hl,#_student_posx
   0C63 7E                 3100 	ld	a,(hl)
   0C64 F5                 3101 	push	af
   0C65 33                 3102 	inc	sp
                           3103 ;	genIpush
   0C66 3E 06              3104 	ld	a,#0x06
   0C68 F5                 3105 	push	af
   0C69 33                 3106 	inc	sp
                           3107 ;	genCall
   0C6A CD 00 00           3108 	call	_move_sprite
   0C6D E8 03              3109 	lda	sp,3(sp)
                           3110 ;	level_1/level_1.c 415
                           3111 ;	genPlus
                           3112 ;	AOP_HL for _student_posx
                           3113 ;	AOP_HL for _sprite_width
                           3114 ;	Can't optimise plus by inc, falling back to the normal way
   0C6F 21 00 00           3115 	ld	hl,#_student_posx
   0C72 7E                 3116 	ld	a,(hl)
   0C73 21 00 00           3117 	ld	hl,#_sprite_width
   0C76 86                 3118 	add	a,(hl)
   0C77 4F                 3119 	ld	c,a
                           3120 ;	genIpush
                           3121 ; _saveRegsForCall: sendSetSize: 0 deInUse: 0 bcInUse: 0 deSending: 0
                           3122 ;	AOP_HL for _student_posy
   0C78 21 00 00           3123 	ld	hl,#_student_posy
   0C7B 7E                 3124 	ld	a,(hl)
   0C7C F5                 3125 	push	af
   0C7D 33                 3126 	inc	sp
                           3127 ;	genIpush
   0C7E 79                 3128 	ld	a,c
   0C7F F5                 3129 	push	af
   0C80 33                 3130 	inc	sp
                           3131 ;	genIpush
   0C81 3E 07              3132 	ld	a,#0x07
   0C83 F5                 3133 	push	af
   0C84 33                 3134 	inc	sp
                           3135 ;	genCall
   0C85 CD 00 00           3136 	call	_move_sprite
   0C88 E8 03              3137 	lda	sp,3(sp)
                           3138 ;	level_1/level_1.c 417
                           3139 ;	genIpush
                           3140 ; _saveRegsForCall: sendSetSize: 0 deInUse: 0 bcInUse: 0 deSending: 0
   0C8A 21 90 01           3141 	ld	hl,#0x0190
   0C8D E5                 3142 	push	hl
                           3143 ;	genCall
   0C8E CD 00 00           3144 	call	_delay
   0C91 E8 02              3145 	lda	sp,2(sp)
                           3146 ;	level_1/level_1.c 418
                           3147 ;	genAssign
   0C93 01 40 FF           3148 	ld	bc,#0xFF40
                           3149 ;	genAssign
                           3150 ;	AOP_STK for _l1_scene_3_setup_sloc0_1_0
   0C96 F8 01              3151 	lda	hl,1(sp)
   0C98 36 40              3152 	ld	(hl),#0x40
   0C9A 23                 3153 	inc	hl
   0C9B 36 FF              3154 	ld	(hl),#0xFF
                           3155 ;	genPointerGet
                           3156 ;	AOP_STK for _l1_scene_3_setup_sloc0_1_0
                           3157 ;	AOP_STK for _l1_scene_3_setup_sloc1_1_0
   0C9D 2B                 3158 	dec	hl
   0C9E 5E                 3159 	ld	e,(hl)
   0C9F 23                 3160 	inc	hl
   0CA0 56                 3161 	ld	d,(hl)
   0CA1 1A                 3162 	ld	a,(de)
   0CA2 2B                 3163 	dec	hl
   0CA3 2B                 3164 	dec	hl
                           3165 ;	genOr
                           3166 ;	AOP_STK for _l1_scene_3_setup_sloc1_1_0
   0CA4 77                 3167 	ld      (hl),a
   0CA5 7F                 3168 	ld      a,a
   0CA6 F6 02              3169 	or	a,#0x02
                           3170 ;	genAssign (pointer)
   0CA8 02                 3171 	ld	(bc),a
                           3172 ;	level_1/level_1.c 419
                           3173 ;	genAssign
   0CA9 01 40 FF           3174 	ld	bc,#0xFF40
                           3175 ;	genAssign
                           3176 ;	AOP_STK for _l1_scene_3_setup_sloc0_1_0
   0CAC 23                 3177 	inc	hl
   0CAD 36 40              3178 	ld	(hl),#0x40
   0CAF 23                 3179 	inc	hl
   0CB0 36 FF              3180 	ld	(hl),#0xFF
                           3181 ;	genPointerGet
                           3182 ;	AOP_STK for _l1_scene_3_setup_sloc0_1_0
                           3183 ;	AOP_STK for _l1_scene_3_setup_sloc1_1_0
   0CB2 2B                 3184 	dec	hl
   0CB3 5E                 3185 	ld	e,(hl)
   0CB4 23                 3186 	inc	hl
   0CB5 56                 3187 	ld	d,(hl)
   0CB6 1A                 3188 	ld	a,(de)
   0CB7 2B                 3189 	dec	hl
   0CB8 2B                 3190 	dec	hl
                           3191 ;	genOr
                           3192 ;	AOP_STK for _l1_scene_3_setup_sloc1_1_0
   0CB9 77                 3193 	ld      (hl),a
   0CBA 7F                 3194 	ld      a,a
   0CBB F6 01              3195 	or	a,#0x01
                           3196 ;	genAssign (pointer)
   0CBD 02                 3197 	ld	(bc),a
                           3198 ;	level_1/level_1.c 420
                           3199 ;	genAssign
   0CBE 01 40 FF           3200 	ld	bc,#0xFF40
                           3201 ;	genAssign
                           3202 ;	AOP_STK for _l1_scene_3_setup_sloc0_1_0
   0CC1 23                 3203 	inc	hl
   0CC2 36 40              3204 	ld	(hl),#0x40
   0CC4 23                 3205 	inc	hl
   0CC5 36 FF              3206 	ld	(hl),#0xFF
                           3207 ;	genPointerGet
                           3208 ;	AOP_STK for _l1_scene_3_setup_sloc0_1_0
                           3209 ;	AOP_STK for _l1_scene_3_setup_sloc1_1_0
   0CC7 2B                 3210 	dec	hl
   0CC8 5E                 3211 	ld	e,(hl)
   0CC9 23                 3212 	inc	hl
   0CCA 56                 3213 	ld	d,(hl)
   0CCB 1A                 3214 	ld	a,(de)
   0CCC 2B                 3215 	dec	hl
   0CCD 2B                 3216 	dec	hl
                           3217 ;	genOr
                           3218 ;	AOP_STK for _l1_scene_3_setup_sloc1_1_0
   0CCE 77                 3219 	ld      (hl),a
   0CCF 7F                 3220 	ld      a,a
   0CD0 F6 80              3221 	or	a,#0x80
                           3222 ;	genAssign (pointer)
   0CD2 02                 3223 	ld	(bc),a
                           3224 ;	level_1/level_1.c 423
                           3225 ;	genIpush
                           3226 ; _saveRegsForCall: sendSetSize: 0 deInUse: 0 bcInUse: 0 deSending: 0
   0CD3 21 90 01           3227 	ld	hl,#0x0190
   0CD6 E5                 3228 	push	hl
                           3229 ;	genCall
   0CD7 CD 00 00           3230 	call	_delay
   0CDA E8 02              3231 	lda	sp,2(sp)
                           3232 ;	level_1/level_1.c 424
                           3233 ;	genIpush
                           3234 ; _saveRegsForCall: sendSetSize: 0 deInUse: 0 bcInUse: 0 deSending: 0
                           3235 ;	AOP_HL for _asakawa_posy
   0CDC 21 00 00           3236 	ld	hl,#_asakawa_posy
   0CDF 7E                 3237 	ld	a,(hl)
   0CE0 F5                 3238 	push	af
   0CE1 33                 3239 	inc	sp
                           3240 ;	genIpush
                           3241 ;	AOP_HL for _asakawa_posx
   0CE2 21 00 00           3242 	ld	hl,#_asakawa_posx
   0CE5 7E                 3243 	ld	a,(hl)
   0CE6 F5                 3244 	push	af
   0CE7 33                 3245 	inc	sp
                           3246 ;	genIpush
   0CE8 3E 08              3247 	ld	a,#0x08
   0CEA F5                 3248 	push	af
   0CEB 33                 3249 	inc	sp
                           3250 ;	genCall
   0CEC CD 00 00           3251 	call	_move_sprite
   0CEF E8 03              3252 	lda	sp,3(sp)
                           3253 ;	level_1/level_1.c 425
                           3254 ;	genPlus
                           3255 ;	AOP_HL for _asakawa_posx
                           3256 ;	AOP_HL for _sprite_width
                           3257 ;	Can't optimise plus by inc, falling back to the normal way
   0CF1 21 00 00           3258 	ld	hl,#_asakawa_posx
   0CF4 7E                 3259 	ld	a,(hl)
   0CF5 21 00 00           3260 	ld	hl,#_sprite_width
   0CF8 86                 3261 	add	a,(hl)
   0CF9 4F                 3262 	ld	c,a
                           3263 ;	genIpush
                           3264 ; _saveRegsForCall: sendSetSize: 0 deInUse: 0 bcInUse: 0 deSending: 0
                           3265 ;	AOP_HL for _asakawa_posy
   0CFA 21 00 00           3266 	ld	hl,#_asakawa_posy
   0CFD 7E                 3267 	ld	a,(hl)
   0CFE F5                 3268 	push	af
   0CFF 33                 3269 	inc	sp
                           3270 ;	genIpush
   0D00 79                 3271 	ld	a,c
   0D01 F5                 3272 	push	af
   0D02 33                 3273 	inc	sp
                           3274 ;	genIpush
   0D03 3E 09              3275 	ld	a,#0x09
   0D05 F5                 3276 	push	af
   0D06 33                 3277 	inc	sp
                           3278 ;	genCall
   0D07 CD 00 00           3279 	call	_move_sprite
   0D0A E8 03              3280 	lda	sp,3(sp)
                           3281 ;	genLabel
   0D0C                    3282 00101$:
                           3283 ;	genEndFunction
   0D0C E8 03              3284 	lda	sp,3(sp)
   0D0E C9                 3285 	ret
   0D0F                    3286 ___l1_scene_3_setup_end:
                           3287 ;	level_1/level_1.c 429
                           3288 ;	genLabel
                           3289 ;	genFunction
                           3290 ;	---------------------------------
                           3291 ; Function l1_scene_3_animate
                           3292 ; ---------------------------------
   0D0F                    3293 ___l1_scene_3_animate_start:
   0D0F                    3294 _l1_scene_3_animate:
   0D0F E8 FC              3295 	lda	sp,-4(sp)
                           3296 ;	level_1/level_1.c 431
                           3297 ;	genPlus
                           3298 ;	AOP_HL for _l1_scene_3_anim
                           3299 ;	genPlusIncr
   0D11 21 00 00           3300 	ld	hl,#_l1_scene_3_anim
   0D14 34                 3301 	inc	(hl)
                           3302 ;	level_1/level_1.c 433
                           3303 ;	genIpush
                           3304 ; _saveRegsForCall: sendSetSize: 0 deInUse: 0 bcInUse: 0 deSending: 0
   0D15 21 00 00           3305 	ld	hl,#0x0000
   0D18 E5                 3306 	push	hl
                           3307 ;	genCall
   0D19 CD 00 00           3308 	call	_set_sprite_tile
   0D1C E8 02              3309 	lda	sp,2(sp)
                           3310 ;	level_1/level_1.c 434
                           3311 ;	genIpush
                           3312 ; _saveRegsForCall: sendSetSize: 0 deInUse: 0 bcInUse: 0 deSending: 0
   0D1E 21 01 02           3313 	ld	hl,#0x0201
   0D21 E5                 3314 	push	hl
                           3315 ;	genCall
   0D22 CD 00 00           3316 	call	_set_sprite_tile
   0D25 E8 02              3317 	lda	sp,2(sp)
                           3318 ;	level_1/level_1.c 435
                           3319 ;	genIpush
                           3320 ; _saveRegsForCall: sendSetSize: 0 deInUse: 0 bcInUse: 0 deSending: 0
                           3321 ;	AOP_HL for _hero_posy
   0D27 21 00 00           3322 	ld	hl,#_hero_posy
   0D2A 7E                 3323 	ld	a,(hl)
   0D2B F5                 3324 	push	af
   0D2C 33                 3325 	inc	sp
                           3326 ;	genIpush
                           3327 ;	AOP_HL for _hero_posx
   0D2D 21 00 00           3328 	ld	hl,#_hero_posx
   0D30 7E                 3329 	ld	a,(hl)
   0D31 F5                 3330 	push	af
   0D32 33                 3331 	inc	sp
                           3332 ;	genIpush
   0D33 3E 00              3333 	ld	a,#0x00
   0D35 F5                 3334 	push	af
   0D36 33                 3335 	inc	sp
                           3336 ;	genCall
   0D37 CD 00 00           3337 	call	_move_sprite
   0D3A E8 03              3338 	lda	sp,3(sp)
                           3339 ;	level_1/level_1.c 436
                           3340 ;	genPlus
                           3341 ;	AOP_HL for _hero_posx
                           3342 ;	AOP_HL for _sprite_width
                           3343 ;	Can't optimise plus by inc, falling back to the normal way
   0D3C 21 00 00           3344 	ld	hl,#_hero_posx
   0D3F 7E                 3345 	ld	a,(hl)
   0D40 21 00 00           3346 	ld	hl,#_sprite_width
   0D43 86                 3347 	add	a,(hl)
   0D44 4F                 3348 	ld	c,a
                           3349 ;	genIpush
                           3350 ; _saveRegsForCall: sendSetSize: 0 deInUse: 0 bcInUse: 1 deSending: 0
   0D45 C5                 3351 	push	bc
                           3352 ;	AOP_HL for _hero_posy
   0D46 21 00 00           3353 	ld	hl,#_hero_posy
   0D49 7E                 3354 	ld	a,(hl)
   0D4A F5                 3355 	push	af
   0D4B 33                 3356 	inc	sp
                           3357 ;	genIpush
   0D4C 79                 3358 	ld	a,c
   0D4D F5                 3359 	push	af
   0D4E 33                 3360 	inc	sp
                           3361 ;	genIpush
   0D4F 3E 01              3362 	ld	a,#0x01
   0D51 F5                 3363 	push	af
   0D52 33                 3364 	inc	sp
                           3365 ;	genCall
   0D53 CD 00 00           3366 	call	_move_sprite
   0D56 E8 03              3367 	lda	sp,3(sp)
   0D58 E1                 3368 	pop	hl
   0D59 4D                 3369 	ld	c,l
                           3370 ;	level_1/level_1.c 438
                           3371 ;	genIpush
                           3372 ; _saveRegsForCall: sendSetSize: 0 deInUse: 0 bcInUse: 1 deSending: 0
   0D5A C5                 3373 	push	bc
   0D5B 21 02 08           3374 	ld	hl,#0x0802
   0D5E E5                 3375 	push	hl
                           3376 ;	genCall
   0D5F CD 00 00           3377 	call	_set_sprite_tile
   0D62 E8 02              3378 	lda	sp,2(sp)
   0D64 E1                 3379 	pop	hl
   0D65 4D                 3380 	ld	c,l
                           3381 ;	level_1/level_1.c 439
                           3382 ;	genIpush
                           3383 ; _saveRegsForCall: sendSetSize: 0 deInUse: 0 bcInUse: 1 deSending: 0
   0D66 C5                 3384 	push	bc
   0D67 21 03 0A           3385 	ld	hl,#0x0A03
   0D6A E5                 3386 	push	hl
                           3387 ;	genCall
   0D6B CD 00 00           3388 	call	_set_sprite_tile
   0D6E E8 02              3389 	lda	sp,2(sp)
   0D70 E1                 3390 	pop	hl
   0D71 4D                 3391 	ld	c,l
                           3392 ;	level_1/level_1.c 440
                           3393 ;	genIpush
                           3394 ; _saveRegsForCall: sendSetSize: 0 deInUse: 0 bcInUse: 1 deSending: 0
   0D72 C5                 3395 	push	bc
                           3396 ;	AOP_HL for _hero_posy
   0D73 21 00 00           3397 	ld	hl,#_hero_posy
   0D76 7E                 3398 	ld	a,(hl)
   0D77 F5                 3399 	push	af
   0D78 33                 3400 	inc	sp
                           3401 ;	genIpush
                           3402 ;	AOP_HL for _hero_posx
   0D79 21 00 00           3403 	ld	hl,#_hero_posx
   0D7C 7E                 3404 	ld	a,(hl)
   0D7D F5                 3405 	push	af
   0D7E 33                 3406 	inc	sp
                           3407 ;	genIpush
   0D7F 3E 00              3408 	ld	a,#0x00
   0D81 F5                 3409 	push	af
   0D82 33                 3410 	inc	sp
                           3411 ;	genCall
   0D83 CD 00 00           3412 	call	_move_sprite
   0D86 E8 03              3413 	lda	sp,3(sp)
   0D88 E1                 3414 	pop	hl
   0D89 4D                 3415 	ld	c,l
                           3416 ;	level_1/level_1.c 441
                           3417 ;	genIpush
                           3418 ; _saveRegsForCall: sendSetSize: 0 deInUse: 0 bcInUse: 1 deSending: 0
   0D8A C5                 3419 	push	bc
                           3420 ;	AOP_HL for _hero_posy
   0D8B 21 00 00           3421 	ld	hl,#_hero_posy
   0D8E 7E                 3422 	ld	a,(hl)
   0D8F F5                 3423 	push	af
   0D90 33                 3424 	inc	sp
                           3425 ;	genIpush
   0D91 79                 3426 	ld	a,c
   0D92 F5                 3427 	push	af
   0D93 33                 3428 	inc	sp
                           3429 ;	genIpush
   0D94 3E 01              3430 	ld	a,#0x01
   0D96 F5                 3431 	push	af
   0D97 33                 3432 	inc	sp
                           3433 ;	genCall
   0D98 CD 00 00           3434 	call	_move_sprite
   0D9B E8 03              3435 	lda	sp,3(sp)
   0D9D E1                 3436 	pop	hl
   0D9E 4D                 3437 	ld	c,l
                           3438 ;	level_1/level_1.c 443
                           3439 ;	genIpush
                           3440 ; _saveRegsForCall: sendSetSize: 0 deInUse: 0 bcInUse: 1 deSending: 0
   0D9F C5                 3441 	push	bc
   0DA0 21 04 10           3442 	ld	hl,#0x1004
   0DA3 E5                 3443 	push	hl
                           3444 ;	genCall
   0DA4 CD 00 00           3445 	call	_set_sprite_tile
   0DA7 E8 02              3446 	lda	sp,2(sp)
   0DA9 E1                 3447 	pop	hl
   0DAA 4D                 3448 	ld	c,l
                           3449 ;	level_1/level_1.c 444
                           3450 ;	genIpush
                           3451 ; _saveRegsForCall: sendSetSize: 0 deInUse: 0 bcInUse: 1 deSending: 0
   0DAB C5                 3452 	push	bc
   0DAC 21 05 12           3453 	ld	hl,#0x1205
   0DAF E5                 3454 	push	hl
                           3455 ;	genCall
   0DB0 CD 00 00           3456 	call	_set_sprite_tile
   0DB3 E8 02              3457 	lda	sp,2(sp)
   0DB5 E1                 3458 	pop	hl
   0DB6 4D                 3459 	ld	c,l
                           3460 ;	level_1/level_1.c 445
                           3461 ;	genIpush
                           3462 ; _saveRegsForCall: sendSetSize: 0 deInUse: 0 bcInUse: 1 deSending: 0
   0DB7 C5                 3463 	push	bc
                           3464 ;	AOP_HL for _hero_posy
   0DB8 21 00 00           3465 	ld	hl,#_hero_posy
   0DBB 7E                 3466 	ld	a,(hl)
   0DBC F5                 3467 	push	af
   0DBD 33                 3468 	inc	sp
                           3469 ;	genIpush
                           3470 ;	AOP_HL for _hero_posx
   0DBE 21 00 00           3471 	ld	hl,#_hero_posx
   0DC1 7E                 3472 	ld	a,(hl)
   0DC2 F5                 3473 	push	af
   0DC3 33                 3474 	inc	sp
                           3475 ;	genIpush
   0DC4 3E 00              3476 	ld	a,#0x00
   0DC6 F5                 3477 	push	af
   0DC7 33                 3478 	inc	sp
                           3479 ;	genCall
   0DC8 CD 00 00           3480 	call	_move_sprite
   0DCB E8 03              3481 	lda	sp,3(sp)
   0DCD E1                 3482 	pop	hl
   0DCE 4D                 3483 	ld	c,l
                           3484 ;	level_1/level_1.c 446
                           3485 ;	genIpush
                           3486 ; _saveRegsForCall: sendSetSize: 0 deInUse: 0 bcInUse: 1 deSending: 0
   0DCF C5                 3487 	push	bc
                           3488 ;	AOP_HL for _hero_posy
   0DD0 21 00 00           3489 	ld	hl,#_hero_posy
   0DD3 7E                 3490 	ld	a,(hl)
   0DD4 F5                 3491 	push	af
   0DD5 33                 3492 	inc	sp
                           3493 ;	genIpush
   0DD6 79                 3494 	ld	a,c
   0DD7 F5                 3495 	push	af
   0DD8 33                 3496 	inc	sp
                           3497 ;	genIpush
   0DD9 3E 01              3498 	ld	a,#0x01
   0DDB F5                 3499 	push	af
   0DDC 33                 3500 	inc	sp
                           3501 ;	genCall
   0DDD CD 00 00           3502 	call	_move_sprite
   0DE0 E8 03              3503 	lda	sp,3(sp)
   0DE2 E1                 3504 	pop	hl
   0DE3 4D                 3505 	ld	c,l
                           3506 ;	level_1/level_1.c 448
                           3507 ;	genIpush
                           3508 ; _saveRegsForCall: sendSetSize: 0 deInUse: 0 bcInUse: 1 deSending: 0
   0DE4 C5                 3509 	push	bc
   0DE5 21 06 18           3510 	ld	hl,#0x1806
   0DE8 E5                 3511 	push	hl
                           3512 ;	genCall
   0DE9 CD 00 00           3513 	call	_set_sprite_tile
   0DEC E8 02              3514 	lda	sp,2(sp)
   0DEE E1                 3515 	pop	hl
   0DEF 4D                 3516 	ld	c,l
                           3517 ;	level_1/level_1.c 449
                           3518 ;	genIpush
                           3519 ; _saveRegsForCall: sendSetSize: 0 deInUse: 0 bcInUse: 1 deSending: 0
   0DF0 C5                 3520 	push	bc
   0DF1 21 07 1A           3521 	ld	hl,#0x1A07
   0DF4 E5                 3522 	push	hl
                           3523 ;	genCall
   0DF5 CD 00 00           3524 	call	_set_sprite_tile
   0DF8 E8 02              3525 	lda	sp,2(sp)
   0DFA E1                 3526 	pop	hl
   0DFB 4D                 3527 	ld	c,l
                           3528 ;	level_1/level_1.c 450
                           3529 ;	genIpush
                           3530 ; _saveRegsForCall: sendSetSize: 0 deInUse: 0 bcInUse: 1 deSending: 0
   0DFC C5                 3531 	push	bc
                           3532 ;	AOP_HL for _hero_posy
   0DFD 21 00 00           3533 	ld	hl,#_hero_posy
   0E00 7E                 3534 	ld	a,(hl)
   0E01 F5                 3535 	push	af
   0E02 33                 3536 	inc	sp
                           3537 ;	genIpush
                           3538 ;	AOP_HL for _hero_posx
   0E03 21 00 00           3539 	ld	hl,#_hero_posx
   0E06 7E                 3540 	ld	a,(hl)
   0E07 F5                 3541 	push	af
   0E08 33                 3542 	inc	sp
                           3543 ;	genIpush
   0E09 3E 00              3544 	ld	a,#0x00
   0E0B F5                 3545 	push	af
   0E0C 33                 3546 	inc	sp
                           3547 ;	genCall
   0E0D CD 00 00           3548 	call	_move_sprite
   0E10 E8 03              3549 	lda	sp,3(sp)
   0E12 E1                 3550 	pop	hl
   0E13 4D                 3551 	ld	c,l
                           3552 ;	level_1/level_1.c 451
                           3553 ;	genIpush
                           3554 ; _saveRegsForCall: sendSetSize: 0 deInUse: 0 bcInUse: 1 deSending: 0
   0E14 C5                 3555 	push	bc
                           3556 ;	AOP_HL for _hero_posy
   0E15 21 00 00           3557 	ld	hl,#_hero_posy
   0E18 7E                 3558 	ld	a,(hl)
   0E19 F5                 3559 	push	af
   0E1A 33                 3560 	inc	sp
                           3561 ;	genIpush
   0E1B 79                 3562 	ld	a,c
   0E1C F5                 3563 	push	af
   0E1D 33                 3564 	inc	sp
                           3565 ;	genIpush
   0E1E 3E 01              3566 	ld	a,#0x01
   0E20 F5                 3567 	push	af
   0E21 33                 3568 	inc	sp
                           3569 ;	genCall
   0E22 CD 00 00           3570 	call	_move_sprite
   0E25 E8 03              3571 	lda	sp,3(sp)
   0E27 E1                 3572 	pop	hl
   0E28 4D                 3573 	ld	c,l
                           3574 ;	level_1/level_1.c 453
                           3575 ;	genAnd
                           3576 ;	AOP_HL for _l1_scene_3_anim
   0E29 21 00 00           3577 	ld	hl,#_l1_scene_3_anim
   0E2C 7E                 3578 	ld	a,(hl)
   0E2D E6 01              3579 	and	a,#0x01
   0E2F 47                 3580 	ld	b,a
                           3581 ;	genCast
                           3582 ;	AOP_STK for _l1_scene_3_animate_sloc0_1_0
   0E30 F8 02              3583 	lda	hl,2(sp)
   0E32 70                 3584 	ld	(hl),b
   0E33 23                 3585 	inc	hl
   0E34 36 00              3586 	ld	(hl),#0x00
                           3587 ;	genLeftShift
                           3588 ;	AOP_STK for _l1_scene_3_animate_sloc0_1_0
                           3589 ;	AOP_STK for _l1_scene_3_animate_sloc1_1_0
   0E36 2B                 3590 	dec	hl
   0E37 7E                 3591 	ld	a,(hl)
   0E38 2B                 3592 	dec	hl
   0E39 2B                 3593 	dec	hl
   0E3A 77                 3594 	ld	(hl),a
   0E3B F8 03              3595 	lda	hl,3(sp)
   0E3D 7E                 3596 	ld	a,(hl)
   0E3E 2B                 3597 	dec	hl
   0E3F 2B                 3598 	dec	hl
   0E40 77                 3599 	ld	(hl),a
   0E41 3E 03              3600 	ld	a,#0x02+1
   0E43 18 07              3601 	jr	00104$
   0E45                    3602 00103$:
   0E45 F8 00              3603 	lda	hl,0(sp)
   0E47 CB 26              3604 	sla	(hl)
   0E49 23                 3605 	inc	hl
   0E4A CB 16              3606 	rl	(hl)
   0E4C                    3607 00104$:
   0E4C 3D                 3608 	dec	a
   0E4D 20 F6              3609 	jr	nz,00103$
                           3610 ;	genMinus
                           3611 ;	AOP_STK for _l1_scene_3_animate_sloc1_1_0
                           3612 ;	AOP_STK for _l1_scene_3_animate_sloc0_1_0
   0E4F 11 24 00           3613 	ld	de,#0x0024
   0E52 F8 00              3614 	lda	hl,0(sp)
   0E54 2A                 3615 	ld	a,(hl+)
   0E55 66                 3616 	ld	h,(hl)
   0E56 6F                 3617 	ld	l,a
   0E57 7B                 3618 	ld	a,e
   0E58 95                 3619 	sub	a,l
   0E59 5F                 3620 	ld	e,a
   0E5A 7A                 3621 	ld	a,d
   0E5B 9C                 3622 	sbc	a,h
   0E5C F8 03              3623 	lda	hl,3(sp)
   0E5E 32                 3624 	ld      (hl-),a
   0E5F 73                 3625 	ld	(hl),e
                           3626 ;	genCast
                           3627 ;	AOP_STK for _l1_scene_3_animate_sloc0_1_0
   0E60 46                 3628 	ld	b,(hl)
                           3629 ;	genIpush
                           3630 ; _saveRegsForCall: sendSetSize: 0 deInUse: 0 bcInUse: 1 deSending: 0
   0E61 C5                 3631 	push	bc
   0E62 78                 3632 	ld	a,b
   0E63 F5                 3633 	push	af
   0E64 33                 3634 	inc	sp
                           3635 ;	genIpush
   0E65 3E 08              3636 	ld	a,#0x08
   0E67 F5                 3637 	push	af
   0E68 33                 3638 	inc	sp
                           3639 ;	genCall
   0E69 CD 00 00           3640 	call	_set_sprite_tile
   0E6C E8 02              3641 	lda	sp,2(sp)
   0E6E E1                 3642 	pop	hl
   0E6F 4D                 3643 	ld	c,l
                           3644 ;	level_1/level_1.c 454
                           3645 ;	genMinus
                           3646 ;	AOP_STK for _l1_scene_3_animate_sloc1_1_0
                           3647 ;	AOP_STK for _l1_scene_3_animate_sloc0_1_0
   0E70 11 26 00           3648 	ld	de,#0x0026
   0E73 F8 00              3649 	lda	hl,0(sp)
   0E75 2A                 3650 	ld	a,(hl+)
   0E76 66                 3651 	ld	h,(hl)
   0E77 6F                 3652 	ld	l,a
   0E78 7B                 3653 	ld	a,e
   0E79 95                 3654 	sub	a,l
   0E7A 5F                 3655 	ld	e,a
   0E7B 7A                 3656 	ld	a,d
   0E7C 9C                 3657 	sbc	a,h
   0E7D F8 03              3658 	lda	hl,3(sp)
   0E7F 32                 3659 	ld      (hl-),a
   0E80 73                 3660 	ld	(hl),e
                           3661 ;	genCast
                           3662 ;	AOP_STK for _l1_scene_3_animate_sloc0_1_0
   0E81 46                 3663 	ld	b,(hl)
                           3664 ;	genIpush
                           3665 ; _saveRegsForCall: sendSetSize: 0 deInUse: 0 bcInUse: 1 deSending: 0
   0E82 C5                 3666 	push	bc
   0E83 78                 3667 	ld	a,b
   0E84 F5                 3668 	push	af
   0E85 33                 3669 	inc	sp
                           3670 ;	genIpush
   0E86 3E 09              3671 	ld	a,#0x09
   0E88 F5                 3672 	push	af
   0E89 33                 3673 	inc	sp
                           3674 ;	genCall
   0E8A CD 00 00           3675 	call	_set_sprite_tile
   0E8D E8 02              3676 	lda	sp,2(sp)
   0E8F E1                 3677 	pop	hl
   0E90 4D                 3678 	ld	c,l
                           3679 ;	level_1/level_1.c 455
                           3680 ;	genIpush
                           3681 ; _saveRegsForCall: sendSetSize: 0 deInUse: 0 bcInUse: 1 deSending: 0
   0E91 C5                 3682 	push	bc
                           3683 ;	AOP_HL for _hero_posy
   0E92 21 00 00           3684 	ld	hl,#_hero_posy
   0E95 7E                 3685 	ld	a,(hl)
   0E96 F5                 3686 	push	af
   0E97 33                 3687 	inc	sp
                           3688 ;	genIpush
                           3689 ;	AOP_HL for _hero_posx
   0E98 21 00 00           3690 	ld	hl,#_hero_posx
   0E9B 7E                 3691 	ld	a,(hl)
   0E9C F5                 3692 	push	af
   0E9D 33                 3693 	inc	sp
                           3694 ;	genIpush
   0E9E 3E 00              3695 	ld	a,#0x00
   0EA0 F5                 3696 	push	af
   0EA1 33                 3697 	inc	sp
                           3698 ;	genCall
   0EA2 CD 00 00           3699 	call	_move_sprite
   0EA5 E8 03              3700 	lda	sp,3(sp)
   0EA7 E1                 3701 	pop	hl
   0EA8 4D                 3702 	ld	c,l
                           3703 ;	level_1/level_1.c 456
                           3704 ;	genIpush
                           3705 ; _saveRegsForCall: sendSetSize: 0 deInUse: 0 bcInUse: 0 deSending: 0
                           3706 ;	AOP_HL for _hero_posy
   0EA9 21 00 00           3707 	ld	hl,#_hero_posy
   0EAC 7E                 3708 	ld	a,(hl)
   0EAD F5                 3709 	push	af
   0EAE 33                 3710 	inc	sp
                           3711 ;	genIpush
   0EAF 79                 3712 	ld	a,c
   0EB0 F5                 3713 	push	af
   0EB1 33                 3714 	inc	sp
                           3715 ;	genIpush
   0EB2 3E 01              3716 	ld	a,#0x01
   0EB4 F5                 3717 	push	af
   0EB5 33                 3718 	inc	sp
                           3719 ;	genCall
   0EB6 CD 00 00           3720 	call	_move_sprite
   0EB9 E8 03              3721 	lda	sp,3(sp)
                           3722 ;	level_1/level_1.c 457
                           3723 ;	genIpush
                           3724 ; _saveRegsForCall: sendSetSize: 0 deInUse: 0 bcInUse: 0 deSending: 0
   0EBB 21 F4 01           3725 	ld	hl,#0x01F4
   0EBE E5                 3726 	push	hl
                           3727 ;	genCall
   0EBF CD 00 00           3728 	call	_delay
   0EC2 E8 02              3729 	lda	sp,2(sp)
                           3730 ;	genLabel
   0EC4                    3731 00101$:
                           3732 ;	genEndFunction
   0EC4 E8 04              3733 	lda	sp,4(sp)
   0EC6 C9                 3734 	ret
   0EC7                    3735 ___l1_scene_3_animate_end:
                           3736 ;	level_1/level_1.c 460
                           3737 ;	genLabel
                           3738 ;	genFunction
                           3739 ;	---------------------------------
                           3740 ; Function l1_scene_3_text_setup
                           3741 ; ---------------------------------
   0EC7                    3742 ___l1_scene_3_text_setup_start:
   0EC7                    3743 _l1_scene_3_text_setup:
   0EC7 E8 FD              3744 	lda	sp,-3(sp)
                           3745 ;	level_1/level_1.c 462
                           3746 ;	genCall
                           3747 ; _saveRegsForCall: sendSetSize: 0 deInUse: 0 bcInUse: 0 deSending: 0
   0EC9 CD 00 00           3748 	call	_display_off
                           3749 ;	level_1/level_1.c 463
                           3750 ;	genCall
                           3751 ; _saveRegsForCall: sendSetSize: 0 deInUse: 0 bcInUse: 0 deSending: 0
   0ECC CD 00 00           3752 	call	_hide_sprites
                           3753 ;	level_1/level_1.c 464
                           3754 ;	genCall
                           3755 ; _saveRegsForCall: sendSetSize: 0 deInUse: 0 bcInUse: 0 deSending: 0
   0ECF CD 00 00           3756 	call	_bkg_clean
                           3757 ;	level_1/level_1.c 465
                           3758 ;	genAssign
   0ED2 01 40 FF           3759 	ld	bc,#0xFF40
                           3760 ;	genAssign
                           3761 ;	AOP_STK for _l1_scene_3_text_setup_sloc0_1_0
   0ED5 F8 01              3762 	lda	hl,1(sp)
   0ED7 36 40              3763 	ld	(hl),#0x40
   0ED9 23                 3764 	inc	hl
   0EDA 36 FF              3765 	ld	(hl),#0xFF
                           3766 ;	genPointerGet
                           3767 ;	AOP_STK for _l1_scene_3_text_setup_sloc0_1_0
                           3768 ;	AOP_STK for _l1_scene_3_text_setup_sloc1_1_0
   0EDC 2B                 3769 	dec	hl
   0EDD 5E                 3770 	ld	e,(hl)
   0EDE 23                 3771 	inc	hl
   0EDF 56                 3772 	ld	d,(hl)
   0EE0 1A                 3773 	ld	a,(de)
   0EE1 2B                 3774 	dec	hl
   0EE2 2B                 3775 	dec	hl
                           3776 ;	genOr
                           3777 ;	AOP_STK for _l1_scene_3_text_setup_sloc1_1_0
   0EE3 77                 3778 	ld      (hl),a
   0EE4 7F                 3779 	ld      a,a
   0EE5 F6 80              3780 	or	a,#0x80
                           3781 ;	genAssign (pointer)
   0EE7 02                 3782 	ld	(bc),a
                           3783 ;	level_1/level_1.c 466
                           3784 ;	genIpush
                           3785 ; _saveRegsForCall: sendSetSize: 0 deInUse: 0 bcInUse: 0 deSending: 0
   0EE8 3E 00              3786 	ld	a,#0x00
   0EEA F5                 3787 	push	af
   0EEB 33                 3788 	inc	sp
                           3789 ;	genCall
   0EEC CD 00 00           3790 	call	_sprite_clean
   0EEF E8 01              3791 	lda	sp,1(sp)
                           3792 ;	level_1/level_1.c 467
                           3793 ;	genAssign
                           3794 ;	AOP_HL for _LETTER_COUNT
   0EF1 21 00 00           3795 	ld	hl,#_LETTER_COUNT
   0EF4 36 00              3796 	ld	(hl),#0x00
                           3797 ;	level_1/level_1.c 468
                           3798 ;	genCall
                           3799 ; _saveRegsForCall: sendSetSize: 0 deInUse: 0 bcInUse: 0 deSending: 0
   0EF6 CD 00 00           3800 	call	_asakawa
                           3801 ;	level_1/level_1.c 469
                           3802 ;	genIpush
                           3803 ; _saveRegsForCall: sendSetSize: 0 deInUse: 0 bcInUse: 0 deSending: 0
   0EF9 21 18 30           3804 	ld	hl,#0x3018
   0EFC E5                 3805 	push	hl
                           3806 ;	genIpush
   0EFD 21 09 0F           3807 	ld	hl,#__str_20
   0F00 E5                 3808 	push	hl
                           3809 ;	genCall
   0F01 CD 00 00           3810 	call	_print
   0F04 E8 04              3811 	lda	sp,4(sp)
                           3812 ;	genLabel
   0F06                    3813 00101$:
                           3814 ;	genEndFunction
   0F06 E8 03              3815 	lda	sp,3(sp)
   0F08 C9                 3816 	ret
   0F09                    3817 ___l1_scene_3_text_setup_end:
   0F09                    3818 __str_20:
   0F09 4C 49 53 54 45 4E  3819 	.ascii "LISTENiUP"
        69 55 50
   0F12 0A                 3820 	.db 0x0A
   0F13 59 4F 55           3821 	.ascii "YOU"
   0F16 0A                 3822 	.db 0x0A
   0F17 4D 41 47 47 4F 54  3823 	.ascii "MAGGOTSl"
        53 6C
   0F1F 00                 3824 	.db 0x00
                           3825 ;	level_1/level_1.c 473
                           3826 ;	genLabel
                           3827 ;	genFunction
                           3828 ;	---------------------------------
                           3829 ; Function l1_scene_3
                           3830 ; ---------------------------------
   0F20                    3831 ___l1_scene_3_start:
   0F20                    3832 _l1_scene_3:
   0F20 E8 FD              3833 	lda	sp,-3(sp)
                           3834 ;	level_1/level_1.c 475
                           3835 ;	genAssign
                           3836 ;	AOP_HL for _talking
   0F22 21 00 00           3837 	ld	hl,#_talking
   0F25 36 01              3838 	ld	(hl),#0x01
                           3839 ;	level_1/level_1.c 476
                           3840 ;	genLabel
   0F27                    3841 00137$:
                           3842 ;	genIfx
                           3843 ;	AOP_HL for _talking
   0F27 AF                 3844 	xor	a,a
   0F28 21 00 00           3845 	ld	hl,#_talking
   0F2B B6                 3846 	or	a,(hl)
   0F2C CA AD 12           3847 	jp	z,00140$
                           3848 ;	level_1/level_1.c 478
                           3849 ;	genCall
                           3850 ; _saveRegsForCall: sendSetSize: 0 deInUse: 0 bcInUse: 0 deSending: 0
   0F2F CD 00 00           3851 	call	_joypad
   0F32 4B                 3852 	ld	c,e
                           3853 ;	genAnd
   0F33 79                 3854 	ld	a,c
   0F34 E6 10              3855 	and	a,#0x10
   0F36 20 03              3856 	jr	nz,00162$
   0F38 C3 27 0F           3857 	jp	00137$
   0F3B                    3858 00162$:
                           3859 ;	level_1/level_1.c 480
                           3860 ;	genPlus
                           3861 ;	AOP_HL for _talking
                           3862 ;	genPlusIncr
   0F3B 21 00 00           3863 	ld	hl,#_talking
   0F3E 34                 3864 	inc	(hl)
                           3865 ;	level_1/level_1.c 481
                           3866 ;	genIpush
                           3867 ; _saveRegsForCall: sendSetSize: 0 deInUse: 0 bcInUse: 0 deSending: 0
   0F3F 21 C8 00           3868 	ld	hl,#0x00C8
   0F42 E5                 3869 	push	hl
                           3870 ;	genCall
   0F43 CD 00 00           3871 	call	_delay
   0F46 E8 02              3872 	lda	sp,2(sp)
                           3873 ;	level_1/level_1.c 482
                           3874 ;	genCmpEq
                           3875 ;	AOP_HL for _talking
                           3876 ; genCmpEq: left 1, right 1, result 0
   0F48 21 00 00           3877 	ld	hl,#_talking
   0F4B 7E                 3878 	ld	a,(hl)
   0F4C FE 02              3879 	cp	a,#0x02
   0F4E C2 71 0F           3880 	jp	nz,00102$
   0F51 18 03              3881 	jr	00164$
   0F53                    3882 00163$:
   0F53 C3 71 0F           3883 	jp	00102$
   0F56                    3884 00164$:
                           3885 ;	level_1/level_1.c 484
                           3886 ;	genIpush
                           3887 ; _saveRegsForCall: sendSetSize: 0 deInUse: 0 bcInUse: 0 deSending: 0
   0F56 3E 08              3888 	ld	a,#0x08
   0F58 F5                 3889 	push	af
   0F59 33                 3890 	inc	sp
                           3891 ;	genCall
   0F5A CD 00 00           3892 	call	_sprite_clean
   0F5D E8 01              3893 	lda	sp,1(sp)
                           3894 ;	level_1/level_1.c 485
                           3895 ;	genAssign
                           3896 ;	AOP_HL for _LETTER_COUNT
   0F5F 21 00 00           3897 	ld	hl,#_LETTER_COUNT
   0F62 36 08              3898 	ld	(hl),#0x08
                           3899 ;	level_1/level_1.c 486
                           3900 ;	genIpush
                           3901 ; _saveRegsForCall: sendSetSize: 0 deInUse: 0 bcInUse: 0 deSending: 0
   0F64 21 18 30           3902 	ld	hl,#0x3018
   0F67 E5                 3903 	push	hl
                           3904 ;	genIpush
   0F68 21 B0 12           3905 	ld	hl,#__str_21
   0F6B E5                 3906 	push	hl
                           3907 ;	genCall
   0F6C CD 00 00           3908 	call	_print
   0F6F E8 04              3909 	lda	sp,4(sp)
                           3910 ;	genLabel
   0F71                    3911 00102$:
                           3912 ;	level_1/level_1.c 488
                           3913 ;	genCmpEq
                           3914 ;	AOP_HL for _talking
                           3915 ; genCmpEq: left 1, right 1, result 0
   0F71 21 00 00           3916 	ld	hl,#_talking
   0F74 7E                 3917 	ld	a,(hl)
   0F75 FE 03              3918 	cp	a,#0x03
   0F77 C2 9A 0F           3919 	jp	nz,00104$
   0F7A 18 03              3920 	jr	00166$
   0F7C                    3921 00165$:
   0F7C C3 9A 0F           3922 	jp	00104$
   0F7F                    3923 00166$:
                           3924 ;	level_1/level_1.c 490
                           3925 ;	genIpush
                           3926 ; _saveRegsForCall: sendSetSize: 0 deInUse: 0 bcInUse: 0 deSending: 0
   0F7F 3E 08              3927 	ld	a,#0x08
   0F81 F5                 3928 	push	af
   0F82 33                 3929 	inc	sp
                           3930 ;	genCall
   0F83 CD 00 00           3931 	call	_sprite_clean
   0F86 E8 01              3932 	lda	sp,1(sp)
                           3933 ;	level_1/level_1.c 491
                           3934 ;	genAssign
                           3935 ;	AOP_HL for _LETTER_COUNT
   0F88 21 00 00           3936 	ld	hl,#_LETTER_COUNT
   0F8B 36 08              3937 	ld	(hl),#0x08
                           3938 ;	level_1/level_1.c 492
                           3939 ;	genIpush
                           3940 ; _saveRegsForCall: sendSetSize: 0 deInUse: 0 bcInUse: 0 deSending: 0
   0F8D 21 18 30           3941 	ld	hl,#0x3018
   0F90 E5                 3942 	push	hl
                           3943 ;	genIpush
   0F91 21 C1 12           3944 	ld	hl,#__str_22
   0F94 E5                 3945 	push	hl
                           3946 ;	genCall
   0F95 CD 00 00           3947 	call	_print
   0F98 E8 04              3948 	lda	sp,4(sp)
                           3949 ;	genLabel
   0F9A                    3950 00104$:
                           3951 ;	level_1/level_1.c 494
                           3952 ;	genCmpEq
                           3953 ;	AOP_HL for _talking
                           3954 ; genCmpEq: left 1, right 1, result 0
   0F9A 21 00 00           3955 	ld	hl,#_talking
   0F9D 7E                 3956 	ld	a,(hl)
   0F9E FE 04              3957 	cp	a,#0x04
   0FA0 C2 C3 0F           3958 	jp	nz,00106$
   0FA3 18 03              3959 	jr	00168$
   0FA5                    3960 00167$:
   0FA5 C3 C3 0F           3961 	jp	00106$
   0FA8                    3962 00168$:
                           3963 ;	level_1/level_1.c 496
                           3964 ;	genIpush
                           3965 ; _saveRegsForCall: sendSetSize: 0 deInUse: 0 bcInUse: 0 deSending: 0
   0FA8 3E 08              3966 	ld	a,#0x08
   0FAA F5                 3967 	push	af
   0FAB 33                 3968 	inc	sp
                           3969 ;	genCall
   0FAC CD 00 00           3970 	call	_sprite_clean
   0FAF E8 01              3971 	lda	sp,1(sp)
                           3972 ;	level_1/level_1.c 497
                           3973 ;	genAssign
                           3974 ;	AOP_HL for _LETTER_COUNT
   0FB1 21 00 00           3975 	ld	hl,#_LETTER_COUNT
   0FB4 36 08              3976 	ld	(hl),#0x08
                           3977 ;	level_1/level_1.c 498
                           3978 ;	genIpush
                           3979 ; _saveRegsForCall: sendSetSize: 0 deInUse: 0 bcInUse: 0 deSending: 0
   0FB6 21 18 30           3980 	ld	hl,#0x3018
   0FB9 E5                 3981 	push	hl
                           3982 ;	genIpush
   0FBA 21 D5 12           3983 	ld	hl,#__str_23
   0FBD E5                 3984 	push	hl
                           3985 ;	genCall
   0FBE CD 00 00           3986 	call	_print
   0FC1 E8 04              3987 	lda	sp,4(sp)
                           3988 ;	genLabel
   0FC3                    3989 00106$:
                           3990 ;	level_1/level_1.c 500
                           3991 ;	genCmpEq
                           3992 ;	AOP_HL for _talking
                           3993 ; genCmpEq: left 1, right 1, result 0
   0FC3 21 00 00           3994 	ld	hl,#_talking
   0FC6 7E                 3995 	ld	a,(hl)
   0FC7 FE 05              3996 	cp	a,#0x05
   0FC9 C2 EC 0F           3997 	jp	nz,00108$
   0FCC 18 03              3998 	jr	00170$
   0FCE                    3999 00169$:
   0FCE C3 EC 0F           4000 	jp	00108$
   0FD1                    4001 00170$:
                           4002 ;	level_1/level_1.c 502
                           4003 ;	genIpush
                           4004 ; _saveRegsForCall: sendSetSize: 0 deInUse: 0 bcInUse: 0 deSending: 0
   0FD1 3E 08              4005 	ld	a,#0x08
   0FD3 F5                 4006 	push	af
   0FD4 33                 4007 	inc	sp
                           4008 ;	genCall
   0FD5 CD 00 00           4009 	call	_sprite_clean
   0FD8 E8 01              4010 	lda	sp,1(sp)
                           4011 ;	level_1/level_1.c 503
                           4012 ;	genAssign
                           4013 ;	AOP_HL for _LETTER_COUNT
   0FDA 21 00 00           4014 	ld	hl,#_LETTER_COUNT
   0FDD 36 08              4015 	ld	(hl),#0x08
                           4016 ;	level_1/level_1.c 504
                           4017 ;	genIpush
                           4018 ; _saveRegsForCall: sendSetSize: 0 deInUse: 0 bcInUse: 0 deSending: 0
   0FDF 21 18 30           4019 	ld	hl,#0x3018
   0FE2 E5                 4020 	push	hl
                           4021 ;	genIpush
   0FE3 21 E4 12           4022 	ld	hl,#__str_24
   0FE6 E5                 4023 	push	hl
                           4024 ;	genCall
   0FE7 CD 00 00           4025 	call	_print
   0FEA E8 04              4026 	lda	sp,4(sp)
                           4027 ;	genLabel
   0FEC                    4028 00108$:
                           4029 ;	level_1/level_1.c 506
                           4030 ;	genCmpEq
                           4031 ;	AOP_HL for _talking
                           4032 ; genCmpEq: left 1, right 1, result 0
   0FEC 21 00 00           4033 	ld	hl,#_talking
   0FEF 7E                 4034 	ld	a,(hl)
   0FF0 FE 06              4035 	cp	a,#0x06
   0FF2 C2 15 10           4036 	jp	nz,00110$
   0FF5 18 03              4037 	jr	00172$
   0FF7                    4038 00171$:
   0FF7 C3 15 10           4039 	jp	00110$
   0FFA                    4040 00172$:
                           4041 ;	level_1/level_1.c 508
                           4042 ;	genIpush
                           4043 ; _saveRegsForCall: sendSetSize: 0 deInUse: 0 bcInUse: 0 deSending: 0
   0FFA 3E 08              4044 	ld	a,#0x08
   0FFC F5                 4045 	push	af
   0FFD 33                 4046 	inc	sp
                           4047 ;	genCall
   0FFE CD 00 00           4048 	call	_sprite_clean
   1001 E8 01              4049 	lda	sp,1(sp)
                           4050 ;	level_1/level_1.c 509
                           4051 ;	genAssign
                           4052 ;	AOP_HL for _LETTER_COUNT
   1003 21 00 00           4053 	ld	hl,#_LETTER_COUNT
   1006 36 08              4054 	ld	(hl),#0x08
                           4055 ;	level_1/level_1.c 510
                           4056 ;	genIpush
                           4057 ; _saveRegsForCall: sendSetSize: 0 deInUse: 0 bcInUse: 0 deSending: 0
   1008 21 18 30           4058 	ld	hl,#0x3018
   100B E5                 4059 	push	hl
                           4060 ;	genIpush
   100C 21 02 13           4061 	ld	hl,#__str_25
   100F E5                 4062 	push	hl
                           4063 ;	genCall
   1010 CD 00 00           4064 	call	_print
   1013 E8 04              4065 	lda	sp,4(sp)
                           4066 ;	genLabel
   1015                    4067 00110$:
                           4068 ;	level_1/level_1.c 512
                           4069 ;	genCmpEq
                           4070 ;	AOP_HL for _talking
                           4071 ; genCmpEq: left 1, right 1, result 0
   1015 21 00 00           4072 	ld	hl,#_talking
   1018 7E                 4073 	ld	a,(hl)
   1019 FE 07              4074 	cp	a,#0x07
   101B C2 3E 10           4075 	jp	nz,00112$
   101E 18 03              4076 	jr	00174$
   1020                    4077 00173$:
   1020 C3 3E 10           4078 	jp	00112$
   1023                    4079 00174$:
                           4080 ;	level_1/level_1.c 514
                           4081 ;	genIpush
                           4082 ; _saveRegsForCall: sendSetSize: 0 deInUse: 0 bcInUse: 0 deSending: 0
   1023 3E 08              4083 	ld	a,#0x08
   1025 F5                 4084 	push	af
   1026 33                 4085 	inc	sp
                           4086 ;	genCall
   1027 CD 00 00           4087 	call	_sprite_clean
   102A E8 01              4088 	lda	sp,1(sp)
                           4089 ;	level_1/level_1.c 515
                           4090 ;	genAssign
                           4091 ;	AOP_HL for _LETTER_COUNT
   102C 21 00 00           4092 	ld	hl,#_LETTER_COUNT
   102F 36 08              4093 	ld	(hl),#0x08
                           4094 ;	level_1/level_1.c 516
                           4095 ;	genIpush
                           4096 ; _saveRegsForCall: sendSetSize: 0 deInUse: 0 bcInUse: 0 deSending: 0
   1031 21 18 30           4097 	ld	hl,#0x3018
   1034 E5                 4098 	push	hl
                           4099 ;	genIpush
   1035 21 21 13           4100 	ld	hl,#__str_26
   1038 E5                 4101 	push	hl
                           4102 ;	genCall
   1039 CD 00 00           4103 	call	_print
   103C E8 04              4104 	lda	sp,4(sp)
                           4105 ;	genLabel
   103E                    4106 00112$:
                           4107 ;	level_1/level_1.c 518
                           4108 ;	genCmpEq
                           4109 ;	AOP_HL for _talking
                           4110 ; genCmpEq: left 1, right 1, result 0
   103E 21 00 00           4111 	ld	hl,#_talking
   1041 7E                 4112 	ld	a,(hl)
   1042 FE 08              4113 	cp	a,#0x08
   1044 C2 67 10           4114 	jp	nz,00114$
   1047 18 03              4115 	jr	00176$
   1049                    4116 00175$:
   1049 C3 67 10           4117 	jp	00114$
   104C                    4118 00176$:
                           4119 ;	level_1/level_1.c 520
                           4120 ;	genIpush
                           4121 ; _saveRegsForCall: sendSetSize: 0 deInUse: 0 bcInUse: 0 deSending: 0
   104C 3E 08              4122 	ld	a,#0x08
   104E F5                 4123 	push	af
   104F 33                 4124 	inc	sp
                           4125 ;	genCall
   1050 CD 00 00           4126 	call	_sprite_clean
   1053 E8 01              4127 	lda	sp,1(sp)
                           4128 ;	level_1/level_1.c 521
                           4129 ;	genAssign
                           4130 ;	AOP_HL for _LETTER_COUNT
   1055 21 00 00           4131 	ld	hl,#_LETTER_COUNT
   1058 36 08              4132 	ld	(hl),#0x08
                           4133 ;	level_1/level_1.c 522
                           4134 ;	genIpush
                           4135 ; _saveRegsForCall: sendSetSize: 0 deInUse: 0 bcInUse: 0 deSending: 0
   105A 21 18 30           4136 	ld	hl,#0x3018
   105D E5                 4137 	push	hl
                           4138 ;	genIpush
   105E 21 3A 13           4139 	ld	hl,#__str_27
   1061 E5                 4140 	push	hl
                           4141 ;	genCall
   1062 CD 00 00           4142 	call	_print
   1065 E8 04              4143 	lda	sp,4(sp)
                           4144 ;	genLabel
   1067                    4145 00114$:
                           4146 ;	level_1/level_1.c 524
                           4147 ;	genCmpEq
                           4148 ;	AOP_HL for _talking
                           4149 ; genCmpEq: left 1, right 1, result 0
   1067 21 00 00           4150 	ld	hl,#_talking
   106A 7E                 4151 	ld	a,(hl)
   106B FE 09              4152 	cp	a,#0x09
   106D C2 90 10           4153 	jp	nz,00116$
   1070 18 03              4154 	jr	00178$
   1072                    4155 00177$:
   1072 C3 90 10           4156 	jp	00116$
   1075                    4157 00178$:
                           4158 ;	level_1/level_1.c 526
                           4159 ;	genIpush
                           4160 ; _saveRegsForCall: sendSetSize: 0 deInUse: 0 bcInUse: 0 deSending: 0
   1075 3E 08              4161 	ld	a,#0x08
   1077 F5                 4162 	push	af
   1078 33                 4163 	inc	sp
                           4164 ;	genCall
   1079 CD 00 00           4165 	call	_sprite_clean
   107C E8 01              4166 	lda	sp,1(sp)
                           4167 ;	level_1/level_1.c 527
                           4168 ;	genAssign
                           4169 ;	AOP_HL for _LETTER_COUNT
   107E 21 00 00           4170 	ld	hl,#_LETTER_COUNT
   1081 36 08              4171 	ld	(hl),#0x08
                           4172 ;	level_1/level_1.c 528
                           4173 ;	genIpush
                           4174 ; _saveRegsForCall: sendSetSize: 0 deInUse: 0 bcInUse: 0 deSending: 0
   1083 21 18 30           4175 	ld	hl,#0x3018
   1086 E5                 4176 	push	hl
                           4177 ;	genIpush
   1087 21 48 13           4178 	ld	hl,#__str_28
   108A E5                 4179 	push	hl
                           4180 ;	genCall
   108B CD 00 00           4181 	call	_print
   108E E8 04              4182 	lda	sp,4(sp)
                           4183 ;	genLabel
   1090                    4184 00116$:
                           4185 ;	level_1/level_1.c 530
                           4186 ;	genCmpEq
                           4187 ;	AOP_HL for _talking
                           4188 ; genCmpEq: left 1, right 1, result 0
   1090 21 00 00           4189 	ld	hl,#_talking
   1093 7E                 4190 	ld	a,(hl)
   1094 FE 0A              4191 	cp	a,#0x0A
   1096 C2 B9 10           4192 	jp	nz,00118$
   1099 18 03              4193 	jr	00180$
   109B                    4194 00179$:
   109B C3 B9 10           4195 	jp	00118$
   109E                    4196 00180$:
                           4197 ;	level_1/level_1.c 532
                           4198 ;	genIpush
                           4199 ; _saveRegsForCall: sendSetSize: 0 deInUse: 0 bcInUse: 0 deSending: 0
   109E 3E 08              4200 	ld	a,#0x08
   10A0 F5                 4201 	push	af
   10A1 33                 4202 	inc	sp
                           4203 ;	genCall
   10A2 CD 00 00           4204 	call	_sprite_clean
   10A5 E8 01              4205 	lda	sp,1(sp)
                           4206 ;	level_1/level_1.c 533
                           4207 ;	genAssign
                           4208 ;	AOP_HL for _LETTER_COUNT
   10A7 21 00 00           4209 	ld	hl,#_LETTER_COUNT
   10AA 36 08              4210 	ld	(hl),#0x08
                           4211 ;	level_1/level_1.c 534
                           4212 ;	genIpush
                           4213 ; _saveRegsForCall: sendSetSize: 0 deInUse: 0 bcInUse: 0 deSending: 0
   10AC 21 18 30           4214 	ld	hl,#0x3018
   10AF E5                 4215 	push	hl
                           4216 ;	genIpush
   10B0 21 62 13           4217 	ld	hl,#__str_29
   10B3 E5                 4218 	push	hl
                           4219 ;	genCall
   10B4 CD 00 00           4220 	call	_print
   10B7 E8 04              4221 	lda	sp,4(sp)
                           4222 ;	genLabel
   10B9                    4223 00118$:
                           4224 ;	level_1/level_1.c 536
                           4225 ;	genCmpEq
                           4226 ;	AOP_HL for _talking
                           4227 ; genCmpEq: left 1, right 1, result 0
   10B9 21 00 00           4228 	ld	hl,#_talking
   10BC 7E                 4229 	ld	a,(hl)
   10BD FE 0B              4230 	cp	a,#0x0B
   10BF C2 E2 10           4231 	jp	nz,00120$
   10C2 18 03              4232 	jr	00182$
   10C4                    4233 00181$:
   10C4 C3 E2 10           4234 	jp	00120$
   10C7                    4235 00182$:
                           4236 ;	level_1/level_1.c 538
                           4237 ;	genIpush
                           4238 ; _saveRegsForCall: sendSetSize: 0 deInUse: 0 bcInUse: 0 deSending: 0
   10C7 3E 08              4239 	ld	a,#0x08
   10C9 F5                 4240 	push	af
   10CA 33                 4241 	inc	sp
                           4242 ;	genCall
   10CB CD 00 00           4243 	call	_sprite_clean
   10CE E8 01              4244 	lda	sp,1(sp)
                           4245 ;	level_1/level_1.c 539
                           4246 ;	genAssign
                           4247 ;	AOP_HL for _LETTER_COUNT
   10D0 21 00 00           4248 	ld	hl,#_LETTER_COUNT
   10D3 36 08              4249 	ld	(hl),#0x08
                           4250 ;	level_1/level_1.c 540
                           4251 ;	genIpush
                           4252 ; _saveRegsForCall: sendSetSize: 0 deInUse: 0 bcInUse: 0 deSending: 0
   10D5 21 18 30           4253 	ld	hl,#0x3018
   10D8 E5                 4254 	push	hl
                           4255 ;	genIpush
   10D9 21 73 13           4256 	ld	hl,#__str_30
   10DC E5                 4257 	push	hl
                           4258 ;	genCall
   10DD CD 00 00           4259 	call	_print
   10E0 E8 04              4260 	lda	sp,4(sp)
                           4261 ;	genLabel
   10E2                    4262 00120$:
                           4263 ;	level_1/level_1.c 542
                           4264 ;	genCmpEq
                           4265 ;	AOP_HL for _talking
                           4266 ; genCmpEq: left 1, right 1, result 0
   10E2 21 00 00           4267 	ld	hl,#_talking
   10E5 7E                 4268 	ld	a,(hl)
   10E6 FE 0C              4269 	cp	a,#0x0C
   10E8 C2 0B 11           4270 	jp	nz,00122$
   10EB 18 03              4271 	jr	00184$
   10ED                    4272 00183$:
   10ED C3 0B 11           4273 	jp	00122$
   10F0                    4274 00184$:
                           4275 ;	level_1/level_1.c 544
                           4276 ;	genIpush
                           4277 ; _saveRegsForCall: sendSetSize: 0 deInUse: 0 bcInUse: 0 deSending: 0
   10F0 3E 00              4278 	ld	a,#0x00
   10F2 F5                 4279 	push	af
   10F3 33                 4280 	inc	sp
                           4281 ;	genCall
   10F4 CD 00 00           4282 	call	_sprite_clean
   10F7 E8 01              4283 	lda	sp,1(sp)
                           4284 ;	level_1/level_1.c 545
                           4285 ;	genAssign
                           4286 ;	AOP_HL for _LETTER_COUNT
   10F9 21 00 00           4287 	ld	hl,#_LETTER_COUNT
   10FC 36 00              4288 	ld	(hl),#0x00
                           4289 ;	level_1/level_1.c 546
                           4290 ;	genIpush
                           4291 ; _saveRegsForCall: sendSetSize: 0 deInUse: 0 bcInUse: 0 deSending: 0
   10FE 21 18 20           4292 	ld	hl,#0x2018
   1101 E5                 4293 	push	hl
                           4294 ;	genIpush
   1102 21 8C 13           4295 	ld	hl,#__str_31
   1105 E5                 4296 	push	hl
                           4297 ;	genCall
   1106 CD 00 00           4298 	call	_print
   1109 E8 04              4299 	lda	sp,4(sp)
                           4300 ;	genLabel
   110B                    4301 00122$:
                           4302 ;	level_1/level_1.c 548
                           4303 ;	genCmpEq
                           4304 ;	AOP_HL for _talking
                           4305 ; genCmpEq: left 1, right 1, result 0
   110B 21 00 00           4306 	ld	hl,#_talking
   110E 7E                 4307 	ld	a,(hl)
   110F FE 0D              4308 	cp	a,#0x0D
   1111 C2 34 11           4309 	jp	nz,00124$
   1114 18 03              4310 	jr	00186$
   1116                    4311 00185$:
   1116 C3 34 11           4312 	jp	00124$
   1119                    4313 00186$:
                           4314 ;	level_1/level_1.c 550
                           4315 ;	genIpush
                           4316 ; _saveRegsForCall: sendSetSize: 0 deInUse: 0 bcInUse: 0 deSending: 0
   1119 3E 00              4317 	ld	a,#0x00
   111B F5                 4318 	push	af
   111C 33                 4319 	inc	sp
                           4320 ;	genCall
   111D CD 00 00           4321 	call	_sprite_clean
   1120 E8 01              4322 	lda	sp,1(sp)
                           4323 ;	level_1/level_1.c 551
                           4324 ;	genAssign
                           4325 ;	AOP_HL for _LETTER_COUNT
   1122 21 00 00           4326 	ld	hl,#_LETTER_COUNT
   1125 36 00              4327 	ld	(hl),#0x00
                           4328 ;	level_1/level_1.c 552
                           4329 ;	genIpush
                           4330 ; _saveRegsForCall: sendSetSize: 0 deInUse: 0 bcInUse: 0 deSending: 0
   1127 21 18 20           4331 	ld	hl,#0x2018
   112A E5                 4332 	push	hl
                           4333 ;	genIpush
   112B 21 AC 13           4334 	ld	hl,#__str_32
   112E E5                 4335 	push	hl
                           4336 ;	genCall
   112F CD 00 00           4337 	call	_print
   1132 E8 04              4338 	lda	sp,4(sp)
                           4339 ;	genLabel
   1134                    4340 00124$:
                           4341 ;	level_1/level_1.c 554
                           4342 ;	genCmpEq
                           4343 ;	AOP_HL for _talking
                           4344 ; genCmpEq: left 1, right 1, result 0
   1134 21 00 00           4345 	ld	hl,#_talking
   1137 7E                 4346 	ld	a,(hl)
   1138 FE 0E              4347 	cp	a,#0x0E
   113A C2 84 11           4348 	jp	nz,00126$
   113D 18 03              4349 	jr	00188$
   113F                    4350 00187$:
   113F C3 84 11           4351 	jp	00126$
   1142                    4352 00188$:
                           4353 ;	level_1/level_1.c 556
                           4354 ;	genIpush
                           4355 ; _saveRegsForCall: sendSetSize: 0 deInUse: 0 bcInUse: 0 deSending: 0
   1142 3E 00              4356 	ld	a,#0x00
   1144 F5                 4357 	push	af
   1145 33                 4358 	inc	sp
                           4359 ;	genCall
   1146 CD 00 00           4360 	call	_sprite_clean
   1149 E8 01              4361 	lda	sp,1(sp)
                           4362 ;	level_1/level_1.c 557
                           4363 ;	genAssign
                           4364 ;	AOP_HL for _LETTER_COUNT
   114B 21 00 00           4365 	ld	hl,#_LETTER_COUNT
   114E 36 00              4366 	ld	(hl),#0x00
                           4367 ;	level_1/level_1.c 558
                           4368 ;	genCall
                           4369 ; _saveRegsForCall: sendSetSize: 0 deInUse: 0 bcInUse: 0 deSending: 0
   1150 CD 81 0A           4370 	call	_l1_scene_3_setup
                           4371 ;	level_1/level_1.c 559
                           4372 ;	genCall
                           4373 ; _saveRegsForCall: sendSetSize: 0 deInUse: 0 bcInUse: 0 deSending: 0
   1153 CD 2E 14           4374 	call	_asakawa_shoots_anim
                           4375 ;	level_1/level_1.c 560
                           4376 ;	genCall
                           4377 ; _saveRegsForCall: sendSetSize: 0 deInUse: 0 bcInUse: 0 deSending: 0
   1156 CD 00 00           4378 	call	_display_off
                           4379 ;	level_1/level_1.c 561
                           4380 ;	genCall
                           4381 ; _saveRegsForCall: sendSetSize: 0 deInUse: 0 bcInUse: 0 deSending: 0
   1159 CD 00 00           4382 	call	_bkg_clean
                           4383 ;	level_1/level_1.c 562
                           4384 ;	genCall
                           4385 ; _saveRegsForCall: sendSetSize: 0 deInUse: 0 bcInUse: 0 deSending: 0
   115C CD 00 00           4386 	call	_hide_sprites
                           4387 ;	level_1/level_1.c 563
                           4388 ;	genAssign
   115F 01 40 FF           4389 	ld	bc,#0xFF40
                           4390 ;	genAssign
                           4391 ;	AOP_STK for _l1_scene_3_sloc0_1_0
   1162 F8 01              4392 	lda	hl,1(sp)
   1164 36 40              4393 	ld	(hl),#0x40
   1166 23                 4394 	inc	hl
   1167 36 FF              4395 	ld	(hl),#0xFF
                           4396 ;	genPointerGet
                           4397 ;	AOP_STK for _l1_scene_3_sloc0_1_0
                           4398 ;	AOP_STK for _l1_scene_3_sloc1_1_0
   1169 2B                 4399 	dec	hl
   116A 5E                 4400 	ld	e,(hl)
   116B 23                 4401 	inc	hl
   116C 56                 4402 	ld	d,(hl)
   116D 1A                 4403 	ld	a,(de)
   116E 2B                 4404 	dec	hl
   116F 2B                 4405 	dec	hl
                           4406 ;	genOr
                           4407 ;	AOP_STK for _l1_scene_3_sloc1_1_0
   1170 77                 4408 	ld      (hl),a
                           4409 ; Removed redundent load
   1171 F6 80              4410 	or	a,#0x80
                           4411 ;	genAssign (pointer)
   1173 02                 4412 	ld	(bc),a
                           4413 ;	level_1/level_1.c 564
                           4414 ;	genCall
                           4415 ; _saveRegsForCall: sendSetSize: 0 deInUse: 0 bcInUse: 0 deSending: 0
   1174 CD 00 00           4416 	call	_asakawa
                           4417 ;	level_1/level_1.c 565
                           4418 ;	genIpush
                           4419 ; _saveRegsForCall: sendSetSize: 0 deInUse: 0 bcInUse: 0 deSending: 0
   1177 21 18 30           4420 	ld	hl,#0x3018
   117A E5                 4421 	push	hl
                           4422 ;	genIpush
   117B 21 C2 13           4423 	ld	hl,#__str_33
   117E E5                 4424 	push	hl
                           4425 ;	genCall
   117F CD 00 00           4426 	call	_print
   1182 E8 04              4427 	lda	sp,4(sp)
                           4428 ;	genLabel
   1184                    4429 00126$:
                           4430 ;	level_1/level_1.c 567
                           4431 ;	genCmpEq
                           4432 ;	AOP_HL for _talking
                           4433 ; genCmpEq: left 1, right 1, result 0
   1184 21 00 00           4434 	ld	hl,#_talking
   1187 7E                 4435 	ld	a,(hl)
   1188 FE 0F              4436 	cp	a,#0x0F
   118A C2 AD 11           4437 	jp	nz,00128$
   118D 18 03              4438 	jr	00190$
   118F                    4439 00189$:
   118F C3 AD 11           4440 	jp	00128$
   1192                    4441 00190$:
                           4442 ;	level_1/level_1.c 569
                           4443 ;	genIpush
                           4444 ; _saveRegsForCall: sendSetSize: 0 deInUse: 0 bcInUse: 0 deSending: 0
   1192 3E 08              4445 	ld	a,#0x08
   1194 F5                 4446 	push	af
   1195 33                 4447 	inc	sp
                           4448 ;	genCall
   1196 CD 00 00           4449 	call	_sprite_clean
   1199 E8 01              4450 	lda	sp,1(sp)
                           4451 ;	level_1/level_1.c 570
                           4452 ;	genAssign
                           4453 ;	AOP_HL for _LETTER_COUNT
   119B 21 00 00           4454 	ld	hl,#_LETTER_COUNT
   119E 36 08              4455 	ld	(hl),#0x08
                           4456 ;	level_1/level_1.c 571
                           4457 ;	genIpush
                           4458 ; _saveRegsForCall: sendSetSize: 0 deInUse: 0 bcInUse: 0 deSending: 0
   11A0 21 18 30           4459 	ld	hl,#0x3018
   11A3 E5                 4460 	push	hl
                           4461 ;	genIpush
   11A4 21 D7 13           4462 	ld	hl,#__str_34
   11A7 E5                 4463 	push	hl
                           4464 ;	genCall
   11A8 CD 00 00           4465 	call	_print
   11AB E8 04              4466 	lda	sp,4(sp)
                           4467 ;	genLabel
   11AD                    4468 00128$:
                           4469 ;	level_1/level_1.c 573
                           4470 ;	genCmpEq
                           4471 ;	AOP_HL for _talking
                           4472 ; genCmpEq: left 1, right 1, result 0
   11AD 21 00 00           4473 	ld	hl,#_talking
   11B0 7E                 4474 	ld	a,(hl)
   11B1 FE 10              4475 	cp	a,#0x10
   11B3 C2 D6 11           4476 	jp	nz,00130$
   11B6 18 03              4477 	jr	00192$
   11B8                    4478 00191$:
   11B8 C3 D6 11           4479 	jp	00130$
   11BB                    4480 00192$:
                           4481 ;	level_1/level_1.c 575
                           4482 ;	genIpush
                           4483 ; _saveRegsForCall: sendSetSize: 0 deInUse: 0 bcInUse: 0 deSending: 0
   11BB 3E 08              4484 	ld	a,#0x08
   11BD F5                 4485 	push	af
   11BE 33                 4486 	inc	sp
                           4487 ;	genCall
   11BF CD 00 00           4488 	call	_sprite_clean
   11C2 E8 01              4489 	lda	sp,1(sp)
                           4490 ;	level_1/level_1.c 576
                           4491 ;	genAssign
                           4492 ;	AOP_HL for _LETTER_COUNT
   11C4 21 00 00           4493 	ld	hl,#_LETTER_COUNT
   11C7 36 08              4494 	ld	(hl),#0x08
                           4495 ;	level_1/level_1.c 577
                           4496 ;	genIpush
                           4497 ; _saveRegsForCall: sendSetSize: 0 deInUse: 0 bcInUse: 0 deSending: 0
   11C9 21 18 30           4498 	ld	hl,#0x3018
   11CC E5                 4499 	push	hl
                           4500 ;	genIpush
   11CD 21 E5 13           4501 	ld	hl,#__str_35
   11D0 E5                 4502 	push	hl
                           4503 ;	genCall
   11D1 CD 00 00           4504 	call	_print
   11D4 E8 04              4505 	lda	sp,4(sp)
                           4506 ;	genLabel
   11D6                    4507 00130$:
                           4508 ;	level_1/level_1.c 579
                           4509 ;	genCmpEq
                           4510 ;	AOP_HL for _talking
                           4511 ; genCmpEq: left 1, right 1, result 0
   11D6 21 00 00           4512 	ld	hl,#_talking
   11D9 7E                 4513 	ld	a,(hl)
   11DA FE 11              4514 	cp	a,#0x11
   11DC C2 FF 11           4515 	jp	nz,00132$
   11DF 18 03              4516 	jr	00194$
   11E1                    4517 00193$:
   11E1 C3 FF 11           4518 	jp	00132$
   11E4                    4519 00194$:
                           4520 ;	level_1/level_1.c 581
                           4521 ;	genIpush
                           4522 ; _saveRegsForCall: sendSetSize: 0 deInUse: 0 bcInUse: 0 deSending: 0
   11E4 3E 08              4523 	ld	a,#0x08
   11E6 F5                 4524 	push	af
   11E7 33                 4525 	inc	sp
                           4526 ;	genCall
   11E8 CD 00 00           4527 	call	_sprite_clean
   11EB E8 01              4528 	lda	sp,1(sp)
                           4529 ;	level_1/level_1.c 582
                           4530 ;	genAssign
                           4531 ;	AOP_HL for _LETTER_COUNT
   11ED 21 00 00           4532 	ld	hl,#_LETTER_COUNT
   11F0 36 08              4533 	ld	(hl),#0x08
                           4534 ;	level_1/level_1.c 583
                           4535 ;	genIpush
                           4536 ; _saveRegsForCall: sendSetSize: 0 deInUse: 0 bcInUse: 0 deSending: 0
   11F2 21 18 30           4537 	ld	hl,#0x3018
   11F5 E5                 4538 	push	hl
                           4539 ;	genIpush
   11F6 21 00 14           4540 	ld	hl,#__str_36
   11F9 E5                 4541 	push	hl
                           4542 ;	genCall
   11FA CD 00 00           4543 	call	_print
   11FD E8 04              4544 	lda	sp,4(sp)
                           4545 ;	genLabel
   11FF                    4546 00132$:
                           4547 ;	level_1/level_1.c 585
                           4548 ;	genCmpEq
                           4549 ;	AOP_HL for _talking
                           4550 ; genCmpEq: left 1, right 1, result 0
   11FF 21 00 00           4551 	ld	hl,#_talking
   1202 7E                 4552 	ld	a,(hl)
   1203 FE 12              4553 	cp	a,#0x12
   1205 C2 27 0F           4554 	jp	nz,00137$
   1208 18 03              4555 	jr	00196$
   120A                    4556 00195$:
   120A C3 27 0F           4557 	jp	00137$
   120D                    4558 00196$:
                           4559 ;	level_1/level_1.c 587
                           4560 ;	genIpush
                           4561 ; _saveRegsForCall: sendSetSize: 0 deInUse: 0 bcInUse: 0 deSending: 0
   120D 3E 00              4562 	ld	a,#0x00
   120F F5                 4563 	push	af
   1210 33                 4564 	inc	sp
                           4565 ;	genCall
   1211 CD 00 00           4566 	call	_sprite_clean
   1214 E8 01              4567 	lda	sp,1(sp)
                           4568 ;	level_1/level_1.c 588
                           4569 ;	genAssign
                           4570 ;	AOP_HL for _LETTER_COUNT
   1216 21 00 00           4571 	ld	hl,#_LETTER_COUNT
   1219 36 00              4572 	ld	(hl),#0x00
                           4573 ;	level_1/level_1.c 590
                           4574 ;	genCall
                           4575 ; _saveRegsForCall: sendSetSize: 0 deInUse: 0 bcInUse: 0 deSending: 0
   121B CD 00 00           4576 	call	_display_off
                           4577 ;	level_1/level_1.c 591
                           4578 ;	genCall
                           4579 ; _saveRegsForCall: sendSetSize: 0 deInUse: 0 bcInUse: 0 deSending: 0
   121E CD 00 00           4580 	call	_clear_screen
                           4581 ;	level_1/level_1.c 592
                           4582 ;	genIpush
                           4583 ; _saveRegsForCall: sendSetSize: 0 deInUse: 0 bcInUse: 0 deSending: 0
   1221 21 40 20           4584 	ld	hl,#0x2040
   1224 E5                 4585 	push	hl
                           4586 ;	genIpush
   1225 21 20 14           4587 	ld	hl,#__str_37
   1228 E5                 4588 	push	hl
                           4589 ;	genCall
   1229 CD 00 00           4590 	call	_print
   122C E8 04              4591 	lda	sp,4(sp)
                           4592 ;	level_1/level_1.c 593
                           4593 ;	genIpush
                           4594 ; _saveRegsForCall: sendSetSize: 0 deInUse: 0 bcInUse: 0 deSending: 0
   122E 21 38 30           4595 	ld	hl,#0x3038
   1231 E5                 4596 	push	hl
                           4597 ;	genIpush
   1232 21 26 14           4598 	ld	hl,#__str_38
   1235 E5                 4599 	push	hl
                           4600 ;	genCall
   1236 CD 00 00           4601 	call	_print
   1239 E8 04              4602 	lda	sp,4(sp)
                           4603 ;	level_1/level_1.c 594
                           4604 ;	genAssign
   123B 01 40 FF           4605 	ld	bc,#0xFF40
                           4606 ;	genAssign
                           4607 ;	AOP_STK for _l1_scene_3_sloc0_1_0
   123E F8 01              4608 	lda	hl,1(sp)
   1240 36 40              4609 	ld	(hl),#0x40
   1242 23                 4610 	inc	hl
   1243 36 FF              4611 	ld	(hl),#0xFF
                           4612 ;	genPointerGet
                           4613 ;	AOP_STK for _l1_scene_3_sloc0_1_0
                           4614 ;	AOP_STK for _l1_scene_3_sloc1_1_0
   1245 2B                 4615 	dec	hl
   1246 5E                 4616 	ld	e,(hl)
   1247 23                 4617 	inc	hl
   1248 56                 4618 	ld	d,(hl)
   1249 1A                 4619 	ld	a,(de)
   124A 2B                 4620 	dec	hl
   124B 2B                 4621 	dec	hl
                           4622 ;	genOr
                           4623 ;	AOP_STK for _l1_scene_3_sloc1_1_0
   124C 77                 4624 	ld      (hl),a
                           4625 ; Removed redundent load
   124D F6 80              4626 	or	a,#0x80
                           4627 ;	genAssign (pointer)
   124F 02                 4628 	ld	(bc),a
                           4629 ;	level_1/level_1.c 595
                           4630 ;	genIpush
                           4631 ; _saveRegsForCall: sendSetSize: 0 deInUse: 0 bcInUse: 0 deSending: 0
   1250 21 64 00           4632 	ld	hl,#0x0064
   1253 E5                 4633 	push	hl
                           4634 ;	genCall
   1254 CD 00 00           4635 	call	_delay
   1257 E8 02              4636 	lda	sp,2(sp)
                           4637 ;	level_1/level_1.c 596
                           4638 ;	genCall
                           4639 ; _saveRegsForCall: sendSetSize: 0 deInUse: 0 bcInUse: 0 deSending: 0
   1259 CD 00 00           4640 	call	_display_off
                           4641 ;	level_1/level_1.c 597
                           4642 ;	genIpush
                           4643 ; _saveRegsForCall: sendSetSize: 0 deInUse: 0 bcInUse: 0 deSending: 0
   125C 21 64 00           4644 	ld	hl,#0x0064
   125F E5                 4645 	push	hl
                           4646 ;	genCall
   1260 CD 00 00           4647 	call	_delay
   1263 E8 02              4648 	lda	sp,2(sp)
                           4649 ;	level_1/level_1.c 598
                           4650 ;	genAssign
   1265 01 40 FF           4651 	ld	bc,#0xFF40
                           4652 ;	genAssign
                           4653 ;	AOP_STK for _l1_scene_3_sloc0_1_0
   1268 F8 01              4654 	lda	hl,1(sp)
   126A 36 40              4655 	ld	(hl),#0x40
   126C 23                 4656 	inc	hl
   126D 36 FF              4657 	ld	(hl),#0xFF
                           4658 ;	genPointerGet
                           4659 ;	AOP_STK for _l1_scene_3_sloc0_1_0
                           4660 ;	AOP_STK for _l1_scene_3_sloc1_1_0
   126F 2B                 4661 	dec	hl
   1270 5E                 4662 	ld	e,(hl)
   1271 23                 4663 	inc	hl
   1272 56                 4664 	ld	d,(hl)
   1273 1A                 4665 	ld	a,(de)
   1274 2B                 4666 	dec	hl
   1275 2B                 4667 	dec	hl
                           4668 ;	genOr
                           4669 ;	AOP_STK for _l1_scene_3_sloc1_1_0
   1276 77                 4670 	ld      (hl),a
                           4671 ; Removed redundent load
   1277 F6 80              4672 	or	a,#0x80
                           4673 ;	genAssign (pointer)
   1279 02                 4674 	ld	(bc),a
                           4675 ;	level_1/level_1.c 599
                           4676 ;	genIpush
                           4677 ; _saveRegsForCall: sendSetSize: 0 deInUse: 0 bcInUse: 0 deSending: 0
   127A 21 64 00           4678 	ld	hl,#0x0064
   127D E5                 4679 	push	hl
                           4680 ;	genCall
   127E CD 00 00           4681 	call	_delay
   1281 E8 02              4682 	lda	sp,2(sp)
                           4683 ;	level_1/level_1.c 600
                           4684 ;	genCall
                           4685 ; _saveRegsForCall: sendSetSize: 0 deInUse: 0 bcInUse: 0 deSending: 0
   1283 CD 00 00           4686 	call	_display_off
                           4687 ;	level_1/level_1.c 601
                           4688 ;	genIpush
                           4689 ; _saveRegsForCall: sendSetSize: 0 deInUse: 0 bcInUse: 0 deSending: 0
   1286 21 64 00           4690 	ld	hl,#0x0064
   1289 E5                 4691 	push	hl
                           4692 ;	genCall
   128A CD 00 00           4693 	call	_delay
   128D E8 02              4694 	lda	sp,2(sp)
                           4695 ;	level_1/level_1.c 602
                           4696 ;	genAssign
   128F 01 40 FF           4697 	ld	bc,#0xFF40
                           4698 ;	genAssign
                           4699 ;	AOP_STK for _l1_scene_3_sloc0_1_0
   1292 F8 01              4700 	lda	hl,1(sp)
   1294 36 40              4701 	ld	(hl),#0x40
   1296 23                 4702 	inc	hl
   1297 36 FF              4703 	ld	(hl),#0xFF
                           4704 ;	genPointerGet
                           4705 ;	AOP_STK for _l1_scene_3_sloc0_1_0
                           4706 ;	AOP_STK for _l1_scene_3_sloc1_1_0
   1299 2B                 4707 	dec	hl
   129A 5E                 4708 	ld	e,(hl)
   129B 23                 4709 	inc	hl
   129C 56                 4710 	ld	d,(hl)
   129D 1A                 4711 	ld	a,(de)
   129E 2B                 4712 	dec	hl
   129F 2B                 4713 	dec	hl
                           4714 ;	genOr
                           4715 ;	AOP_STK for _l1_scene_3_sloc1_1_0
   12A0 77                 4716 	ld      (hl),a
                           4717 ; Removed redundent load
   12A1 F6 80              4718 	or	a,#0x80
                           4719 ;	genAssign (pointer)
   12A3 02                 4720 	ld	(bc),a
                           4721 ;	level_1/level_1.c 603
                           4722 ;	genIpush
                           4723 ; _saveRegsForCall: sendSetSize: 0 deInUse: 0 bcInUse: 0 deSending: 0
   12A4 21 2C 01           4724 	ld	hl,#0x012C
   12A7 E5                 4725 	push	hl
                           4726 ;	genCall
   12A8 CD 00 00           4727 	call	_delay
   12AB E8 02              4728 	lda	sp,2(sp)
                           4729 ;	level_1/level_1.c 604
                           4730 ;	genLabel
   12AD                    4731 00140$:
                           4732 ;	genEndFunction
   12AD E8 03              4733 	lda	sp,3(sp)
   12AF C9                 4734 	ret
   12B0                    4735 ___l1_scene_3_end:
   12B0                    4736 __str_21:
   12B0 4E 45 45 44 4C 45  4737 	.ascii "NEEDLESS"
        53 53
   12B8 0A                 4738 	.db 0x0A
   12B9 54 4F 69 53 41 59  4739 	.ascii "TOiSAYf"
        66
   12C0 00                 4740 	.db 0x00
   12C1                    4741 __str_22:
   12C1 54 48 49 53 69 53  4742 	.ascii "THISiSHIP"
        48 49 50
   12CA 0A                 4743 	.db 0x0A
   12CB 49 53 69 4F 46 69  4744 	.ascii "ISiOFiTHE"
        54 48 45
   12D4 00                 4745 	.db 0x00
   12D5                    4746 __str_23:
   12D5 55 54 4D 4F 53 54  4747 	.ascii "UTMOST"
   12DB 0A                 4748 	.db 0x0A
   12DC 43 4F 4E 43 45 52  4749 	.ascii "CONCERN"
        4E
   12E3 00                 4750 	.db 0x00
   12E4                    4751 __str_24:
   12E4 41 53              4752 	.ascii "AS"
   12E6 0A                 4753 	.db 0x0A
   12E7 50 45 4F 50 4C 45  4754 	.ascii "PEOPLES"
        53
   12EE 0A                 4755 	.db 0x0A
   12EF 4F 46              4756 	.ascii "OF"
   12F1 0A                 4757 	.db 0x0A
   12F2 49 4D 50 45 52 49  4758 	.ascii "IMPERIAL"
        41 4C
   12FA 0A                 4759 	.db 0x0A
   12FB 4A 41 50 41 4E 66  4760 	.ascii "JAPANf"
   1301 00                 4761 	.db 0x00
   1302                    4762 __str_25:
   1302 57 45 69 41 52 45  4763 	.ascii "WEiARE"
   1308 0A                 4764 	.db 0x0A
   1309 50 52 4F 55 44     4765 	.ascii "PROUD"
   130E 0A                 4766 	.db 0x0A
   130F 52 49 56 41 4C 53  4767 	.ascii "RIVALS"
   1315 0A                 4768 	.db 0x0A
   1316 4F 46 69 52 55 53  4769 	.ascii "OFiRUSSIAl"
        53 49 41 6C
   1320 00                 4770 	.db 0x00
   1321                    4771 __str_26:
   1321 54 48 45 52 45 6B  4772 	.ascii "THEREkSiAN"
        53 69 41 4E
   132B 0A                 4773 	.db 0x0A
   132C 49 4D 50 45 52 49  4774 	.ascii "IMPERIAL"
        41 4C
   1334 0A                 4775 	.db 0x0A
   1335 53 48 49 50        4776 	.ascii "SHIP"
   1339 00                 4777 	.db 0x00
   133A                    4778 __str_27:
   133A 54 4F              4779 	.ascii "TO"
   133C 0A                 4780 	.db 0x0A
   133D 50 52 4F 54 45 43  4781 	.ascii "PROTECTiUS"
        54 69 55 53
   1347 00                 4782 	.db 0x00
   1348                    4783 __str_28:
   1348 41 53 69 41        4784 	.ascii "ASiA"
   134C 0A                 4785 	.db 0x0A
   134D 4E 41 54 49 4F 4E  4786 	.ascii "NATIONiOF"
        69 4F 46
   1356 0A                 4787 	.db 0x0A
   1357 45 58 43 45 4C 4C  4788 	.ascii "EXCELLENCE"
        45 4E 43 45
   1361 00                 4789 	.db 0x00
   1362                    4790 __str_29:
   1362 57 45 69 41 52 45  4791 	.ascii "WEiARE"
   1368 0A                 4792 	.db 0x0A
   1369 55 4E 4D 41 54 43  4793 	.ascii "UNMATCHED"
        48 45 44
   1372 00                 4794 	.db 0x00
   1373                    4795 __str_30:
   1373 57 48 45 4E        4796 	.ascii "WHEN"
   1377 0A                 4797 	.db 0x0A
   1378 43 4F 4D 50 41 52  4798 	.ascii "COMPARED"
        45 44
   1380 0A                 4799 	.db 0x0A
   1381 54 4F 69 4F 54 48  4800 	.ascii "TOiOTHERSl"
        45 52 53 6C
   138B 00                 4801 	.db 0x00
   138C                    4802 __str_31:
   138C 46 52 4F 4D 69 54  4803 	.ascii "FROMiTHE"
        48 45
   1394 0A                 4804 	.db 0x0A
   1395 43 52 4F 57 44     4805 	.ascii "CROWD"
   139A 0A                 4806 	.db 0x0A
   139B 53 4F 4D 45 4F 4E  4807 	.ascii "SOMEONE"
        45
   13A2 0A                 4808 	.db 0x0A
   13A3 4D 55 52 4D 55 52  4809 	.ascii "MURMURSf"
        53 66
   13AB 00                 4810 	.db 0x00
   13AC                    4811 __str_32:
   13AC 54 48 41 54 6B 53  4812 	.ascii "THATkS"
   13B2 0A                 4813 	.db 0x0A
   13B3 45 58 41 47 45 52  4814 	.ascii "EXAGERATED"
        41 54 45 44
   13BD 0A                 4815 	.db 0x0A
   13BE 65 65 65           4816 	.ascii "eee"
   13C1 00                 4817 	.db 0x00
   13C2                    4818 __str_33:
   13C2 54 48 49 53 69 4B  4819 	.ascii "THISiKIND"
        49 4E 44
   13CB 0A                 4820 	.db 0x0A
   13CC 4F 46 69 54 41 4C  4821 	.ascii "OFiTALKiIS"
        4B 69 49 53
   13D6 00                 4822 	.db 0x00
   13D7                    4823 __str_34:
   13D7 4E 4F 54           4824 	.ascii "NOT"
   13DA 0A                 4825 	.db 0x0A
   13DB 54 4F 4C 45 52 41  4826 	.ascii "TOLERABLE"
        42 4C 45
   13E4 00                 4827 	.db 0x00
   13E5                    4828 __str_35:
   13E5 54 48 49 53        4829 	.ascii "THIS"
   13E9 0A                 4830 	.db 0x0A
   13EA 41 54 54 49 54 55  4831 	.ascii "ATTITUDE"
        44 45
   13F2 0A                 4832 	.db 0x0A
   13F3 49 53              4833 	.ascii "IS"
   13F5 0A                 4834 	.db 0x0A
   13F6 4D 55 54 49 4E 4F  4835 	.ascii "MUTINOUSf"
        55 53 66
   13FF 00                 4836 	.db 0x00
   1400                    4837 __str_36:
   1400 41 4E 44 69 57 49  4838 	.ascii "ANDiWILL"
        4C 4C
   1408 0A                 4839 	.db 0x0A
   1409 42 45              4840 	.ascii "BE"
   140B 0A                 4841 	.db 0x0A
   140C 43 4F 4E 53 49 44  4842 	.ascii "CONSIDERED"
        45 52 45 44
   1416 0A                 4843 	.db 0x0A
   1417 54 52 45 41 53 4F  4844 	.ascii "TREASONl"
        4E 6C
   141F 00                 4845 	.db 0x00
   1420                    4846 __str_37:
   1420 46 49 47 48 54     4847 	.ascii "FIGHT"
   1425 00                 4848 	.db 0x00
   1426                    4849 __str_38:
   1426 41 53 41 4B 41 57  4850 	.ascii "ASAKAWA"
        41
   142D 00                 4851 	.db 0x00
                           4852 ;	level_1/level_1.c 610
                           4853 ;	genLabel
                           4854 ;	genFunction
                           4855 ;	---------------------------------
                           4856 ; Function asakawa_shoots_anim
                           4857 ; ---------------------------------
   142E                    4858 ___asakawa_shoots_anim_start:
   142E                    4859 _asakawa_shoots_anim:
                           4860 	
                           4861 ;	level_1/level_1.c 612
                           4862 ;	genIpush
                           4863 ; _saveRegsForCall: sendSetSize: 0 deInUse: 0 bcInUse: 0 deSending: 0
   142E 21 00 00           4864 	ld	hl,#_asakawa_air_shot
   1431 E5                 4865 	push	hl
                           4866 ;	genIpush
   1432 21 20 20           4867 	ld	hl,#0x2020
   1435 E5                 4868 	push	hl
                           4869 ;	genCall
   1436 CD 00 00           4870 	call	_set_sprite_data
   1439 E8 04              4871 	lda	sp,4(sp)
                           4872 ;	level_1/level_1.c 613
                           4873 ;	genAssign
                           4874 ;	AOP_HL for _anim_1
   143B 21 00 00           4875 	ld	hl,#_anim_1
   143E 36 20              4876 	ld	(hl),#0x20
                           4877 ;	level_1/level_1.c 614
                           4878 ;	genAssign
                           4879 ;	AOP_HL for _anim_2
   1440 21 00 00           4880 	ld	hl,#_anim_2
   1443 36 22              4881 	ld	(hl),#0x22
                           4882 ;	level_1/level_1.c 616
                           4883 ;	genAssign
                           4884 ;	AOP_HL for _i
   1445 21 00 00           4885 	ld	hl,#_i
   1448 36 00              4886 	ld	(hl),#0x00
                           4887 ;	genLabel
   144A                    4888 00101$:
                           4889 ;	genCmpLt
                           4890 ;	AOP_HL for _i
   144A 21 00 00           4891 	ld	hl,#_i
   144D 7E                 4892 	ld	a,(hl)
   144E FE 07              4893 	cp	#0x07
   1450 D2 8D 14           4894 	jp	nc,00104$
                           4895 ;	level_1/level_1.c 618
                           4896 ;	genPlus
                           4897 ;	AOP_HL for _anim_1
                           4898 ;	genPlusIncr
   1453 21 00 00           4899 	ld	hl,#_anim_1
   1456 4E                 4900 	ld	c,(hl)
   1457 0C                 4901 	inc	c
   1458 0C                 4902 	inc	c
   1459 0C                 4903 	inc	c
   145A 0C                 4904 	inc	c
                           4905 ;	genAssign
                           4906 ;	AOP_HL for _anim_1
   145B 71                 4907 	ld	(hl),c
                           4908 ;	genIpush
                           4909 ; _saveRegsForCall: sendSetSize: 0 deInUse: 0 bcInUse: 0 deSending: 0
   145C 79                 4910 	ld	a,c
   145D F5                 4911 	push	af
   145E 33                 4912 	inc	sp
                           4913 ;	genIpush
   145F 3E 08              4914 	ld	a,#0x08
   1461 F5                 4915 	push	af
   1462 33                 4916 	inc	sp
                           4917 ;	genCall
   1463 CD 00 00           4918 	call	_set_sprite_tile
   1466 E8 02              4919 	lda	sp,2(sp)
                           4920 ;	level_1/level_1.c 619
                           4921 ;	genPlus
                           4922 ;	AOP_HL for _anim_2
                           4923 ;	genPlusIncr
   1468 21 00 00           4924 	ld	hl,#_anim_2
   146B 4E                 4925 	ld	c,(hl)
   146C 0C                 4926 	inc	c
   146D 0C                 4927 	inc	c
   146E 0C                 4928 	inc	c
   146F 0C                 4929 	inc	c
                           4930 ;	genAssign
                           4931 ;	AOP_HL for _anim_2
   1470 71                 4932 	ld	(hl),c
                           4933 ;	genIpush
                           4934 ; _saveRegsForCall: sendSetSize: 0 deInUse: 0 bcInUse: 0 deSending: 0
   1471 79                 4935 	ld	a,c
   1472 F5                 4936 	push	af
   1473 33                 4937 	inc	sp
                           4938 ;	genIpush
   1474 3E 09              4939 	ld	a,#0x09
   1476 F5                 4940 	push	af
   1477 33                 4941 	inc	sp
                           4942 ;	genCall
   1478 CD 00 00           4943 	call	_set_sprite_tile
   147B E8 02              4944 	lda	sp,2(sp)
                           4945 ;	level_1/level_1.c 620
                           4946 ;	genIpush
                           4947 ; _saveRegsForCall: sendSetSize: 0 deInUse: 0 bcInUse: 0 deSending: 0
   147D 21 F4 01           4948 	ld	hl,#0x01F4
   1480 E5                 4949 	push	hl
                           4950 ;	genCall
   1481 CD 00 00           4951 	call	_delay
   1484 E8 02              4952 	lda	sp,2(sp)
                           4953 ;	level_1/level_1.c 616
                           4954 ;	genPlus
                           4955 ;	AOP_HL for _i
                           4956 ;	genPlusIncr
   1486 21 00 00           4957 	ld	hl,#_i
   1489 34                 4958 	inc	(hl)
                           4959 ;	genGoto
   148A C3 4A 14           4960 	jp	00101$
                           4961 ;	genLabel
   148D                    4962 00104$:
                           4963 ;	level_1/level_1.c 622
                           4964 ;	genIpush
                           4965 ; _saveRegsForCall: sendSetSize: 0 deInUse: 0 bcInUse: 0 deSending: 0
   148D 21 F4 01           4966 	ld	hl,#0x01F4
   1490 E5                 4967 	push	hl
                           4968 ;	genCall
   1491 CD 00 00           4969 	call	_delay
   1494 E8 02              4970 	lda	sp,2(sp)
                           4971 ;	genLabel
   1496                    4972 00105$:
                           4973 ;	genEndFunction
                           4974 	
   1496 C9                 4975 	ret
   1497                    4976 ___asakawa_shoots_anim_end:
                           4977 	.area _CODE
ASxxxx Assembler V01.75  (GameBoy Z80-like CPU), page 1.

Symbol Table

    _ENEMY                             **** GX
    _LETTER_COUNT                      **** GX
  0 ___asakawa_shoots_anim_end         1497 R
  0 ___asakawa_shoots_anim_start       142E R
  0 ___enter_miner_end                 06B7 R
  0 ___enter_miner_start               0549 R
  0 ___l1_scene_1_end                  03B3 R
  0 ___l1_scene_1_start                022B R
  0 ___l1_scene_3_animate_end          0EC7 R
  0 ___l1_scene_3_animate_start        0D0F R
  0 ___l1_scene_3_end                  12B0 R
  0 ___l1_scene_3_setup_end            0D0F R
  0 ___l1_scene_3_setup_start          0A81 R
  0 ___l1_scene_3_start                0F20 R
  0 ___l1_scene_3_text_setup_end       0F09 R
  0 ___l1_scene_3_text_setup_start     0EC7 R
  0 ___level_1_bkg_start_end           01F8 R
  0 ___level_1_bkg_start_start         007D R
  0 ___level_1_ctrl_end                007D R
  0 ___level_1_ctrl_start              0000 R
  0 ___level_1_sprite_setup_end        0549 R
  0 ___level_1_sprite_setup_start      043D R
  0 ___miner_intro_end                 0984 R
  0 ___miner_intro_setup_end           0752 R
  0 ___miner_intro_setup_start         06B7 R
  0 ___miner_intro_start               0775 R
  0 __str_0                            01F8 R
  0 __str_1                            0212 R
  0 __str_10                           09A2 R
  0 __str_11                           09B0 R
  0 __str_12                           09D1 R
  0 __str_13                           09EB R
  0 __str_14                           09FF R
  0 __str_15                           0A14 R
  0 __str_16                           0A2F R
  0 __str_17                           0A3D R
  0 __str_18                           0A5C R
  0 __str_19                           0A69 R
  0 __str_2                            03B3 R
  0 __str_20                           0F09 R
  0 __str_21                           12B0 R
  0 __str_22                           12C1 R
  0 __str_23                           12D5 R
  0 __str_24                           12E4 R
  0 __str_25                           1302 R
  0 __str_26                           1321 R
  0 __str_27                           133A R
  0 __str_28                           1348 R
  0 __str_29                           1362 R
  0 __str_3                            03BF R
  0 __str_30                           1373 R
  0 __str_31                           138C R
  0 __str_32                           13AC R
  0 __str_33                           13C2 R
  0 __str_34                           13D7 R
  0 __str_35                           13E5 R
  0 __str_36                           1400 R
  0 __str_37                           1420 R
  0 __str_38                           1426 R
  0 __str_4                            03DB R
  0 __str_5                            03F8 R
  0 __str_6                            0413 R
  0 __str_7                            042C R
  0 __str_8                            0752 R
  0 __str_9                            0984 R
    _anim_1                            **** GX
    _anim_2                            **** GX
    _asakawa                           **** GX
    _asakawa_air_shot                  **** GX
    _asakawa_battle_ctrl               **** GX
    _asakawa_front_idle                **** GX
    _asakawa_posx                      **** GX
    _asakawa_posy                      **** GX
  0 _asakawa_shoots_anim               142E GR
    _bkg_clean                         **** GX
    _bkg_palette                       **** GX
    _blank_screen_tiles                **** GX
    _clear_screen                      **** GX
    _delay                             **** GX
    _display_off                       **** GX
  1 _dt                                0001 GR
  0 _enter_miner                       0549 GR
    _fisherman                         **** GX
    _fisherman_front_idle              **** GX
    _fisherman_idle_back               **** GX
    _fisherman_posx                    **** GX
    _fisherman_posy                    **** GX
    _hero_back_idle                    **** GX
    _hero_front_idle                   **** GX
    _hero_posx                         **** GX
    _hero_posy                         **** GX
    _hide_sprites                      **** GX
    _i                                 **** GX
    _joypad                            **** GX
  0 _l1_scene_1                        022B GR
  0 _l1_scene_3                        0F20 GR
  1 _l1_scene_3_anim                   0000 GR
  0 _l1_scene_3_animate                0D0F GR
  0 _l1_scene_3_setup                  0A81 GR
  0 _l1_scene_3_text_setup             0EC7 GR
  0 _level_1_bkg_start                 007D GR
  0 _level_1_ctrl                      0000 GR
  0 _level_1_sprite_setup              043D GR
    _miner                             **** GX
    _miner_idle_back                   **** GX
  0 _miner_intro                       0775 GR
  0 _miner_intro_setup                 06B7 GR
    _miner_posx                        **** GX
    _miner_posy                        **** GX
    _miner_walk_left                   **** GX
    _miner_walk_up                     **** GX
    _move_sprite                       **** GX
    _print                             **** GX
    _set_bkg_data                      **** GX
    _set_bkg_palette                   **** GX
    _set_bkg_tiles                     **** GX
    _set_sprite_data                   **** GX
    _set_sprite_palette                **** GX
    _set_sprite_prop                   **** GX
    _set_sprite_tile                   **** GX
    _shit_pot                          **** GX
    _sprite_clean                      **** GX
    _sprite_palette                    **** GX
    _sprite_width                      **** GX
    _student_idle_back                 **** GX
    _student_posx                      **** GX
    _student_posy                      **** GX
    _talking                           **** GX
    _wait_vbl_done                     **** GX
    _you_hear                          **** GX

ASxxxx Assembler V01.75  (GameBoy Z80-like CPU), page 2.

Area Table

   0 _CODE                              size 1497   flags 0
   1 _DATA                              size    3   flags 0
   2 _OVERLAY                           size    0   flags 0
   3 _ISEG                              size    0   flags 0
   4 _BSEG                              size    0   flags 0
   5 _XSEG                              size    0   flags 0
   6 _GSINIT                            size    D   flags 0
   7 _GSFINAL                           size    0   flags 0
   8 _HOME                              size    0   flags 0
