                              1 ;--------------------------------------------------------
                              2 ; File Created by SDCC : FreeWare ANSI-C Compiler
                              3 ; Version 2.3.1 Tue Feb 12 16:46:01 2019
                              4 
                              5 ;--------------------------------------------------------
                              6 	.module lcc71880
                              7 	
                              8 ;--------------------------------------------------------
                              9 ; Public variables in this module
                             10 ;--------------------------------------------------------
                             11 	.globl _main
                             12 	.globl _action
                             13 	.globl _fisherman_pos
                             14 	.globl _hero_pos
                             15 	.globl _text_count
                             16 	.globl _hero_front_idle
                             17 	.globl _shit_pot
                             18 	.globl _shit_pot_tiles
                             19 	.globl _text_3_level_1
                             20 	.globl _text_2_level_1
                             21 	.globl _text_1_level_1
                             22 	.globl _font
                             23 	.globl _level_1_screen
                             24 	.globl _level_1_screen_tiles
                             25 	.globl _choice
                             26 	.globl _option
                             27 	.globl _arrow_y
                             28 	.globl _arrow_x
                             29 	.globl _open_screen
                             30 	.globl _ship_tiles
                             31 	.globl _opening
                             32 	.globl _start_up
                             33 	.globl _check_pos
                             34 	.globl _setup_sprite
                             35 	.globl _setup_bkg
                             36 	.globl _level_1_ctrl
                             37 	.globl _level_1_bkg_start
                             38 	.globl _joypad_check
                             39 	.globl _output_text
                             40 	.globl _level_1_sprite_setup
                             41 ;--------------------------------------------------------
                             42 ; special function registers
                             43 ;--------------------------------------------------------
                             44 ;--------------------------------------------------------
                             45 ; special function bits 
                             46 ;--------------------------------------------------------
                             47 ;--------------------------------------------------------
                             48 ; internal ram data
                             49 ;--------------------------------------------------------
                             50 	.area _DATA
   0000                      51 _ship_tiles::
   0000                      52 	.ds 1424
   0590                      53 _open_screen::
   0590                      54 	.ds 1024
   0990                      55 _arrow_x::
   0990                      56 	.ds 1
   0991                      57 _arrow_y::
   0991                      58 	.ds 1
   0992                      59 _option::
   0992                      60 	.ds 2
   0994                      61 _choice::
   0994                      62 	.ds 2
   0996                      63 _level_1_screen_tiles::
   0996                      64 	.ds 640
   0C16                      65 _level_1_screen::
   0C16                      66 	.ds 360
   0D7E                      67 _font::
   0D7E                      68 	.ds 880
   10EE                      69 _text_1_level_1::
   10EE                      70 	.ds 360
   1256                      71 _text_2_level_1::
   1256                      72 	.ds 360
   13BE                      73 _text_3_level_1::
   13BE                      74 	.ds 360
   1526                      75 _shit_pot_tiles::
   1526                      76 	.ds 208
   15F6                      77 _shit_pot::
   15F6                      78 	.ds 1024
   19F6                      79 _hero_front_idle::
   19F6                      80 	.ds 128
   1A76                      81 _text_count::
   1A76                      82 	.ds 1
   1A77                      83 _hero_pos::
   1A77                      84 	.ds 4
   1A7B                      85 _fisherman_pos::
   1A7B                      86 	.ds 4
   1A7F                      87 _action::
   1A7F                      88 	.ds 1
                             89 ;--------------------------------------------------------
                             90 ; overlayable items in internal ram 
                             91 ;--------------------------------------------------------
                             92 	.area _OVERLAY
                             93 ;--------------------------------------------------------
                             94 ; indirectly addressable internal ram data
                             95 ;--------------------------------------------------------
                             96 	.area _ISEG
                             97 ;--------------------------------------------------------
                             98 ; bit data
                             99 ;--------------------------------------------------------
                            100 	.area _BSEG
                            101 ;--------------------------------------------------------
                            102 ; external ram data
                            103 ;--------------------------------------------------------
                            104 	.area _XSEG
                            105 ;--------------------------------------------------------
                            106 ; global & static initialisations
                            107 ;--------------------------------------------------------
                            108 	.area _GSINIT
                            109 	.area _GSFINAL
                            110 	.area _GSINIT
                            111 ;	main.c 26
                            112 ;	main.c 24
                            113 ;	genArrayInit
                            114 ; _saveRegsForCall: sendSetSize: 0 deInUse: 0 bcInUse: 0 deSending: 0
   0000 21 00 00            115 	ld	hl,#_ship_tiles
   0003 CD 00 00            116 	call	__initrleblock
   0006 1E                  117 	.db	30
   0007 FF FF FF 81 FF A1   118 	.db	0xFF, 0xFF, 0xFF, 0x81, 0xFF, 0xA1, 0xFF, 0x81
        FF 81
   000F FF 89 FF 81 FF A1   119 	.db	0xFF, 0x89, 0xFF, 0x81, 0xFF, 0xA1, 0xFF, 0x81
        FF 81
   0017 FF 81 FF A1 FF 81   120 	.db	0xFF, 0x81, 0xFF, 0xA1, 0xFF, 0x81, 0xFF, 0x89
        FF 89
   001F FF 81 FF A1 FF 81   121 	.db	0xFF, 0x81, 0xFF, 0xA1, 0xFF, 0x81
   0025 FB FF               122 	.db	-5,0xFF
   0027 0B                  123 	.db	11
   0028 80 FF 91 FF 80 FF   124 	.db	0x80, 0xFF, 0x91, 0xFF, 0x80, 0xFF, 0x84, 0xFF
        84 FF
   0030 80 FF 80            125 	.db	0x80, 0xFF, 0x80
   0033 FB FF               126 	.db	-5,0xFF
   0035 0D                  127 	.db	13
   0036 01 FF 11 FF 01 FF   128 	.db	0x01, 0xFF, 0x11, 0xFF, 0x01, 0xFF, 0x45, 0xFF
        45 FF
   003E 01 FF 01 FF FF      129 	.db	0x01, 0xFF, 0x01, 0xFF, 0xFF
   0043 F0 00               130 	.db	-16,0x00
   0045 1F                  131 	.db	31
   0046 FF 00 FF 00 FF 00   132 	.db	0xFF, 0x00, 0xFF, 0x00, 0xFF, 0x00, 0xFF, 0x00
        FF 00
   004E FF 00 FF 00 FF 00   133 	.db	0xFF, 0x00, 0xFF, 0x00, 0xFF, 0x00, 0xFF, 0x00
        FF 00
   0056 00 FF 00 FF 00 FF   134 	.db	0x00, 0xFF, 0x00, 0xFF, 0x00, 0xFF, 0x00, 0xFF
        00 FF
   005E 00 FF 00 FF 00 FF   135 	.db	0x00, 0xFF, 0x00, 0xFF, 0x00, 0xFF, 0x00
        00
   0065 EF FF               136 	.db	-17,0xFF
   0067 2F                  137 	.db	47
   0068 1C FF A2 FF 49 FF   138 	.db	0x1C, 0xFF, 0xA2, 0xFF, 0x49, 0xFF, 0x14, 0xFF
        14 FF
   0070 62 FF 81 FF 00 FF   139 	.db	0x62, 0xFF, 0x81, 0xFF, 0x00, 0xFF, 0x00, 0xFF
        00 FF
   0078 00 FF 01 FF 02 FF   140 	.db	0x00, 0xFF, 0x01, 0xFF, 0x02, 0xFF, 0x24, 0xFF
        24 FF
   0080 58 FF 80 FF 07 FF   141 	.db	0x58, 0xFF, 0x80, 0xFF, 0x07, 0xFF, 0x00, 0xFF
        00 FF
   0088 00 FF 00 FF E8 FF   142 	.db	0x00, 0xFF, 0x00, 0xFF, 0xE8, 0xFF, 0x15, 0xFF
        15 FF
   0090 22 FF C4 FF 08 FF   143 	.db	0x22, 0xFF, 0xC4, 0xFF, 0x08, 0xFF, 0x00
        00
   0097 F7 FF               144 	.db	-9,0xFF
   0099 6E                  145 	.db	110
   009A 7B FF 30 FF 0C FF   146 	.db	0x7B, 0xFF, 0x30, 0xFF, 0x0C, 0xFF, 0x00, 0xFF
        00 FF
   00A2 FF 00 FF 1B E4 24   147 	.db	0xFF, 0x00, 0xFF, 0x1B, 0xE4, 0x24, 0xC8, 0x48
        C8 48
   00AA 80 80 81 81 CA 4A   148 	.db	0x80, 0x80, 0x81, 0x81, 0xCA, 0x4A, 0xFF, 0x35
        FF 35
   00B2 FF 00 FF 00 FF 80   149 	.db	0xFF, 0x00, 0xFF, 0x00, 0xFF, 0x80, 0x7F, 0x40
        7F 40
   00BA 3F 20 3F 20 7F 40   150 	.db	0x3F, 0x20, 0x3F, 0x20, 0x7F, 0x40, 0xFF, 0x80
        FF 80
   00C2 FF FF AA FF AA FF   151 	.db	0xFF, 0xFF, 0xAA, 0xFF, 0xAA, 0xFF, 0xAA, 0xFF
        AA FF
   00CA AA FF AA FF AA FF   152 	.db	0xAA, 0xFF, 0xAA, 0xFF, 0xAA, 0xFF, 0xAA, 0xFF
        AA FF
   00D2 FF FF 55 FF 55 FF   153 	.db	0xFF, 0xFF, 0x55, 0xFF, 0x55, 0xFF, 0x55, 0xFF
        55 FF
   00DA 55 FF 55 FF 55 FF   154 	.db	0x55, 0xFF, 0x55, 0xFF, 0x55, 0xFF, 0x55, 0xFF
        55 FF
   00E2 AD FF A5 FF 95 FF   155 	.db	0xAD, 0xFF, 0xA5, 0xFF, 0x95, 0xFF, 0x91, 0xFF
        91 FF
   00EA 89 FF A9 FF A9 FF   156 	.db	0x89, 0xFF, 0xA9, 0xFF, 0xA9, 0xFF, 0xA5, 0xFF
        A5 FF
   00F2 FF FF 81 FF 93 FF   157 	.db	0xFF, 0xFF, 0x81, 0xFF, 0x93, 0xFF, 0x89, 0xFF
        89 FF
   00FA C9 FF 93 FF A5 FF   158 	.db	0xC9, 0xFF, 0x93, 0xFF, 0xA5, 0xFF, 0xAD, 0xFF
        AD FF
   0102 FF FF FF 99 FF 99   159 	.db	0xFF, 0xFF, 0xFF, 0x99, 0xFF, 0x99
   0108 FB FF               160 	.db	-5,0xFF
   010A 7F                  161 	.db	127
   010B 99 FF 99 FF FF FF   162 	.db	0x99, 0xFF, 0x99, 0xFF, 0xFF, 0xFF, 0x00, 0xFF
        00 FF
   0113 1F F3 1F F2 7F C7   163 	.db	0x1F, 0xF3, 0x1F, 0xF2, 0x7F, 0xC7, 0x7F, 0xC4
        7F C4
   011B 7F E0 7F FF 3F EF   164 	.db	0x7F, 0xE0, 0x7F, 0xFF, 0x3F, 0xEF, 0x10, 0xF0
        10 F0
   0123 0F F6 0F FC 0F F8   165 	.db	0x0F, 0xF6, 0x0F, 0xFC, 0x0F, 0xF8, 0x1F, 0x15
        1F 15
   012B FF C6 3F E3 3F E0   166 	.db	0xFF, 0xC6, 0x3F, 0xE3, 0x3F, 0xE0, 0x3F, 0xEC
        3F EC
   0133 7F CB FF 89 FF B8   167 	.db	0x7F, 0xCB, 0xFF, 0x89, 0xFF, 0xB8, 0xFF, 0xF9
        FF F9
   013B FF CF FF 82 FF FF   168 	.db	0xFF, 0xCF, 0xFF, 0x82, 0xFF, 0xFF, 0x00, 0xFF
        00 FF
   0143 00 FF 80 F3 8C 77   169 	.db	0x00, 0xFF, 0x80, 0xF3, 0x8C, 0x77, 0xE8, 0x27
        E8 27
   014B F8 6F F8 4C FF C5   170 	.db	0xF8, 0x6F, 0xF8, 0x4C, 0xFF, 0xC5, 0xFE, 0x81
        FE 81
   0153 FE 03 FE 3B FF 67   171 	.db	0xFE, 0x03, 0xFE, 0x3B, 0xFF, 0x67, 0xFF, 0xD5
        FF D5
   015B FF 1F FF 01 FF FF   172 	.db	0xFF, 0x1F, 0xFF, 0x01, 0xFF, 0xFF, 0x00, 0xFF
        00 FF
   0163 00 FF 00 FF 22 FF   173 	.db	0x00, 0xFF, 0x00, 0xFF, 0x22, 0xFF, 0x55, 0xFF
        55 FF
   016B 88 FF 00 FF 00 FF   174 	.db	0x88, 0xFF, 0x00, 0xFF, 0x00, 0xFF, 0x00, 0xFF
        00 FF
   0173 00 FF 00 FF 00 FF   175 	.db	0x00, 0xFF, 0x00, 0xFF, 0x00, 0xFF, 0x00, 0xFF
        00 FF
   017B 80 FF 00 FF 00 FF   176 	.db	0x80, 0xFF, 0x00, 0xFF, 0x00, 0xFF, 0xFF, 0xFF
        FF FF
   0183 80 FF AA FF 80 FF   177 	.db	0x80, 0xFF, 0xAA, 0xFF, 0x80, 0xFF, 0xA0
        A0
   018A 7F                  178 	.db	127
   018B FF 80 FF A0 FF 80   179 	.db	0xFF, 0x80, 0xFF, 0xA0, 0xFF, 0x80, 0xFF, 0xFF
        FF FF
   0193 FF 01 FF A9 FF 01   180 	.db	0xFF, 0x01, 0xFF, 0xA9, 0xFF, 0x01, 0xFF, 0x05
        FF 05
   019B FF 01 FF 05 FF 01   181 	.db	0xFF, 0x01, 0xFF, 0x05, 0xFF, 0x01, 0xFF, 0x05
        FF 05
   01A3 FF 11 FF 05 FF 01   182 	.db	0xFF, 0x11, 0xFF, 0x05, 0xFF, 0x01, 0xFF, 0x05
        FF 05
   01AB FF 51 FF 01 FF FF   183 	.db	0xFF, 0x51, 0xFF, 0x01, 0xFF, 0xFF, 0xFF, 0xA0
        FF A0
   01B3 FF 80 FF A0 FF 82   184 	.db	0xFF, 0x80, 0xFF, 0xA0, 0xFF, 0x82, 0xFF, 0xA0
        FF A0
   01BB FF 89 FF 80 FF FF   185 	.db	0xFF, 0x89, 0xFF, 0x80, 0xFF, 0xFF, 0x00, 0xFF
        00 FF
   01C3 00 FF 00 FF 84 FF   186 	.db	0x00, 0xFF, 0x00, 0xFF, 0x84, 0xFF, 0x4B, 0xFF
        4B FF
   01CB 30 FF 0C FF 00 FF   187 	.db	0x30, 0xFF, 0x0C, 0xFF, 0x00, 0xFF, 0xFF, 0x00
        FF 00
   01D3 FF 00 FF 00 FF 84   188 	.db	0xFF, 0x00, 0xFF, 0x00, 0xFF, 0x84, 0x7B, 0xCF
        7B CF
   01DB 30 FF 0C FF 00 FF   189 	.db	0x30, 0xFF, 0x0C, 0xFF, 0x00, 0xFF, 0x01, 0xFF
        01 FF
   01E3 01 FF 01 FF 01 FF   190 	.db	0x01, 0xFF, 0x01, 0xFF, 0x01, 0xFF, 0x01, 0xFF
        01 FF
   01EB 01 FF 01 FF 01 FF   191 	.db	0x01, 0xFF, 0x01, 0xFF, 0x01, 0xFF, 0xFF, 0x20
        FF 20
   01F3 FF 20 FF 20 FF 20   192 	.db	0xFF, 0x20, 0xFF, 0x20, 0xFF, 0x20, 0xFF, 0x20
        FF 20
   01FB FF 20 FF 20 FF 20   193 	.db	0xFF, 0x20, 0xFF, 0x20, 0xFF, 0x20, 0xFF, 0xFF
        FF FF
   0203 00 FF 00 FF 00 FF   194 	.db	0x00, 0xFF, 0x00, 0xFF, 0x00, 0xFF, 0x00
        00
   020A 34                  195 	.db	52
   020B FF 00 FF 00 FF FF   196 	.db	0xFF, 0x00, 0xFF, 0x00, 0xFF, 0xFF, 0xFF, 0x81
        FF 81
   0213 FF 81 FF 81 FF 81   197 	.db	0xFF, 0x81, 0xFF, 0x81, 0xFF, 0x81, 0xFF, 0x81
        FF 81
   021B FF 81 FF 81 FF 81   198 	.db	0xFF, 0x81, 0xFF, 0x81, 0xFF, 0x81, 0xFF, 0xFF
        FF FF
   0223 FF 81 FF 81 FF 81   199 	.db	0xFF, 0x81, 0xFF, 0x81, 0xFF, 0x81, 0xFF, 0x81
        FF 81
   022B FF 81 FF 81 FF 81   200 	.db	0xFF, 0x81, 0xFF, 0x81, 0xFF, 0x81, 0xFF, 0xFF
        FF FF
   0233 FF 80 FF 80 FF 80   201 	.db	0xFF, 0x80, 0xFF, 0x80, 0xFF, 0x80, 0xFF, 0x80
        FF 80
   023B FF 80 FF 80         202 	.db	0xFF, 0x80, 0xFF, 0x80
   023F FB FF               203 	.db	-5,0xFF
   0241 7F                  204 	.db	127
   0242 01 FF 01 FF 01 FF   205 	.db	0x01, 0xFF, 0x01, 0xFF, 0x01, 0xFF, 0x01, 0xFF
        01 FF
   024A 01 FF 01 FF FF FF   206 	.db	0x01, 0xFF, 0x01, 0xFF, 0xFF, 0xFF, 0xFF, 0x00
        FF 00
   0252 FF 00 FF 01 FF 01   207 	.db	0xFF, 0x00, 0xFF, 0x01, 0xFF, 0x01, 0xFF, 0x03
        FF 03
   025A FF 07 FF 05 FF 0D   208 	.db	0xFF, 0x07, 0xFF, 0x05, 0xFF, 0x0D, 0xFF, 0x1B
        FF 1B
   0262 FF 12 FF 3E F7 7F   209 	.db	0xFF, 0x12, 0xFF, 0x3E, 0xF7, 0x7F, 0x07, 0xFF
        07 FF
   026A F4 7F 5C FF CF 7F   210 	.db	0xF4, 0x7F, 0x5C, 0xFF, 0xCF, 0x7F, 0xFF, 0x60
        FF 60
   0272 FF F0 FF D0 FF D8   211 	.db	0xFF, 0xF0, 0xFF, 0xD0, 0xFF, 0xD8, 0xFF, 0xB8
        FF B8
   027A FF A8 FF A8 FF EC   212 	.db	0xFF, 0xA8, 0xFF, 0xA8, 0xFF, 0xEC, 0xFF, 0x7C
        FF 7C
   0282 FF 3E FF 2A FF 77   213 	.db	0xFF, 0x3E, 0xFF, 0x2A, 0xFF, 0x77, 0xFD, 0xFF
        FD FF
   028A D9 FF D8 FF D7 FF   214 	.db	0xD9, 0xFF, 0xD8, 0xFF, 0xD7, 0xFF, 0xE9, 0x7F
        E9 7F
   0292 BB 7F BE 5F 5E BF   215 	.db	0xBB, 0x7F, 0xBE, 0x5F, 0x5E, 0xBF, 0xEC, 0x13
        EC 13
   029A D2 2D DA 25 FF 00   216 	.db	0xD2, 0x2D, 0xDA, 0x25, 0xFF, 0x00, 0x9D, 0xFF
        9D FF
   02A2 F9 FF 4F FF CD FE   217 	.db	0xF9, 0xFF, 0x4F, 0xFF, 0xCD, 0xFE, 0xFD, 0xF2
        FD F2
   02AA FC 03 FD 02 FF 00   218 	.db	0xFC, 0x03, 0xFD, 0x02, 0xFF, 0x00, 0x80, 0xFF
        80 FF
   02B2 80 FF 80 FF 80 FF   219 	.db	0x80, 0xFF, 0x80, 0xFF, 0x80, 0xFF, 0x80, 0xFF
        80 FF
   02BA 80 FF 80 FF 80 FF   220 	.db	0x80, 0xFF, 0x80, 0xFF, 0x80, 0xFF, 0xFF
        FF
   02C1 7F                  221 	.db	127
   02C2 00 FF 00 FF 00 FF   222 	.db	0x00, 0xFF, 0x00, 0xFF, 0x00, 0xFF, 0x01, 0xFF
        01 FF
   02CA 01 FF 01 FF 01 FF   223 	.db	0x01, 0xFF, 0x01, 0xFF, 0x01, 0xFF, 0x0F, 0xFB
        0F FB
   02D2 0F F8 0F F8 0F F8   224 	.db	0x0F, 0xF8, 0x0F, 0xF8, 0x0F, 0xF8, 0x0F, 0xF8
        0F F8
   02DA 0F F9 0F FE 07 FC   225 	.db	0x0F, 0xF9, 0x0F, 0xFE, 0x07, 0xFC, 0x07, 0xFF
        07 FF
   02E2 00 FF 1F F1 FF 80   226 	.db	0x00, 0xFF, 0x1F, 0xF1, 0xFF, 0x80, 0xFF, 0x00
        FF 00
   02EA FF 09 FF 07 FF 23   227 	.db	0xFF, 0x09, 0xFF, 0x07, 0xFF, 0x23, 0xDF, 0x33
        DF 33
   02F2 CF 12 EF 37 CF 25   228 	.db	0xCF, 0x12, 0xEF, 0x37, 0xCF, 0x25, 0xDF, 0x2F
        DF 2F
   02FA DF 0F FF C0 FF 46   229 	.db	0xDF, 0x0F, 0xFF, 0xC0, 0xFF, 0x46, 0xF9, 0xFC
        F9 FC
   0302 07 FD 06 FD 06 FE   230 	.db	0x07, 0xFD, 0x06, 0xFD, 0x06, 0xFE, 0x07, 0xFE
        07 FE
   030A 07 FC 0F F8 1F F8   231 	.db	0x07, 0xFC, 0x0F, 0xF8, 0x1F, 0xF8, 0x1F, 0xF8
        1F F8
   0312 0F FC 07 FE 0F F8   232 	.db	0x0F, 0xFC, 0x07, 0xFE, 0x0F, 0xF8, 0x1F, 0xF0
        1F F0
   031A 1F F3 1C F1 1E F8   233 	.db	0x1F, 0xF3, 0x1C, 0xF1, 0x1E, 0xF8, 0x1F, 0x47
        1F 47
   0322 F8 27 F8 BC 73 D8   234 	.db	0xF8, 0x27, 0xF8, 0xBC, 0x73, 0xD8, 0x3F, 0x68
        3F 68
   032A 9F 3C CF 34 CF 25   235 	.db	0x9F, 0x3C, 0xCF, 0x34, 0xCF, 0x25, 0xDF, 0xEF
        DF EF
   0332 1F DB 3F 52 BF C2   236 	.db	0x1F, 0xDB, 0x3F, 0x52, 0xBF, 0xC2, 0x3F, 0x79
        3F 79
   033A 86 33 CC B5 4A 08   237 	.db	0x86, 0x33, 0xCC, 0xB5, 0x4A, 0x08, 0xF7
        F7
   0341 7F                  238 	.db	127
   0342 FF 03 FE 07 FC 87   239 	.db	0xFF, 0x03, 0xFE, 0x07, 0xFC, 0x87, 0xFC, 0xFF
        FC FF
   034A C4 FF C0 FF 40 FF   240 	.db	0xC4, 0xFF, 0xC0, 0xFF, 0x40, 0xFF, 0x42, 0xFF
        42 FF
   0352 77 EF CD F7 08 F7   241 	.db	0x77, 0xEF, 0xCD, 0xF7, 0x08, 0xF7, 0x00, 0xFF
        00 FF
   035A 1F FF 91 FF 90 FF   242 	.db	0x1F, 0xFF, 0x91, 0xFF, 0x90, 0xFF, 0x90, 0xFF
        90 FF
   0362 FF F0 9F 7C 17 EC   243 	.db	0xFF, 0xF0, 0x9F, 0x7C, 0x17, 0xEC, 0x47, 0xBC
        47 BC
   036A 07 FC E7 FC 87 FE   244 	.db	0x07, 0xFC, 0xE7, 0xFC, 0x87, 0xFE, 0xBB, 0xC6
        BB C6
   0372 FB 87 F9 BF 89 FF   245 	.db	0xFB, 0x87, 0xF9, 0xBF, 0x89, 0xFF, 0x89, 0xFF
        89 FF
   037A 93 FF BF FE 07 FE   246 	.db	0x93, 0xFF, 0xBF, 0xFE, 0x07, 0xFE, 0x03, 0xFF
        03 FF
   0382 F0 FF BA FD 8B FC   247 	.db	0xF0, 0xFF, 0xBA, 0xFD, 0x8B, 0xFC, 0x43, 0xFC
        43 FC
   038A 61 FE 71 FE CD FE   248 	.db	0x61, 0xFE, 0x71, 0xFE, 0xCD, 0xFE, 0x85, 0xFF
        85 FF
   0392 27 DF 03 FF 02 FF   249 	.db	0x27, 0xDF, 0x03, 0xFF, 0x02, 0xFF, 0x00, 0xFF
        00 FF
   039A C8 37 40 BF C3 3F   250 	.db	0xC8, 0x37, 0x40, 0xBF, 0xC3, 0x3F, 0x1F, 0xFC
        1F FC
   03A2 E3 1E E3 1E C7 3C   251 	.db	0xE3, 0x1E, 0xE3, 0x1E, 0xC7, 0x3C, 0x8F, 0x7C
        8F 7C
   03AA 1F FC 07 FE 83 FE   252 	.db	0x1F, 0xFC, 0x07, 0xFE, 0x83, 0xFE, 0xC7, 0xFE
        C7 FE
   03B2 27 FC 27 FC 3F FC   253 	.db	0x27, 0xFC, 0x27, 0xFC, 0x3F, 0xFC, 0x7F, 0xB0
        7F B0
   03BA 3F E0 7F E0 FF 80   254 	.db	0x3F, 0xE0, 0x7F, 0xE0, 0xFF, 0x80, 0xFF
        FF
   03C1 7F                  255 	.db	127
   03C2 00 FF 00 FF 3E E3   256 	.db	0x00, 0xFF, 0x00, 0xFF, 0x3E, 0xE3, 0x22, 0xE3
        22 E3
   03CA 23 E1 21 E0 20 E1   257 	.db	0x23, 0xE1, 0x21, 0xE0, 0x20, 0xE1, 0x21, 0xFD
        21 FD
   03D2 3D FC 24 FE 26 FF   258 	.db	0x3D, 0xFC, 0x24, 0xFE, 0x26, 0xFF, 0x23, 0xFF
        23 FF
   03DA 20 FF 20 FF 20 FF   259 	.db	0x20, 0xFF, 0x20, 0xFF, 0x20, 0xFF, 0x20, 0xFF
        20 FF
   03E2 20 FF 00 FF 00 FF   260 	.db	0x20, 0xFF, 0x00, 0xFF, 0x00, 0xFF, 0x1E, 0xF3
        1E F3
   03EA 72 C3 C2 03 02 C3   261 	.db	0x72, 0xC3, 0xC2, 0x03, 0x02, 0xC3, 0xC2, 0xC3
        C2 C3
   03F2 C2 0F 0E 3F 38 FF   262 	.db	0xC2, 0x0F, 0x0E, 0x3F, 0x38, 0xFF, 0xE0, 0xFF
        E0 FF
   03FA 00 FF 00 FF 00 FF   263 	.db	0x00, 0xFF, 0x00, 0xFF, 0x00, 0xFF, 0x00, 0xFF
        00 FF
   0402 00 FF 00 FF 03 FE   264 	.db	0x00, 0xFF, 0x00, 0xFF, 0x03, 0xFE, 0x03, 0xFE
        03 FE
   040A 03 FE 03 FE 03 FE   265 	.db	0x03, 0xFE, 0x03, 0xFE, 0x03, 0xFE, 0x03, 0xFE
        03 FE
   0412 03 FE 03 FE 03 FE   266 	.db	0x03, 0xFE, 0x03, 0xFE, 0x03, 0xFE, 0x03, 0xFE
        03 FE
   041A 03 FE 03 FE 0F FA   267 	.db	0x03, 0xFE, 0x03, 0xFE, 0x0F, 0xFA, 0x0F, 0xFA
        0F FA
   0422 0F FF 00 FF FF 00   268 	.db	0x0F, 0xFF, 0x00, 0xFF, 0xFF, 0x00, 0xFF, 0x00
        FF 00
   042A FF 00 FF 00 FF 00   269 	.db	0xFF, 0x00, 0xFF, 0x00, 0xFF, 0x00, 0xFF, 0x00
        FF 00
   0432 FF FF 00 FF E0 3F   270 	.db	0xFF, 0xFF, 0x00, 0xFF, 0xE0, 0x3F, 0xE0, 0x3F
        E0 3F
   043A E0 3F E0 3F E0 3F   271 	.db	0xE0, 0x3F, 0xE0, 0x3F, 0xE0, 0x3F, 0xE0
        E0
   0441 7F                  272 	.db	127
   0442 3F E0 3F E0 3F E0   273 	.db	0x3F, 0xE0, 0x3F, 0xE0, 0x3F, 0xE0, 0x3F, 0xE0
        3F E0
   044A 3F E0 3F E0 3F F8   274 	.db	0x3F, 0xE0, 0x3F, 0xE0, 0x3F, 0xF8, 0x2F, 0xF8
        2F F8
   0452 2F F8 FE 03 FE 03   275 	.db	0x2F, 0xF8, 0xFE, 0x03, 0xFE, 0x03, 0xFE, 0x03
        FE 03
   045A FE 03 FE 03 FE 03   276 	.db	0xFE, 0x03, 0xFE, 0x03, 0xFE, 0x03, 0xFE, 0x03
        FE 03
   0462 FE 03 7F C0 7F C0   277 	.db	0xFE, 0x03, 0x7F, 0xC0, 0x7F, 0xC0, 0x7F, 0xC0
        7F C0
   046A 7F C0 7F C0 7F C0   278 	.db	0x7F, 0xC0, 0x7F, 0xC0, 0x7F, 0xC0, 0x7F, 0xC0
        7F C0
   0472 7F C0 80 FF FF FF   279 	.db	0x7F, 0xC0, 0x80, 0xFF, 0xFF, 0xFF, 0x00, 0xFF
        00 FF
   047A 00 FF 00 FF 00 FF   280 	.db	0x00, 0xFF, 0x00, 0xFF, 0x00, 0xFF, 0x00, 0xFF
        00 FF
   0482 00 FF 01 FF FF FF   281 	.db	0x00, 0xFF, 0x01, 0xFF, 0xFF, 0xFF, 0x00, 0xFF
        00 FF
   048A 00 FF 00 FF 00 FF   282 	.db	0x00, 0xFF, 0x00, 0xFF, 0x00, 0xFF, 0x00, 0xFF
        00 FF
   0492 00 FF 00 FF FF FF   283 	.db	0x00, 0xFF, 0x00, 0xFF, 0xFF, 0xFF, 0x00, 0xFF
        00 FF
   049A 00 FF 00 FF 00 FF   284 	.db	0x00, 0xFF, 0x00, 0xFF, 0x00, 0xFF, 0x00, 0xFF
        00 FF
   04A2 00 FF FF 7C FF C6   285 	.db	0x00, 0xFF, 0xFF, 0x7C, 0xFF, 0xC6, 0xFF, 0xC0
        FF C0
   04AA FF 7C FF 06 FF 06   286 	.db	0xFF, 0x7C, 0xFF, 0x06, 0xFF, 0x06, 0xFF, 0xC6
        FF C6
   04B2 FF 7C FF 7E FF 18   287 	.db	0xFF, 0x7C, 0xFF, 0x7E, 0xFF, 0x18, 0xFF, 0x18
        FF 18
   04BA FF 18 FF 18 FF 18   288 	.db	0xFF, 0x18, 0xFF, 0x18, 0xFF, 0x18, 0xFF
        FF
   04C1 7F                  289 	.db	127
   04C2 18 FF 18 FF 38 FF   290 	.db	0x18, 0xFF, 0x18, 0xFF, 0x38, 0xFF, 0x6C, 0xFF
        6C FF
   04CA C6 FF C6 FF FE FF   291 	.db	0xC6, 0xFF, 0xC6, 0xFF, 0xFE, 0xFF, 0xC6, 0xFF
        C6 FF
   04D2 C6 FF C6 FF FC FF   292 	.db	0xC6, 0xFF, 0xC6, 0xFF, 0xFC, 0xFF, 0xC6, 0xFF
        C6 FF
   04DA C6 FF CE FF F8 FF   293 	.db	0xC6, 0xFF, 0xCE, 0xFF, 0xF8, 0xFF, 0xD8, 0xFF
        D8 FF
   04E2 CC FF C6 FF C0 FF   294 	.db	0xCC, 0xFF, 0xC6, 0xFF, 0xC0, 0xFF, 0xF0, 0xFF
        F0 FF
   04EA FC FF FE FF FC FF   295 	.db	0xFC, 0xFF, 0xFE, 0xFF, 0xFC, 0xFF, 0xF0, 0xFF
        F0 FF
   04F2 C0 FF 00 FF C6 FF   296 	.db	0xC0, 0xFF, 0x00, 0xFF, 0xC6, 0xFF, 0xE6, 0xFF
        E6 FF
   04FA F6 FF FE FF DE FF   297 	.db	0xF6, 0xFF, 0xFE, 0xFF, 0xDE, 0xFF, 0xCE, 0xFF
        CE FF
   0502 C6 FF C6 FF FE FF   298 	.db	0xC6, 0xFF, 0xC6, 0xFF, 0xFE, 0xFF, 0xC0, 0xFF
        C0 FF
   050A C0 FF FC FF C0 FF   299 	.db	0xC0, 0xFF, 0xFC, 0xFF, 0xC0, 0xFF, 0xC0, 0xFF
        C0 FF
   0512 C0 FF FE FF C6 FF   300 	.db	0xC0, 0xFF, 0xFE, 0xFF, 0xC6, 0xFF, 0xC6, 0xFF
        C6 FF
   051A C6 FF D6 FF FE FF   301 	.db	0xC6, 0xFF, 0xD6, 0xFF, 0xFE, 0xFF, 0xFE, 0xFF
        FE FF
   0522 EE FF C6 FF 3E FF   302 	.db	0xEE, 0xFF, 0xC6, 0xFF, 0x3E, 0xFF, 0x60, 0xFF
        60 FF
   052A C0 FF C0 FF CE FF   303 	.db	0xC0, 0xFF, 0xC0, 0xFF, 0xCE, 0xFF, 0xC6, 0xFF
        C6 FF
   0532 66 FF 3E FF C6 FF   304 	.db	0x66, 0xFF, 0x3E, 0xFF, 0xC6, 0xFF, 0xEE, 0xFF
        EE FF
   053A FE FF FE FF D6 FF   305 	.db	0xFE, 0xFF, 0xFE, 0xFF, 0xD6, 0xFF, 0xC6
        C6
   0541 34                  306 	.db	52
   0542 FF C6 FF C6 FF 7C   307 	.db	0xFF, 0xC6, 0xFF, 0xC6, 0xFF, 0x7C, 0xFF, 0xC6
        FF C6
   054A FF C6 FF C6 FF C6   308 	.db	0xFF, 0xC6, 0xFF, 0xC6, 0xFF, 0xC6, 0xFF, 0xDE
        FF DE
   0552 FF CC FF 7A FF C6   309 	.db	0xFF, 0xCC, 0xFF, 0x7A, 0xFF, 0xC6, 0xFF, 0xC6
        FF C6
   055A FF C6 FF C6 FF C6   310 	.db	0xFF, 0xC6, 0xFF, 0xC6, 0xFF, 0xC6, 0xFF, 0xC6
        FF C6
   0562 FF C6 FF 7C FF 7E   311 	.db	0xFF, 0xC6, 0xFF, 0x7C, 0xFF, 0x7E, 0xFF, 0x18
        FF 18
   056A FF 18 FF 18 FF 18   312 	.db	0xFF, 0x18, 0xFF, 0x18, 0xFF, 0x18, 0xFF, 0x18
        FF 18
   0572 FF 18 FF 7E         313 	.db	0xFF, 0x18, 0xFF, 0x7E
   0576 00                  314 	.db	0
                            315 ;	main.c 25
                            316 ;	main.c 24
                            317 ;	genArrayInit
                            318 ; _saveRegsForCall: sendSetSize: 0 deInUse: 0 bcInUse: 0 deSending: 0
   0577 21 90 05            319 	ld	hl,#_open_screen
   057A CD 00 00            320 	call	__initrleblock
   057D 03                  321 	.db	3
   057E 05 0C 0D            322 	.db	0x05, 0x0C, 0x0D
   0581 F4 05               323 	.db	-12,0x05
   0583 04                  324 	.db	4
   0584 2E 30 36 38         325 	.db	0x2E, 0x30, 0x36, 0x38
   0588 EB 05               326 	.db	-21,0x05
   058A 02                  327 	.db	2
   058B 0C 0D               328 	.db	0x0C, 0x0D
   058D FB 05               329 	.db	-5,0x05
   058F 04                  330 	.db	4
   0590 2F 31 37 39         331 	.db	0x2F, 0x31, 0x37, 0x39
   0594 EC 05               332 	.db	-20,0x05
   0596 01                  333 	.db	1
   0597 11                  334 	.db	0x11
   0598 F9 05               335 	.db	-7,0x05
   059A 04                  336 	.db	4
   059B 32 34 3A 3C         337 	.db	0x32, 0x34, 0x3A, 0x3C
   059F F6 05               338 	.db	-10,0x05
   05A1 05                  339 	.db	5
   05A2 0C 0D 05 05 25      340 	.db	0x0C, 0x0D, 0x05, 0x05, 0x25
   05A7 FB 22               341 	.db	-5,0x22
   05A9 01                  342 	.db	1
   05AA 10                  343 	.db	0x10
   05AB FB 22               344 	.db	-5,0x22
   05AD 08                  345 	.db	8
   05AE 26 05 33 35 3B 3D   346 	.db	0x26, 0x05, 0x33, 0x35, 0x3B, 0x3D, 0x0C, 0x0D
        0C 0D
   05B6 F4 05               347 	.db	-12,0x05
   05B8 01                  348 	.db	1
   05B9 21                  349 	.db	0x21
   05BA FB 05               350 	.db	-5,0x05
   05BC 01                  351 	.db	1
   05BD 10                  352 	.db	0x10
   05BE FB 05               353 	.db	-5,0x05
   05C0 05                  354 	.db	5
   05C1 21 05 25 22 26      355 	.db	0x21, 0x05, 0x25, 0x22, 0x26
   05C6 FA 05               356 	.db	-6,0x05
   05C8 02                  357 	.db	2
   05C9 0C 0D               358 	.db	0x0C, 0x0D
   05CB F9 05               359 	.db	-7,0x05
   05CD 01                  360 	.db	1
   05CE 21                  361 	.db	0x21
   05CF FB 05               362 	.db	-5,0x05
   05D1 01                  363 	.db	1
   05D2 10                  364 	.db	0x10
   05D3 FB 05               365 	.db	-5,0x05
   05D5 0D                  366 	.db	13
   05D6 21 05 2D 06 20 05   367 	.db	0x21, 0x05, 0x2D, 0x06, 0x20, 0x05, 0x05, 0x05
        05 05
   05DE 4C 4D 4E 4F 4D      368 	.db	0x4C, 0x4D, 0x4E, 0x4F, 0x4D
   05E3 F9 05               369 	.db	-7,0x05
   05E5 01                  370 	.db	1
   05E6 21                  371 	.db	0x21
   05E7 FB 05               372 	.db	-5,0x05
   05E9 1B                  373 	.db	27
   05EA 10 05 05 0C 0D 27   374 	.db	0x10, 0x05, 0x05, 0x0C, 0x0D, 0x27, 0x29, 0x05
        29 05
   05F2 2D 06 20 05 05 05   375 	.db	0x2D, 0x06, 0x20, 0x05, 0x05, 0x05, 0x51, 0x52
        51 52
   05FA 53 05 54 4E 55 52   376 	.db	0x53, 0x05, 0x54, 0x4E, 0x55, 0x52, 0x05, 0x05
        05 05
   0602 05 27 29            377 	.db	0x05, 0x27, 0x29
   0605 FB 05               378 	.db	-5,0x05
   0607 14                  379 	.db	20
   0608 10 05 05 05 05 28   380 	.db	0x10, 0x05, 0x05, 0x05, 0x05, 0x28, 0x2A, 0x05
        2A 05
   0610 2D 06 20 05 05 05   381 	.db	0x2D, 0x06, 0x20, 0x05, 0x05, 0x05, 0x56, 0x57
        56 57
   0618 58 4D 18 19         382 	.db	0x58, 0x4D, 0x18, 0x19
   061C FB 05               383 	.db	-5,0x05
   061E 02                  384 	.db	2
   061F 28 2A               385 	.db	0x28, 0x2A
   0621 FB 05               386 	.db	-5,0x05
   0623 0B                  387 	.db	11
   0624 10 05 05 05 05 2B   388 	.db	0x10, 0x05, 0x05, 0x05, 0x05, 0x2B, 0x2C, 0x05
        2C 05
   062C 2D 06 20            389 	.db	0x2D, 0x06, 0x20
   062F FA 05               390 	.db	-6,0x05
   0631 10                  391 	.db	16
   0632 18 19 18 19 05 05   392 	.db	0x18, 0x19, 0x18, 0x19, 0x05, 0x05, 0x05, 0x05
        05 05
   063A 2B 2C 05 05 05 0C   393 	.db	0x2B, 0x2C, 0x05, 0x05, 0x05, 0x0C, 0x0D, 0x10
        0D 10
   0642 F9 05               394 	.db	-7,0x05
   0644 03                  395 	.db	3
   0645 2D 06 20            396 	.db	0x2D, 0x06, 0x20
   0648 EB 05               397 	.db	-21,0x05
   064A 01                  398 	.db	1
   064B 10                  399 	.db	0x10
   064C F9 05               400 	.db	-7,0x05
   064E 03                  401 	.db	3
   064F 2D 06 20            402 	.db	0x2D, 0x06, 0x20
   0652 EB 05               403 	.db	-21,0x05
   0654 01                  404 	.db	1
   0655 10                  405 	.db	0x10
   0656 F9 05               406 	.db	-7,0x05
   0658 03                  407 	.db	3
   0659 2D 06 20            408 	.db	0x2D, 0x06, 0x20
   065C EB 05               409 	.db	-21,0x05
   065E 01                  410 	.db	1
   065F 10                  411 	.db	0x10
   0660 F9 05               412 	.db	-7,0x05
   0662 03                  413 	.db	3
   0663 2D 06 20            414 	.db	0x2D, 0x06, 0x20
   0666 EF 05               415 	.db	-17,0x05
   0668 05                  416 	.db	5
   0669 14 16 05 05 10      417 	.db	0x14, 0x16, 0x05, 0x05, 0x10
   066E FB 05               418 	.db	-5,0x05
   0670 1B                  419 	.db	27
   0671 42 44 49 4B 4A 44   420 	.db	0x42, 0x44, 0x49, 0x4B, 0x4A, 0x44, 0x45, 0x05
        45 05
   0679 05 14 16 05 14 16   421 	.db	0x05, 0x14, 0x16, 0x05, 0x14, 0x16, 0x05, 0x05
        05 05
   0681 3E 40 05 05 05 05   422 	.db	0x3E, 0x40, 0x05, 0x05, 0x05, 0x05, 0x15, 0x17
        15 17
   0689 05 05 10            423 	.db	0x05, 0x05, 0x10
   068C FB 05               424 	.db	-5,0x05
   068E 01                  425 	.db	1
   068F 43                  426 	.db	0x43
   0690 FB 06               427 	.db	-5,0x06
   0692 0D                  428 	.db	13
   0693 46 05 05 15 17 05   429 	.db	0x46, 0x05, 0x05, 0x15, 0x17, 0x05, 0x15, 0x17
        15 17
   069B 05 05 3F 41 05      430 	.db	0x05, 0x05, 0x3F, 0x41, 0x05
   06A0 E1 0E               431 	.db	-31,0x0E
   06A2 01                  432 	.db	1
   06A3 0F                  433 	.db	0x0F
   06A4 E0 07               434 	.db	-32,0x07
   06A6 02                  435 	.db	2
   06A7 05 07               436 	.db	0x05, 0x07
   06A9 F8 05               437 	.db	-8,0x05
   06AB 02                  438 	.db	2
   06AC 1D 1C               439 	.db	0x1D, 0x1C
   06AE EE 05               440 	.db	-18,0x05
   06B0 0A                  441 	.db	10
   06B1 07 05 05 07 05 05   442 	.db	0x07, 0x05, 0x05, 0x07, 0x05, 0x05, 0x05, 0x12
        05 12
   06B9 05 12               443 	.db	0x05, 0x12
   06BB F8 05               444 	.db	-8,0x05
   06BD 01                  445 	.db	1
   06BE 12                  446 	.db	0x12
   06BF F9 05               447 	.db	-7,0x05
   06C1 0C                  448 	.db	12
   06C2 1A 1B 05 05 05 05   449 	.db	0x1A, 0x1B, 0x05, 0x05, 0x05, 0x05, 0x07, 0x05
        07 05
   06CA 05 07 07 1B         450 	.db	0x05, 0x07, 0x07, 0x1B
   06CE F7 05               451 	.db	-9,0x05
   06D0 01                  452 	.db	1
   06D1 12                  453 	.db	0x12
   06D2 F9 05               454 	.db	-7,0x05
   06D4 15                  455 	.db	21
   06D5 12 05 05 1D 1C 05   456 	.db	0x12, 0x05, 0x05, 0x1D, 0x1C, 0x05, 0x05, 0x05
        05 05
   06DD 07 07 05 05 05 07   457 	.db	0x07, 0x07, 0x05, 0x05, 0x05, 0x07, 0x1C, 0x05
        1C 05
   06E5 05 05 12 05 12      458 	.db	0x05, 0x05, 0x12, 0x05, 0x12
   06EA F8 05               459 	.db	-8,0x05
   06EC 02                  460 	.db	2
   06ED 1A 1B               461 	.db	0x1A, 0x1B
   06EF F9 05               462 	.db	-7,0x05
   06F1 0B                  463 	.db	11
   06F2 12 05 07 05 05 1F   464 	.db	0x12, 0x05, 0x07, 0x05, 0x05, 0x1F, 0x1F, 0x07
        1F 07
   06FA 05 05 12            465 	.db	0x05, 0x05, 0x12
   06FD FA 05               466 	.db	-6,0x05
   06FF 18                  467 	.db	24
   0700 12 05 12 05 12 05   468 	.db	0x12, 0x05, 0x12, 0x05, 0x12, 0x05, 0x1D, 0x1C
        1D 1C
   0708 05 12 05 12 05 12   469 	.db	0x05, 0x12, 0x05, 0x12, 0x05, 0x12, 0x05, 0x05
        05 05
   0710 05 07 1F 1F 06 06   470 	.db	0x05, 0x07, 0x1F, 0x1F, 0x06, 0x06, 0x07, 0x07
        07 07
   0718 E9 05               471 	.db	-23,0x05
   071A 03                  472 	.db	3
   071B 1A 07 07            473 	.db	0x1A, 0x07, 0x07
   071E FB 06               474 	.db	-5,0x06
   0720 26                  475 	.db	38
   0721 07 05 05 05 1A 1B   476 	.db	0x07, 0x05, 0x05, 0x05, 0x1A, 0x1B, 0x05, 0x05
        05 05
   0729 12 05 12 05 12 05   477 	.db	0x12, 0x05, 0x12, 0x05, 0x12, 0x05, 0x12, 0x05
        12 05
   0731 12 05 1A 1B 05 05   478 	.db	0x12, 0x05, 0x1A, 0x1B, 0x05, 0x05, 0x05, 0x05
        05 05
   0739 1D 07 06 1E 1E 09   479 	.db	0x1D, 0x07, 0x06, 0x1E, 0x1E, 0x09, 0x08, 0x0A
        08 0A
   0741 07 05 05 05 1D 1C   480 	.db	0x07, 0x05, 0x05, 0x05, 0x1D, 0x1C
   0747 F4 05               481 	.db	-12,0x05
   0749 02                  482 	.db	2
   074A 1D 1C               483 	.db	0x1D, 0x1C
   074C FB 05               484 	.db	-5,0x05
   074E 08                  485 	.db	8
   074F 07 06 06 06 1E 1E   486 	.db	0x07, 0x06, 0x06, 0x06, 0x1E, 0x1E, 0x1E, 0x0B
        1E 0B
   0757 E8 1F               487 	.db	-24,0x1F
   0759 04                  488 	.db	4
   075A 0B 1E 1E 1E         489 	.db	0x0B, 0x1E, 0x1E, 0x1E
   075E C6 06               490 	.db	-58,0x06
   0760 04                  491 	.db	4
   0761 1E 1E 1E 1E         492 	.db	0x1E, 0x1E, 0x1E, 0x1E
   0765 FA 06               493 	.db	-6,0x06
   0767 07                  494 	.db	7
   0768 1E 1E 0A 08 0A 1E   495 	.db	0x1E, 0x1E, 0x0A, 0x08, 0x0A, 0x1E, 0x1E
        1E
   076F D9 06               496 	.db	-39,0x06
   0771 0B                  497 	.db	11
   0772 1E 1E 0A 08 1E 09   498 	.db	0x1E, 0x1E, 0x0A, 0x08, 0x1E, 0x09, 0x08, 0x08
        08 08
   077A 0A 1E 1E            499 	.db	0x0A, 0x1E, 0x1E
   077D D3 06               500 	.db	-45,0x06
   077F 09                  501 	.db	9
   0780 1E 1E 1E 1E 09 08   502 	.db	0x1E, 0x1E, 0x1E, 0x1E, 0x09, 0x08, 0x0A, 0x1E
        0A 1E
   0788 1E                  503 	.db	0x1E
   0789 F3 06               504 	.db	-13,0x06
   078B 00                  505 	.db	0
                            506 ;	main.c 26
                            507 ;	genAssign
                            508 ;	AOP_HL for _arrow_x
   078C 21 90 09            509 	ld	hl,#_arrow_x
   078F 36 48               510 	ld	(hl),#0x48
                            511 ;	main.c 27
                            512 ;	genAssign
                            513 ;	AOP_HL for _arrow_y
   0791 21 91 09            514 	ld	hl,#_arrow_y
   0794 36 38               515 	ld	(hl),#0x38
                            516 ;	main.c 34
                            517 ;	genAssign
                            518 ;	AOP_HL for _choice
   0796 21 94 09            519 	ld	hl,#_choice
   0799 36 00               520 	ld	(hl),#0x00
   079B 23                  521 	inc	hl
   079C 36 00               522 	ld	(hl),#0x00
                            523 ;	main.c 26
                            524 ;	main.c 24
                            525 ;	genArrayInit
                            526 ; _saveRegsForCall: sendSetSize: 0 deInUse: 0 bcInUse: 0 deSending: 0
   079E 21 96 09            527 	ld	hl,#_level_1_screen_tiles
   07A1 CD 00 00            528 	call	__initrleblock
   07A4 0A                  529 	.db	10
   07A5 C7 C7 93 93 39 39   530 	.db	0xC7, 0xC7, 0x93, 0x93, 0x39, 0x39, 0x39, 0x39
        39 39
   07AD 01 01               531 	.db	0x01, 0x01
   07AF FA 39               532 	.db	-6,0x39
   07B1 14                  533 	.db	20
   07B2 03 03 39 39 39 39   534 	.db	0x03, 0x03, 0x39, 0x39, 0x39, 0x39, 0x03, 0x03
        03 03
   07BA 39 39 39 39 3B 3B   535 	.db	0x39, 0x39, 0x39, 0x39, 0x3B, 0x3B, 0x03, 0x03
        03 03
   07C2 07 07 33 33         536 	.db	0x07, 0x07, 0x33, 0x33
   07C6 FA 39               537 	.db	-6,0x39
   07C8 0E                  538 	.db	14
   07C9 3B 3B 33 33 07 07   539 	.db	0x3B, 0x3B, 0x33, 0x33, 0x07, 0x07, 0x01, 0x01
        01 01
   07D1 3F 3F 3F 3F 03 03   540 	.db	0x3F, 0x3F, 0x3F, 0x3F, 0x03, 0x03
   07D7 FA 3F               541 	.db	-6,0x3F
   07D9 0A                  542 	.db	10
   07DA 01 01 01 01 3F 3F   543 	.db	0x01, 0x01, 0x01, 0x01, 0x3F, 0x3F, 0x3F, 0x3F
        3F 3F
   07E2 03 03               544 	.db	0x03, 0x03
   07E4 F8 3F               545 	.db	-8,0x3F
   07E6 10                  546 	.db	16
   07E7 C1 C1 9F 9F 3F 3F   547 	.db	0xC1, 0xC1, 0x9F, 0x9F, 0x3F, 0x3F, 0x3F, 0x3F
        3F 3F
   07EF 31 31 39 39 99 99   548 	.db	0x31, 0x31, 0x39, 0x39, 0x99, 0x99, 0xC1, 0xC1
        C1 C1
   07F7 FA 39               549 	.db	-6,0x39
   07F9 02                  550 	.db	2
   07FA 01 01               551 	.db	0x01, 0x01
   07FC F8 39               552 	.db	-8,0x39
   07FE 02                  553 	.db	2
   07FF 03 03               554 	.db	0x03, 0x03
   0801 F4 CF               555 	.db	-12,0xCF
   0803 02                  556 	.db	2
   0804 03 03               557 	.db	0x03, 0x03
   0806 F4 F9               558 	.db	-12,0xF9
   0808 14                  559 	.db	20
   0809 39 39 83 83 39 39   560 	.db	0x39, 0x39, 0x83, 0x83, 0x39, 0x39, 0x33, 0x33
        33 33
   0811 27 27 0F 0F 0F 0F   561 	.db	0x27, 0x27, 0x0F, 0x0F, 0x0F, 0x0F, 0x27, 0x27
        27 27
   0819 33 33 39 39         562 	.db	0x33, 0x33, 0x39, 0x39
   081D F2 3F               563 	.db	-14,0x3F
   081F 0A                  564 	.db	10
   0820 01 01 39 39 11 11   565 	.db	0x01, 0x01, 0x39, 0x39, 0x11, 0x11, 0x01, 0x01
        01 01
   0828 29 29               566 	.db	0x29, 0x29
   082A F6 39               567 	.db	-10,0x39
   082C 10                  568 	.db	16
   082D 19 19 09 09 01 01   569 	.db	0x19, 0x19, 0x09, 0x09, 0x01, 0x01, 0x01, 0x01
        01 01
   0835 21 21 31 31 39 39   570 	.db	0x21, 0x21, 0x31, 0x31, 0x39, 0x39, 0x83, 0x83
        83 83
   083D F4 39               571 	.db	-12,0x39
   083F 0A                  572 	.db	10
   0840 83 83 03 03 39 39   573 	.db	0x83, 0x83, 0x03, 0x03, 0x39, 0x39, 0x39, 0x39
        39 39
   0848 03 03               574 	.db	0x03, 0x03
   084A F8 3F               575 	.db	-8,0x3F
   084C 02                  576 	.db	2
   084D 83 83               577 	.db	0x83, 0x83
   084F F8 39               578 	.db	-8,0x39
   0851 08                  579 	.db	8
   0852 21 21 33 33 85 85   580 	.db	0x21, 0x21, 0x33, 0x33, 0x85, 0x85, 0x03, 0x03
        03 03
   085A FA 39               581 	.db	-6,0x39
   085C 1A                  582 	.db	26
   085D 31 31 07 07 23 23   583 	.db	0x31, 0x31, 0x07, 0x07, 0x23, 0x23, 0x31, 0x31
        31 31
   0865 83 83 39 39 3F 3F   584 	.db	0x83, 0x83, 0x39, 0x39, 0x3F, 0x3F, 0x83, 0x83
        83 83
   086D F9 F9 F9 F9 39 39   585 	.db	0xF9, 0xF9, 0xF9, 0xF9, 0x39, 0x39, 0x83, 0x83
        83 83
   0875 03 03               586 	.db	0x03, 0x03
   0877 F2 CF               587 	.db	-14,0xCF
   0879 F2 39               588 	.db	-14,0x39
   087B 02                  589 	.db	2
   087C 83 83               590 	.db	0x83, 0x83
   087E F6 39               591 	.db	-10,0x39
   0880 06                  592 	.db	6
   0881 93 93 C7 C7 EF EF   593 	.db	0x93, 0x93, 0xC7, 0xC7, 0xEF, 0xEF
   0887 F8 39               594 	.db	-8,0x39
   0889 18                  595 	.db	24
   088A 29 29 01 01 11 11   596 	.db	0x29, 0x29, 0x01, 0x01, 0x11, 0x11, 0x39, 0x39
        39 39
   0892 39 39 11 11 93 93   597 	.db	0x39, 0x39, 0x11, 0x11, 0x93, 0x93, 0xC7, 0xC7
        C7 C7
   089A C7 C7 93 93 11 11   598 	.db	0xC7, 0xC7, 0x93, 0x93, 0x11, 0x11, 0x39, 0x39
        39 39
   08A2 FA 33               599 	.db	-6,0x33
   08A4 02                  600 	.db	2
   08A5 87 87               601 	.db	0x87, 0x87
   08A7 F8 CF               602 	.db	-8,0xCF
   08A9 10                  603 	.db	16
   08AA 01 01 F9 F9 F3 F3   604 	.db	0x01, 0x01, 0xF9, 0xF9, 0xF3, 0xF3, 0xE7, 0xE7
        E7 E7
   08B2 CF CF 9F 9F 3F 3F   605 	.db	0xCF, 0xCF, 0x9F, 0x9F, 0x3F, 0x3F, 0x01, 0x01
        01 01
   08BA F0 FF               606 	.db	-16,0xFF
   08BC EF 00               607 	.db	-17,0x00
   08BE 23                  608 	.db	35
   08BF FF 00 FF 00 FF 00   609 	.db	0xFF, 0x00, 0xFF, 0x00, 0xFF, 0x00, 0xFF, 0x00
        FF 00
   08C7 FF 00 FF 00 FF 00   610 	.db	0xFF, 0x00, 0xFF, 0x00, 0xFF, 0x00, 0xFF, 0xFF
        FF FF
   08CF 00 FF 00 FF 00 FF   611 	.db	0x00, 0xFF, 0x00, 0xFF, 0x00, 0xFF, 0x00, 0xFF
        00 FF
   08D7 00 FF 00 FF 00 FF   612 	.db	0x00, 0xFF, 0x00, 0xFF, 0x00, 0xFF, 0x00, 0xC3
        00 C3
   08DF C3 99 99            613 	.db	0xC3, 0x99, 0x99
   08E2 F8 3F               614 	.db	-8,0x3F
   08E4 08                  615 	.db	8
   08E5 99 99 C3 C3 C7 C7   616 	.db	0x99, 0x99, 0xC3, 0xC3, 0xC7, 0xC7, 0xB3, 0xB3
        B3 B3
   08ED F8 39               617 	.db	-8,0x39
   08EF 08                  618 	.db	8
   08F0 9B 9B C7 C7 CF CF   619 	.db	0x9B, 0x9B, 0xC7, 0xC7, 0xCF, 0xCF, 0x8F, 0x8F
        8F 8F
   08F8 F6 CF               620 	.db	-10,0xCF
   08FA 2C                  621 	.db	44
   08FB 03 03 83 83 39 39   622 	.db	0x03, 0x03, 0x83, 0x83, 0x39, 0x39, 0xF9, 0xF9
        F9 F9
   0903 F3 F3 C7 C7 9F 9F   623 	.db	0xF3, 0xF3, 0xC7, 0xC7, 0x9F, 0x9F, 0x3F, 0x3F
        3F 3F
   090B 01 01 01 01 F3 F3   624 	.db	0x01, 0x01, 0x01, 0x01, 0xF3, 0xF3, 0xE7, 0xE7
        E7 E7
   0913 C3 C3 F9 F9 F9 F9   625 	.db	0xC3, 0xC3, 0xF9, 0xF9, 0xF9, 0xF9, 0x39, 0x39
        39 39
   091B 83 83 F3 F3 C3 C3   626 	.db	0x83, 0x83, 0xF3, 0xF3, 0xC3, 0xC3, 0x93, 0x93
        93 93
   0923 33 33 01 01         627 	.db	0x33, 0x33, 0x01, 0x01
   0927 FA F3               628 	.db	-6,0xF3
   0929 18                  629 	.db	24
   092A 03 03 3F 3F 3F 3F   630 	.db	0x03, 0x03, 0x3F, 0x3F, 0x3F, 0x3F, 0x03, 0x03
        03 03
   0932 F9 F9 F9 F9 39 39   631 	.db	0xF9, 0xF9, 0xF9, 0xF9, 0x39, 0x39, 0x83, 0x83
        83 83
   093A C3 C3 9F 9F 3F 3F   632 	.db	0xC3, 0xC3, 0x9F, 0x9F, 0x3F, 0x3F, 0x03, 0x03
        03 03
   0942 FA 39               633 	.db	-6,0x39
   0944 0C                  634 	.db	12
   0945 83 83 01 01 39 39   635 	.db	0x83, 0x83, 0x01, 0x01, 0x39, 0x39, 0xF9, 0xF9
        F9 F9
   094D F3 F3 E7 E7         636 	.db	0xF3, 0xF3, 0xE7, 0xE7
   0951 FA CF               637 	.db	-6,0xCF
   0953 12                  638 	.db	18
   0954 87 87 3B 3B 1B 1B   639 	.db	0x87, 0x87, 0x3B, 0x3B, 0x1B, 0x1B, 0x87, 0x87
        87 87
   095C 61 61 79 79 79 79   640 	.db	0x61, 0x61, 0x79, 0x79, 0x79, 0x79, 0x83, 0x83
        83 83
   0964 83 83               641 	.db	0x83, 0x83
   0966 FA 39               642 	.db	-6,0x39
   0968 08                  643 	.db	8
   0969 81 81 F9 F9 F3 F3   644 	.db	0x81, 0x81, 0xF9, 0xF9, 0xF3, 0xF3, 0x87, 0x87
        87 87
   0971 00                  645 	.db	0
                            646 ;	main.c 25
                            647 ;	main.c 24
                            648 ;	genArrayInit
                            649 ; _saveRegsForCall: sendSetSize: 0 deInUse: 0 bcInUse: 0 deSending: 0
   0972 21 16 0C            650 	ld	hl,#_level_1_screen
   0975 CD 00 00            651 	call	__initrleblock
   0978 94 19               652 	.db	-108,0x19
   097A 05                  653 	.db	5
   097B 0A 03 14 03 0A      654 	.db	0x0A, 0x03, 0x14, 0x03, 0x0A
   0980 DB 19               655 	.db	-37,0x19
   0982 01                  656 	.db	1
   0983 1F                  657 	.db	0x1F
   0984 C8 19               658 	.db	-56,0x19
   0986 07                  659 	.db	7
   0987 15 03 0A 1D 0D 0B   660 	.db	0x15, 0x03, 0x0A, 0x1D, 0x0D, 0x0B, 0x03
        03
   098E DD 19               661 	.db	-35,0x19
   0990 02                  662 	.db	2
   0991 12 0D               663 	.db	0x12, 0x0D
   0993 DB 19               664 	.db	-37,0x19
   0995 04                  665 	.db	4
   0996 06 03 0A 0A         666 	.db	0x06, 0x03, 0x0A, 0x0A
   099A BC 19               667 	.db	-68,0x19
   099C 00                  668 	.db	0
                            669 ;	main.c 26
                            670 ;	main.c 24
                            671 ;	genArrayInit
                            672 ; _saveRegsForCall: sendSetSize: 0 deInUse: 0 bcInUse: 0 deSending: 0
   099D 21 7E 0D            673 	ld	hl,#_font
   09A0 CD 00 00            674 	call	__initrleblock
   09A3 0A                  675 	.db	10
   09A4 1C 1C 22 22 43 43   676 	.db	0x1C, 0x1C, 0x22, 0x22, 0x43, 0x43, 0x43, 0x43
        43 43
   09AC 7F 7F               677 	.db	0x7F, 0x7F
   09AE FA 43               678 	.db	-6,0x43
   09B0 08                  679 	.db	8
   09B1 7E 7E 63 63 63 63   680 	.db	0x7E, 0x7E, 0x63, 0x63, 0x63, 0x63, 0x7E, 0x7E
        7E 7E
   09B9 FA 63               681 	.db	-6,0x63
   09BB 06                  682 	.db	6
   09BC 7E 7E 3E 3E 63 63   683 	.db	0x7E, 0x7E, 0x3E, 0x3E, 0x63, 0x63
   09C2 F8 60               684 	.db	-8,0x60
   09C4 06                  685 	.db	6
   09C5 63 63 3E 3E 7E 7E   686 	.db	0x63, 0x63, 0x3E, 0x3E, 0x7E, 0x7E
   09CB F4 47               687 	.db	-12,0x47
   09CD 0A                  688 	.db	10
   09CE 7E 7E 7F 7F 60 60   689 	.db	0x7E, 0x7E, 0x7F, 0x7F, 0x60, 0x60, 0x60, 0x60
        60 60
   09D6 7E 7E               690 	.db	0x7E, 0x7E
   09D8 FA 60               691 	.db	-6,0x60
   09DA 0A                  692 	.db	10
   09DB 7F 7F 7F 7F 60 60   693 	.db	0x7F, 0x7F, 0x7F, 0x7F, 0x60, 0x60, 0x60, 0x60
        60 60
   09E3 7E 7E               694 	.db	0x7E, 0x7E
   09E5 F8 60               695 	.db	-8,0x60
   09E7 10                  696 	.db	16
   09E8 3E 3E 63 63 60 60   697 	.db	0x3E, 0x3E, 0x63, 0x63, 0x60, 0x60, 0x60, 0x60
        60 60
   09F0 67 67 63 63 63 63   698 	.db	0x67, 0x67, 0x63, 0x63, 0x63, 0x63, 0x3F, 0x3F
        3F 3F
   09F8 FA 43               699 	.db	-6,0x43
   09FA 02                  700 	.db	2
   09FB 7F 7F               701 	.db	0x7F, 0x7F
   09FD F8 43               702 	.db	-8,0x43
   09FF 02                  703 	.db	2
   0A00 3C 3C               704 	.db	0x3C, 0x3C
   0A02 F4 18               705 	.db	-12,0x18
   0A04 04                  706 	.db	4
   0A05 3C 3C 0F 0F         707 	.db	0x3C, 0x3C, 0x0F, 0x0F
   0A09 F8 06               708 	.db	-8,0x06
   0A0B 16                  709 	.db	22
   0A0C 36 36 36 36 1C 1C   710 	.db	0x36, 0x36, 0x36, 0x36, 0x1C, 0x1C, 0x66, 0x66
        66 66
   0A14 6C 6C 78 78 70 70   711 	.db	0x6C, 0x6C, 0x78, 0x78, 0x70, 0x70, 0x78, 0x78
        78 78
   0A1C 6C 6C 66 66 63 63   712 	.db	0x6C, 0x6C, 0x66, 0x66, 0x63, 0x63
   0A22 F2 60               713 	.db	-14,0x60
   0A24 0A                  714 	.db	10
   0A25 7F 7F 63 63 77 77   715 	.db	0x7F, 0x7F, 0x63, 0x63, 0x77, 0x77, 0x7F, 0x7F
        7F 7F
   0A2D 6B 6B               716 	.db	0x6B, 0x6B
   0A2F F8 63               717 	.db	-8,0x63
   0A31 12                  718 	.db	18
   0A32 43 43 63 63 73 73   719 	.db	0x43, 0x43, 0x63, 0x63, 0x73, 0x73, 0x7B, 0x7B
        7B 7B
   0A3A 5F 5F 4F 4F 47 47   720 	.db	0x5F, 0x5F, 0x4F, 0x4F, 0x47, 0x47, 0x43, 0x43
        43 43
   0A42 3E 3E               721 	.db	0x3E, 0x3E
   0A44 F4 63               722 	.db	-12,0x63
   0A46 04                  723 	.db	4
   0A47 3E 3E 7E 7E         724 	.db	0x3E, 0x3E, 0x7E, 0x7E
   0A4B FA 63               725 	.db	-6,0x63
   0A4D 02                  726 	.db	2
   0A4E 7E 7E               727 	.db	0x7E, 0x7E
   0A50 FA 60               728 	.db	-6,0x60
   0A52 02                  729 	.db	2
   0A53 3E 3E               730 	.db	0x3E, 0x3E
   0A55 F8 61               731 	.db	-8,0x61
   0A57 08                  732 	.db	8
   0A58 65 65 62 62 3D 3D   733 	.db	0x65, 0x65, 0x62, 0x62, 0x3D, 0x3D, 0x7E, 0x7E
        7E 7E
   0A60 FA 63               734 	.db	-6,0x63
   0A62 1A                  735 	.db	26
   0A63 7E 7E 64 64 66 66   736 	.db	0x7E, 0x7E, 0x64, 0x64, 0x66, 0x66, 0x63, 0x63
        63 63
   0A6B 3E 3E 60 60 60 60   737 	.db	0x3E, 0x3E, 0x60, 0x60, 0x60, 0x60, 0x3E, 0x3E
        3E 3E
   0A73 07 07 07 07 67 67   738 	.db	0x07, 0x07, 0x07, 0x07, 0x67, 0x67, 0x3E, 0x3E
        3E 3E
   0A7B 7E 7E               739 	.db	0x7E, 0x7E
   0A7D F2 18               740 	.db	-14,0x18
   0A7F F4 43               741 	.db	-12,0x43
   0A81 04                  742 	.db	4
   0A82 47 47 3E 3E         743 	.db	0x47, 0x47, 0x3E, 0x3E
   0A86 F4 43               744 	.db	-12,0x43
   0A88 04                  745 	.db	4
   0A89 26 26 1C 1C         746 	.db	0x26, 0x26, 0x1C, 0x1C
   0A8D F8 63               747 	.db	-8,0x63
   0A8F 1E                  748 	.db	30
   0A90 6B 6B 7F 7F 77 77   749 	.db	0x6B, 0x6B, 0x7F, 0x7F, 0x77, 0x77, 0x63, 0x63
        63 63
   0A98 83 83 46 46 2C 2C   750 	.db	0x83, 0x83, 0x46, 0x46, 0x2C, 0x2C, 0x18, 0x18
        18 18
   0AA0 38 38 64 64 C2 C2   751 	.db	0x38, 0x38, 0x64, 0x64, 0xC2, 0xC2, 0x81, 0x81
        81 81
   0AA8 66 66 66 66 3C 3C   752 	.db	0x66, 0x66, 0x66, 0x66, 0x3C, 0x3C
   0AAE F6 18               753 	.db	-10,0x18
   0AB0 24                  754 	.db	36
   0AB1 7F 7F 03 03 07 07   755 	.db	0x7F, 0x7F, 0x03, 0x03, 0x07, 0x07, 0x0E, 0x0E
        0E 0E
   0AB9 1C 1C 38 38 7F 7F   756 	.db	0x1C, 0x1C, 0x38, 0x38, 0x7F, 0x7F, 0x7F, 0x7F
        7F 7F
   0AC1 3C 3C 66 66 66 66   757 	.db	0x3C, 0x3C, 0x66, 0x66, 0x66, 0x66, 0x6E, 0x6E
        6E 6E
   0AC9 76 76 66 66 66 66   758 	.db	0x76, 0x76, 0x66, 0x66, 0x66, 0x66, 0x3C, 0x3C
        3C 3C
   0AD1 18 18 38 38         759 	.db	0x18, 0x18, 0x38, 0x38
   0AD5 F6 18               760 	.db	-10,0x18
   0AD7 26                  761 	.db	38
   0AD8 3C 3C 3C 3C 4E 4E   762 	.db	0x3C, 0x3C, 0x3C, 0x3C, 0x4E, 0x4E, 0x0E, 0x0E
        0E 0E
   0AE0 0C 0C 38 38 70 70   763 	.db	0x0C, 0x0C, 0x38, 0x38, 0x70, 0x70, 0x7E, 0x7E
        7E 7E
   0AE8 7E 7E 7C 7C 0E 0E   764 	.db	0x7E, 0x7E, 0x7C, 0x7C, 0x0E, 0x0E, 0x0E, 0x0E
        0E 0E
   0AF0 3C 3C 0C 0C 0E 0E   765 	.db	0x3C, 0x3C, 0x0C, 0x0C, 0x0E, 0x0E, 0x0E, 0x0E
        0E 0E
   0AF8 7C 7C 3C 3C 6C 6C   766 	.db	0x7C, 0x7C, 0x3C, 0x3C, 0x6C, 0x6C
   0AFE FA 4C               767 	.db	-6,0x4C
   0B00 1E                  768 	.db	30
   0B01 7E 7E 0C 0C 0C 0C   769 	.db	0x7E, 0x7E, 0x0C, 0x0C, 0x0C, 0x0C, 0x7C, 0x7C
        7C 7C
   0B09 60 60 60 60 7C 7C   770 	.db	0x60, 0x60, 0x60, 0x60, 0x7C, 0x7C, 0x0E, 0x0E
        0E 0E
   0B11 0E 0E 4E 4E 3C 3C   771 	.db	0x0E, 0x0E, 0x4E, 0x4E, 0x3C, 0x3C, 0x3C, 0x3C
        3C 3C
   0B19 60 60 60 60 7C 7C   772 	.db	0x60, 0x60, 0x60, 0x60, 0x7C, 0x7C
   0B1F FA 66               773 	.db	-6,0x66
   0B21 0E                  774 	.db	14
   0B22 3C 3C 7E 7E 06 06   775 	.db	0x3C, 0x3C, 0x7E, 0x7E, 0x06, 0x06, 0x06, 0x06
        06 06
   0B2A 0C 0C 0C 0C 1C 1C   776 	.db	0x0C, 0x0C, 0x0C, 0x0C, 0x1C, 0x1C
   0B30 FA 3C               777 	.db	-6,0x3C
   0B32 06                  778 	.db	6
   0B33 4E 4E 4E 4E 3C 3C   779 	.db	0x4E, 0x4E, 0x4E, 0x4E, 0x3C, 0x3C
   0B39 FA 4E               780 	.db	-6,0x4E
   0B3B 0A                  781 	.db	10
   0B3C 3C 3C 3C 3C 4E 4E   782 	.db	0x3C, 0x3C, 0x3C, 0x3C, 0x4E, 0x4E, 0x4E, 0x4E
        4E 4E
   0B44 3E 3E               783 	.db	0x3E, 0x3E
   0B46 FA 0E               784 	.db	-6,0x0E
   0B48 02                  785 	.db	2
   0B49 38 38               786 	.db	0x38, 0x38
   0B4B F4 00               787 	.db	-12,0x00
   0B4D 04                  788 	.db	4
   0B4E 18 18 18 18         789 	.db	0x18, 0x18, 0x18, 0x18
   0B52 F8 00               790 	.db	-8,0x00
   0B54 18                  791 	.db	24
   0B55 18 18 18 18 08 08   792 	.db	0x18, 0x18, 0x18, 0x18, 0x08, 0x08, 0x10, 0x10
        10 10
   0B5D 00 00 18 18 18 18   793 	.db	0x00, 0x00, 0x18, 0x18, 0x18, 0x18, 0x00, 0x00
        00 00
   0B65 18 18 18 18 08 08   794 	.db	0x18, 0x18, 0x18, 0x18, 0x08, 0x08, 0x10, 0x10
        10 10
   0B6D FA 00               795 	.db	-6,0x00
   0B6F 0A                  796 	.db	10
   0B70 18 18 18 18 00 00   797 	.db	0x18, 0x18, 0x18, 0x18, 0x00, 0x00, 0x18, 0x18
        18 18
   0B78 18 18               798 	.db	0x18, 0x18
   0B7A E0 00               799 	.db	-32,0x00
   0B7C 06                  800 	.db	6
   0B7D 0C 0C 0C 0C 04 04   801 	.db	0x0C, 0x0C, 0x0C, 0x0C, 0x04, 0x04
   0B83 F4 00               802 	.db	-12,0x00
   0B85 F6 18               803 	.db	-10,0x18
   0B87 0A                  804 	.db	10
   0B88 00 00 18 18 36 36   805 	.db	0x00, 0x00, 0x18, 0x18, 0x36, 0x36, 0x36, 0x36
        36 36
   0B90 12 12               806 	.db	0x12, 0x12
   0B92 F6 00               807 	.db	-10,0x00
   0B94 7F                  808 	.db	127
   0B95 3C 3C 46 46 06 06   809 	.db	0x3C, 0x3C, 0x46, 0x46, 0x06, 0x06, 0x06, 0x06
        06 06
   0B9D 1C 1C 18 18 00 00   810 	.db	0x1C, 0x1C, 0x18, 0x18, 0x00, 0x00, 0x18, 0x18
        18 18
   0BA5 18 18 7E 7E DA DA   811 	.db	0x18, 0x18, 0x7E, 0x7E, 0xDA, 0xDA, 0xC7, 0xC7
        C7 C7
   0BAD C7 C7 C2 C2 7E 7E   812 	.db	0xC7, 0xC7, 0xC2, 0xC2, 0x7E, 0x7E, 0x3C, 0x3C
        3C 3C
   0BB5 18 18 7E 7E 5B 5B   813 	.db	0x18, 0x18, 0x7E, 0x7E, 0x5B, 0x5B, 0xE3, 0xE3
        E3 E3
   0BBD E3 E3 43 43 7E 7E   814 	.db	0xE3, 0xE3, 0x43, 0x43, 0x7E, 0x7E, 0x3C, 0x3C
        3C 3C
   0BC5 3C 3C 7E 7E 43 43   815 	.db	0x3C, 0x3C, 0x7E, 0x7E, 0x43, 0x43, 0xE3, 0xE3
        E3 E3
   0BCD E3 E3 5B 5B 7E 7E   816 	.db	0xE3, 0xE3, 0x5B, 0x5B, 0x7E, 0x7E, 0x18, 0x18
        18 18
   0BD5 3C 3C 7E 7E C2 C2   817 	.db	0x3C, 0x3C, 0x7E, 0x7E, 0xC2, 0xC2, 0xC7, 0xC7
        C7 C7
   0BDD C7 C7 DA DA 7E 7E   818 	.db	0xC7, 0xC7, 0xDA, 0xDA, 0x7E, 0x7E, 0x18, 0x18
        18 18
   0BE5 18 18 7E 7E DB DB   819 	.db	0x18, 0x18, 0x7E, 0x7E, 0xDB, 0xDB, 0xC3, 0xC3
        C3 C3
   0BED C3 C3 DB DB 7E 7E   820 	.db	0xC3, 0xC3, 0xDB, 0xDB, 0x7E, 0x7E, 0x18, 0x18
        18 18
   0BF5 3C 3C 7E 7E 42 42   821 	.db	0x3C, 0x3C, 0x7E, 0x7E, 0x42, 0x42, 0xE7, 0xE7
        E7 E7
   0BFD E7 E7 42 42 7E 7E   822 	.db	0xE7, 0xE7, 0x42, 0x42, 0x7E, 0x7E, 0x3C, 0x3C
        3C 3C
   0C05 7E 7E 81 81 99 99   823 	.db	0x7E, 0x7E, 0x81, 0x81, 0x99, 0x99, 0xA5, 0xA5
        A5 A5
   0C0D BD BD A5 A5 81 81   824 	.db	0xBD, 0xBD, 0xA5, 0xA5, 0x81, 0x81, 0x7E
        7E
   0C14 11                  825 	.db	17
   0C15 7E 00 00 02 02 03   826 	.db	0x7E, 0x00, 0x00, 0x02, 0x02, 0x03, 0x03, 0xFE
        03 FE
   0C1D FE 80 80 FE FE 03   827 	.db	0xFE, 0x80, 0x80, 0xFE, 0xFE, 0x03, 0x03, 0x02
        03 02
   0C25 02                  828 	.db	0x02
   0C26 FA 00               829 	.db	-6,0x00
   0C28 0A                  830 	.db	10
   0C29 80 80 40 40 80 80   831 	.db	0x80, 0x80, 0x40, 0x40, 0x80, 0x80, 0x00, 0x00
        00 00
   0C31 00 00               832 	.db	0x00, 0x00
   0C33 00                  833 	.db	0
                            834 ;	main.c 25
                            835 ;	main.c 24
                            836 ;	genArrayInit
                            837 ; _saveRegsForCall: sendSetSize: 0 deInUse: 0 bcInUse: 0 deSending: 0
   0C34 21 EE 10            838 	ld	hl,#_text_1_level_1
   0C37 CD 00 00            839 	call	__initrleblock
   0C3A 01                  840 	.db	1
   0C3B 31                  841 	.db	0x31
   0C3C EE 33               842 	.db	-18,0x33
   0C3E 02                  843 	.db	2
   0C3F 30 32               844 	.db	0x30, 0x32
   0C41 EE 28               845 	.db	-18,0x28
   0C43 16                  846 	.db	22
   0C44 32 32 28 2C 16 04   847 	.db	0x32, 0x32, 0x28, 0x2C, 0x16, 0x04, 0x2A, 0x11
        2A 11
   0C4C 04 28 00 0B 0B 28   848 	.db	0x04, 0x28, 0x00, 0x0B, 0x0B, 0x28, 0x06, 0x0E
        06 0E
   0C54 08 0D 2A 28 32 32   849 	.db	0x08, 0x0D, 0x2A, 0x28, 0x32, 0x32
   0C5A EE 28               850 	.db	-18,0x28
   0C5C 0F                  851 	.db	15
   0C5D 32 32 28 28 13 0E   852 	.db	0x32, 0x32, 0x28, 0x28, 0x13, 0x0E, 0x28, 0x07
        28 07
   0C65 04 0B 0B 2B 2C 28   853 	.db	0x04, 0x0B, 0x0B, 0x2B, 0x2C, 0x28, 0x00
        00
   0C6C FB 28               854 	.db	-5,0x28
   0C6E 02                  855 	.db	2
   0C6F 32 32               856 	.db	0x32, 0x32
   0C71 EE 28               857 	.db	-18,0x28
   0C73 0F                  858 	.db	15
   0C74 32 32 28 28 0C 00   859 	.db	0x32, 0x32, 0x28, 0x28, 0x0C, 0x00, 0x0D, 0x28
        0D 28
   0C7C 12 07 0E 14 13 12   860 	.db	0x12, 0x07, 0x0E, 0x14, 0x13, 0x12, 0x24
        24
   0C83 FB 28               861 	.db	-5,0x28
   0C85 02                  862 	.db	2
   0C86 32 32               863 	.db	0x32, 0x32
   0C88 EE 28               864 	.db	-18,0x28
   0C8A 16                  865 	.db	22
   0C8B 32 32 28 28 07 04   866 	.db	0x32, 0x32, 0x28, 0x28, 0x07, 0x04, 0x28, 0x00
        28 00
   0C93 0F 0F 11 0E 00 02   867 	.db	0x0F, 0x0F, 0x11, 0x0E, 0x00, 0x02, 0x07, 0x04
        07 04
   0C9B 12 28 28 28 32 32   868 	.db	0x12, 0x28, 0x28, 0x28, 0x32, 0x32
   0CA1 EE 28               869 	.db	-18,0x28
   0CA3 08                  870 	.db	8
   0CA4 32 32 28 28 18 0E   871 	.db	0x32, 0x32, 0x28, 0x28, 0x18, 0x0E, 0x14, 0x25
        14 25
   0CAC F4 28               872 	.db	-12,0x28
   0CAE 02                  873 	.db	2
   0CAF 32 32               874 	.db	0x32, 0x32
   0CB1 EE 28               875 	.db	-18,0x28
   0CB3 16                  876 	.db	22
   0CB4 32 32 28 28 2C 18   877 	.db	0x32, 0x32, 0x28, 0x28, 0x2C, 0x18, 0x0E, 0x14
        0E 14
   0CBC 28 07 04 00 11 2B   878 	.db	0x28, 0x07, 0x04, 0x00, 0x11, 0x2B, 0x2D, 0x2C
        2D 2C
   0CC4 28 28 28 28 32 32   879 	.db	0x28, 0x28, 0x28, 0x28, 0x32, 0x32
   0CCA EE 28               880 	.db	-18,0x28
   0CCC 02                  881 	.db	2
   0CCD 32 32               882 	.db	0x32, 0x32
   0CCF EE 28               883 	.db	-18,0x28
   0CD1 02                  884 	.db	2
   0CD2 32 32               885 	.db	0x32, 0x32
   0CD4 FA 28               886 	.db	-6,0x28
   0CD6 0E                  887 	.db	14
   0CD7 29 28 28 29 29 28   888 	.db	0x29, 0x28, 0x28, 0x29, 0x29, 0x28, 0x28, 0x28
        28 28
   0CDF 34 29 35 36 32 32   889 	.db	0x34, 0x29, 0x35, 0x36, 0x32, 0x32
   0CE5 EE 28               890 	.db	-18,0x28
   0CE7 02                  891 	.db	2
   0CE8 32 2E               892 	.db	0x32, 0x2E
   0CEA EE 33               893 	.db	-18,0x33
   0CEC 01                  894 	.db	1
   0CED 2F                  895 	.db	0x2F
   0CEE 00                  896 	.db	0
                            897 ;	main.c 25
                            898 ;	main.c 24
                            899 ;	genArrayInit
                            900 ; _saveRegsForCall: sendSetSize: 0 deInUse: 0 bcInUse: 0 deSending: 0
   0CEF 21 56 12            901 	ld	hl,#_text_2_level_1
   0CF2 CD 00 00            902 	call	__initrleblock
   0CF5 01                  903 	.db	1
   0CF6 31                  904 	.db	0x31
   0CF7 EE 33               905 	.db	-18,0x33
   0CF9 02                  906 	.db	2
   0CFA 30 32               907 	.db	0x30, 0x32
   0CFC EE 28               908 	.db	-18,0x28
   0CFE 0E                  909 	.db	14
   0CFF 32 32 28 1E 28 0C   910 	.db	0x32, 0x32, 0x28, 0x1E, 0x28, 0x0C, 0x0E, 0x0D
        0E 0D
   0D07 13 07 12 28 0E 0D   911 	.db	0x13, 0x07, 0x12, 0x28, 0x0E, 0x0D
   0D0D FA 28               912 	.db	-6,0x28
   0D0F 02                  913 	.db	2
   0D10 32 32               914 	.db	0x32, 0x32
   0D12 EE 28               915 	.db	-18,0x28
   0D14 0E                  916 	.db	14
   0D15 32 32 28 0A 00 0C   917 	.db	0x32, 0x32, 0x28, 0x0A, 0x00, 0x0C, 0x02, 0x07
        02 07
   0D1D 00 13 0A 00 2A 12   918 	.db	0x00, 0x13, 0x0A, 0x00, 0x2A, 0x12
   0D23 FA 28               919 	.db	-6,0x28
   0D25 02                  920 	.db	2
   0D26 32 32               921 	.db	0x32, 0x32
   0D28 EE 28               922 	.db	-18,0x28
   0D2A 16                  923 	.db	22
   0D2B 32 32 28 0D 0E 11   924 	.db	0x32, 0x32, 0x28, 0x0D, 0x0E, 0x11, 0x13, 0x07
        13 07
   0D33 04 11 0D 28 16 00   925 	.db	0x04, 0x11, 0x0D, 0x28, 0x16, 0x00, 0x13, 0x04
        13 04
   0D3B 11 12 28 28 32 32   926 	.db	0x11, 0x12, 0x28, 0x28, 0x32, 0x32
   0D41 EE 28               927 	.db	-18,0x28
   0D43 16                  928 	.db	22
   0D44 32 32 28 08 13 28   929 	.db	0x32, 0x32, 0x28, 0x08, 0x13, 0x28, 0x16, 0x0E
        16 0E
   0D4C 14 0B 03 28 01 04   930 	.db	0x14, 0x0B, 0x03, 0x28, 0x01, 0x04, 0x28, 0x00
        28 00
   0D54 28 28 28 28 32 32   931 	.db	0x28, 0x28, 0x28, 0x28, 0x32, 0x32
   0D5A EE 28               932 	.db	-18,0x28
   0D5C 0D                  933 	.db	13
   0D5D 32 32 28 02 0E 0B   934 	.db	0x32, 0x32, 0x28, 0x02, 0x0E, 0x0B, 0x03, 0x28
        03 28
   0D65 03 04 00 13 07      935 	.db	0x03, 0x04, 0x00, 0x13, 0x07
   0D6A F9 28               936 	.db	-7,0x28
   0D6C 02                  937 	.db	2
   0D6D 32 32               938 	.db	0x32, 0x32
   0D6F EE 28               939 	.db	-18,0x28
   0D71 0C                  940 	.db	12
   0D72 32 32 28 08 0D 03   941 	.db	0x32, 0x32, 0x28, 0x08, 0x0D, 0x03, 0x04, 0x04
        04 04
   0D7A 03 24 24 24         942 	.db	0x03, 0x24, 0x24, 0x24
   0D7E F8 28               943 	.db	-8,0x28
   0D80 02                  944 	.db	2
   0D81 32 32               945 	.db	0x32, 0x32
   0D83 EE 28               946 	.db	-18,0x28
   0D85 02                  947 	.db	2
   0D86 32 32               948 	.db	0x32, 0x32
   0D88 EE 28               949 	.db	-18,0x28
   0D8A 02                  950 	.db	2
   0D8B 32 32               951 	.db	0x32, 0x32
   0D8D F3 28               952 	.db	-13,0x28
   0D8F 07                  953 	.db	7
   0D90 34 28 35 36 28 32   954 	.db	0x34, 0x28, 0x35, 0x36, 0x28, 0x32, 0x32
        32
   0D97 EE 28               955 	.db	-18,0x28
   0D99 02                  956 	.db	2
   0D9A 32 2E               957 	.db	0x32, 0x2E
   0D9C EE 33               958 	.db	-18,0x33
   0D9E 01                  959 	.db	1
   0D9F 2F                  960 	.db	0x2F
   0DA0 00                  961 	.db	0
                            962 ;	main.c 25
                            963 ;	main.c 24
                            964 ;	genArrayInit
                            965 ; _saveRegsForCall: sendSetSize: 0 deInUse: 0 bcInUse: 0 deSending: 0
   0DA1 21 BE 13            966 	ld	hl,#_text_3_level_1
   0DA4 CD 00 00            967 	call	__initrleblock
   0DA7 01                  968 	.db	1
   0DA8 31                  969 	.db	0x31
   0DA9 EE 33               970 	.db	-18,0x33
   0DAB 02                  971 	.db	2
   0DAC 30 32               972 	.db	0x30, 0x32
   0DAE EE 28               973 	.db	-18,0x28
   0DB0 16                  974 	.db	22
   0DB1 32 32 28 2C 08 28   975 	.db	0x32, 0x32, 0x28, 0x2C, 0x08, 0x28, 0x12, 0x04
        12 04
   0DB9 04 28 16 04 28 07   976 	.db	0x04, 0x28, 0x16, 0x04, 0x28, 0x07, 0x00, 0x15
        00 15
   0DC1 04 28 00 28 32 32   977 	.db	0x04, 0x28, 0x00, 0x28, 0x32, 0x32
   0DC7 EE 28               978 	.db	-18,0x28
   0DC9 0E                  979 	.db	14
   0DCA 32 32 28 28 10 14   980 	.db	0x32, 0x32, 0x28, 0x28, 0x10, 0x14, 0x08, 0x04
        08 04
   0DD2 13 28 0E 0D 04 24   981 	.db	0x13, 0x28, 0x0E, 0x0D, 0x04, 0x24
   0DD8 FA 28               982 	.db	-6,0x28
   0DDA 02                  983 	.db	2
   0DDB 32 32               984 	.db	0x32, 0x32
   0DDD EE 28               985 	.db	-18,0x28
   0DDF 0F                  986 	.db	15
   0DE0 32 32 28 28 02 2A   987 	.db	0x32, 0x32, 0x28, 0x28, 0x02, 0x2A, 0x0C, 0x0E
        0C 0E
   0DE8 0D 28 28 08 2A 0B   988 	.db	0x0D, 0x28, 0x28, 0x08, 0x2A, 0x0B, 0x0B
        0B
   0DEF FB 28               989 	.db	-5,0x28
   0DF1 02                  990 	.db	2
   0DF2 32 32               991 	.db	0x32, 0x32
   0DF4 EE 28               992 	.db	-18,0x28
   0DF6 16                  993 	.db	22
   0DF7 32 32 28 28 13 00   994 	.db	0x32, 0x32, 0x28, 0x28, 0x13, 0x00, 0x0A, 0x04
        0A 04
   0DFF 28 18 0E 14 28 03   995 	.db	0x28, 0x18, 0x0E, 0x14, 0x28, 0x03, 0x0E, 0x16
        0E 16
   0E07 0D 28 28 28 32 32   996 	.db	0x0D, 0x28, 0x28, 0x28, 0x32, 0x32
   0E0D EE 28               997 	.db	-18,0x28
   0E0F 0A                  998 	.db	10
   0E10 32 32 28 28 13 0E   999 	.db	0x32, 0x32, 0x28, 0x28, 0x13, 0x0E, 0x28, 0x13
        28 13
   0E18 07 04              1000 	.db	0x07, 0x04
   0E1A F6 28              1001 	.db	-10,0x28
   0E1C 02                 1002 	.db	2
   0E1D 32 32              1003 	.db	0x32, 0x32
   0E1F EE 28              1004 	.db	-18,0x28
   0E21 0D                 1005 	.db	13
   0E22 32 32 28 28 12 07  1006 	.db	0x32, 0x32, 0x28, 0x28, 0x12, 0x07, 0x08, 0x13
        08 13
   0E2A 0F 0E 13 24 2C     1007 	.db	0x0F, 0x0E, 0x13, 0x24, 0x2C
   0E2F F9 28              1008 	.db	-7,0x28
   0E31 02                 1009 	.db	2
   0E32 32 32              1010 	.db	0x32, 0x32
   0E34 EE 28              1011 	.db	-18,0x28
   0E36 02                 1012 	.db	2
   0E37 32 32              1013 	.db	0x32, 0x32
   0E39 EE 28              1014 	.db	-18,0x28
   0E3B 02                 1015 	.db	2
   0E3C 32 32              1016 	.db	0x32, 0x32
   0E3E F3 28              1017 	.db	-13,0x28
   0E40 07                 1018 	.db	7
   0E41 34 28 35 36 28 32  1019 	.db	0x34, 0x28, 0x35, 0x36, 0x28, 0x32, 0x32
        32
   0E48 EE 28              1020 	.db	-18,0x28
   0E4A 02                 1021 	.db	2
   0E4B 32 2E              1022 	.db	0x32, 0x2E
   0E4D EE 33              1023 	.db	-18,0x33
   0E4F 01                 1024 	.db	1
   0E50 2F                 1025 	.db	0x2F
   0E51 00                 1026 	.db	0
                           1027 ;	main.c 26
                           1028 ;	main.c 24
                           1029 ;	genArrayInit
                           1030 ; _saveRegsForCall: sendSetSize: 0 deInUse: 0 bcInUse: 0 deSending: 0
   0E52 21 26 15           1031 	ld	hl,#_shit_pot_tiles
   0E55 CD 00 00           1032 	call	__initrleblock
   0E58 7F                 1033 	.db	127
   0E59 00 FF 73 8C 7E 81  1034 	.db	0x00, 0xFF, 0x73, 0x8C, 0x7E, 0x81, 0x41, 0xBE
        41 BE
   0E61 7C 83 17 E8 6F 90  1035 	.db	0x7C, 0x83, 0x17, 0xE8, 0x6F, 0x90, 0x00, 0xFF
        00 FF
   0E69 3F C0 9F 60 E1 1E  1036 	.db	0x3F, 0xC0, 0x9F, 0x60, 0xE1, 0x1E, 0x1F, 0xE0
        1F E0
   0E71 E8 17 BE 41 C3 3C  1037 	.db	0xE8, 0x17, 0xBE, 0x41, 0xC3, 0x3C, 0x00, 0xFF
        00 FF
   0E79 00 FF DF 20 21 DE  1038 	.db	0x00, 0xFF, 0xDF, 0x20, 0x21, 0xDE, 0xFE, 0x01
        FE 01
   0E81 39 C6 94 6B FB 04  1039 	.db	0x39, 0xC6, 0x94, 0x6B, 0xFB, 0x04, 0x00, 0xFF
        00 FF
   0E89 7F 80 42 BD 7F 80  1040 	.db	0x7F, 0x80, 0x42, 0xBD, 0x7F, 0x80, 0x78, 0x87
        78 87
   0E91 0F F0 73 8C 78 87  1041 	.db	0x0F, 0xF0, 0x73, 0x8C, 0x78, 0x87, 0x00, 0xFF
        00 FF
   0E99 00 FF 5D A2 66 99  1042 	.db	0x00, 0xFF, 0x5D, 0xA2, 0x66, 0x99, 0x79, 0x86
        79 86
   0EA1 00 FF 3F C0 63 9C  1043 	.db	0x00, 0xFF, 0x3F, 0xC0, 0x63, 0x9C, 0x00, 0xFF
        00 FF
   0EA9 FC 03 26 D9 91 6E  1044 	.db	0xFC, 0x03, 0x26, 0xD9, 0x91, 0x6E, 0xC7, 0x38
        C7 38
   0EB1 B6 49 DC 23 D1 2E  1045 	.db	0xB6, 0x49, 0xDC, 0x23, 0xD1, 0x2E, 0x00, 0xFF
        00 FF
   0EB9 00 FF 7E 81 B0 4F  1046 	.db	0x00, 0xFF, 0x7E, 0x81, 0xB0, 0x4F, 0xE6, 0x19
        E6 19
   0EC1 48 B7 3A C5 EE 11  1047 	.db	0x48, 0xB7, 0x3A, 0xC5, 0xEE, 0x11, 0x00, 0xFF
        00 FF
   0EC9 7F 80 70 8F 07 F8  1048 	.db	0x7F, 0x80, 0x70, 0x8F, 0x07, 0xF8, 0x79, 0x86
        79 86
   0ED1 63 9C 1C E3 76 89  1049 	.db	0x63, 0x9C, 0x1C, 0xE3, 0x76, 0x89, 0x00
        00
   0ED8 EF FF              1050 	.db	-17,0xFF
   0EDA 1F                 1051 	.db	31
   0EDB 00 FF 00 FF 00 FF  1052 	.db	0x00, 0xFF, 0x00, 0xFF, 0x00, 0xFF, 0x00, 0xFF
        00 FF
   0EE3 00 FF 00 FF 00 FF  1053 	.db	0x00, 0xFF, 0x00, 0xFF, 0x00, 0xFF, 0x00, 0xFF
        00 FF
   0EEB FF 00 FF 00 FF 00  1054 	.db	0xFF, 0x00, 0xFF, 0x00, 0xFF, 0x00, 0xFF, 0x00
        FF 00
   0EF3 FF 00 FF 00 FF 00  1055 	.db	0xFF, 0x00, 0xFF, 0x00, 0xFF, 0x00, 0xFF
        FF
   0EFA EF 00              1056 	.db	-17,0x00
   0EFC 10                 1057 	.db	16
   0EFD FF 00 DF 20 5E A1  1058 	.db	0xFF, 0x00, 0xDF, 0x20, 0x5E, 0xA1, 0x4A, 0xB5
        4A B5
   0F05 00 FF B6 49 54 AB  1059 	.db	0x00, 0xFF, 0xB6, 0x49, 0x54, 0xAB, 0x01, 0xFE
        01 FE
   0F0D 00                 1060 	.db	0
                           1061 ;	main.c 25
                           1062 ;	main.c 24
                           1063 ;	genArrayInit
                           1064 ; _saveRegsForCall: sendSetSize: 0 deInUse: 0 bcInUse: 0 deSending: 0
   0F0E 21 F6 15           1065 	ld	hl,#_shit_pot
   0F11 CD 00 00           1066 	call	__initrleblock
   0F14 81 09              1067 	.db	-127,0x09
   0F16 D2 09              1068 	.db	-46,0x09
   0F18 04                 1069 	.db	4
   0F19 08 08 08 08        1070 	.db	0x08, 0x08, 0x08, 0x08
   0F1D E4 09              1071 	.db	-28,0x09
   0F1F 04                 1072 	.db	4
   0F20 08 08 08 08        1073 	.db	0x08, 0x08, 0x08, 0x08
   0F24 E4 09              1074 	.db	-28,0x09
   0F26 04                 1075 	.db	4
   0F27 08 08 08 08        1076 	.db	0x08, 0x08, 0x08, 0x08
   0F2B F1 09              1077 	.db	-15,0x09
   0F2D 81 0A              1078 	.db	-127,0x0A
   0F2F 81 0A              1079 	.db	-127,0x0A
   0F31 81 0A              1080 	.db	-127,0x0A
   0F33 81 0A              1081 	.db	-127,0x0A
   0F35 81 0A              1082 	.db	-127,0x0A
   0F37 81 0A              1083 	.db	-127,0x0A
   0F39 FA 0A              1084 	.db	-6,0x0A
   0F3B 00                 1085 	.db	0
                           1086 ;	main.c 26
                           1087 ;	main.c 24
                           1088 ;	genArrayInit
                           1089 ; _saveRegsForCall: sendSetSize: 0 deInUse: 0 bcInUse: 0 deSending: 0
   0F3C 21 F6 19           1090 	ld	hl,#_hero_front_idle
   0F3F CD 00 00           1091 	call	__initrleblock
   0F42 FB 0F              1092 	.db	-5,0x0F
   0F44 1B                 1093 	.db	27
   0F45 00 0A 0F 08 0F 09  1094 	.db	0x00, 0x0A, 0x0F, 0x08, 0x0F, 0x09, 0x0F, 0x04
        0F 04
   0F4D 07 1E 01 1F 00 0F  1095 	.db	0x07, 0x1E, 0x01, 0x1F, 0x00, 0x0F, 0x10, 0x0F
        10 0F
   0F55 10 0F 10 0F 3F 0F  1096 	.db	0x10, 0x0F, 0x10, 0x0F, 0x3F, 0x0F, 0x30, 0x0F
        30 0F
   0F5D 00 1F 1F           1097 	.db	0x00, 0x1F, 0x1F
   0F60 FB F0              1098 	.db	-5,0xF0
   0F62 1B                 1099 	.db	27
   0F63 00 50 F0 10 F0 90  1100 	.db	0x00, 0x50, 0xF0, 0x10, 0xF0, 0x90, 0xF0, 0x20
        F0 20
   0F6B E0 78 80 F8 00 F0  1101 	.db	0xE0, 0x78, 0x80, 0xF8, 0x00, 0xF0, 0x08, 0xF0
        08 F0
   0F73 08 F0 08 F8 FC F0  1102 	.db	0x08, 0xF0, 0x08, 0xF8, 0xFC, 0xF0, 0x1C, 0xF0
        1C F0
   0F7B 00 F8 F8           1103 	.db	0x00, 0xF8, 0xF8
   0F7E FB 0F              1104 	.db	-5,0x0F
   0F80 1B                 1105 	.db	27
   0F81 00 0A 0F 08 0F 09  1106 	.db	0x00, 0x0A, 0x0F, 0x08, 0x0F, 0x09, 0x0F, 0x1E
        0F 1E
   0F89 01 1F 00 0F 10 0F  1107 	.db	0x01, 0x1F, 0x00, 0x0F, 0x10, 0x0F, 0x10, 0x0F
        10 0F
   0F91 10 0F 3F 0F 30 0F  1108 	.db	0x10, 0x0F, 0x3F, 0x0F, 0x30, 0x0F, 0x00, 0x0F
        00 0F
   0F99 00 1F 1F           1109 	.db	0x00, 0x1F, 0x1F
   0F9C FB F0              1110 	.db	-5,0xF0
   0F9E 1B                 1111 	.db	27
   0F9F 00 50 F0 10 F0 90  1112 	.db	0x00, 0x50, 0xF0, 0x10, 0xF0, 0x90, 0xF0, 0x78
        F0 78
   0FA7 80 F8 00 F0 08 F0  1113 	.db	0x80, 0xF8, 0x00, 0xF0, 0x08, 0xF0, 0x08, 0xF0
        08 F0
   0FAF 08 F8 FC F0 1C F0  1114 	.db	0x08, 0xF8, 0xFC, 0xF0, 0x1C, 0xF0, 0x00, 0xF0
        00 F0
   0FB7 00 F8 F8           1115 	.db	0x00, 0xF8, 0xF8
   0FBA 00                 1116 	.db	0
                           1117 ;	main.c 34
                           1118 ;	genAssign
                           1119 ;	AOP_HL for _text_count
   0FBB 21 76 1A           1120 	ld	hl,#_text_count
   0FBE 36 00              1121 	ld	(hl),#0x00
                           1122 ;--------------------------------------------------------
                           1123 ; Home
                           1124 ;--------------------------------------------------------
                           1125 	.area _HOME
                           1126 	.area _CODE
                           1127 ;--------------------------------------------------------
                           1128 ; code
                           1129 ;--------------------------------------------------------
                           1130 	.area _CODE
                           1131 ;	start_up/start_up.c 3
                           1132 ;	genLabel
                           1133 ;	genFunction
                           1134 ;	---------------------------------
                           1135 ; Function opening
                           1136 ; ---------------------------------
   0000                    1137 ___opening_start:
   0000                    1138 _opening:
                           1139 	
                           1140 ;	start_up/start_up.c 7
                           1141 ;	genCall
                           1142 ; _saveRegsForCall: sendSetSize: 0 deInUse: 0 bcInUse: 0 deSending: 0
   0000 CD FC 00           1143 	call	_setup_sprite
                           1144 ;	start_up/start_up.c 8
                           1145 ;	genCall
                           1146 ; _saveRegsForCall: sendSetSize: 0 deInUse: 0 bcInUse: 0 deSending: 0
   0003 CD 58 01           1147 	call	_setup_bkg
                           1148 ;	start_up/start_up.c 9
                           1149 ;	genLabel
   0006                    1150 00101$:
                           1151 ;	genCmpEq
                           1152 ;	AOP_HL for _option
                           1153 ; genCmpEq: left 2, right 2, result 0
   0006 21 92 09           1154 	ld	hl,#_option
   0009 2A                 1155 	ld	a,(hl+)
   000A B6                 1156 	or	a,(hl)
   000B C2 1C 00           1157 	jp	nz,00104$
   000E 18 03              1158 	jr	00109$
   0010                    1159 00108$:
   0010 C3 1C 00           1160 	jp	00104$
   0013                    1161 00109$:
                           1162 ;	start_up/start_up.c 11
                           1163 ;	genCall
                           1164 ; _saveRegsForCall: sendSetSize: 0 deInUse: 0 bcInUse: 0 deSending: 0
   0013 CD 1D 00           1165 	call	_start_up
                           1166 ;	start_up/start_up.c 12
                           1167 ;	genCall
                           1168 ; _saveRegsForCall: sendSetSize: 0 deInUse: 0 bcInUse: 0 deSending: 0
   0016 CD 00 00           1169 	call	_wait_vbl_done
                           1170 ;	genGoto
   0019 C3 06 00           1171 	jp	00101$
                           1172 ;	genLabel
   001C                    1173 00104$:
                           1174 ;	genEndFunction
                           1175 	
   001C C9                 1176 	ret
   001D                    1177 ___opening_end:
                           1178 ;	start_up/start_up.c 17
                           1179 ;	genLabel
                           1180 ;	genFunction
                           1181 ;	---------------------------------
                           1182 ; Function start_up
                           1183 ; ---------------------------------
   001D                    1184 ___start_up_start:
   001D                    1185 _start_up:
                           1186 	
                           1187 ;	start_up/start_up.c 19
                           1188 ;	genIpush
                           1189 ; _saveRegsForCall: sendSetSize: 0 deInUse: 0 bcInUse: 0 deSending: 0
   001D 21 64 00           1190 	ld	hl,#0x0064
   0020 E5                 1191 	push	hl
                           1192 ;	genCall
   0021 CD 00 00           1193 	call	_delay
   0024 E8 02              1194 	lda	sp,2(sp)
                           1195 ;	start_up/start_up.c 22
                           1196 ;	genCall
                           1197 ; _saveRegsForCall: sendSetSize: 0 deInUse: 0 bcInUse: 0 deSending: 0
   0026 CD 00 00           1198 	call	_joypad
   0029 4B                 1199 	ld	c,e
                           1200 ;	genAnd
   002A 79                 1201 	ld	a,c
   002B E6 08              1202 	and	a,#0x08
   002D 20 03              1203 	jr	nz,00118$
   002F C3 69 00           1204 	jp	00104$
   0032                    1205 00118$:
                           1206 ;	start_up/start_up.c 24
                           1207 ;	genCmpGt
                           1208 ;	AOP_HL for _arrow_y
   0032 3E 40              1209 	ld	a,#0x40
   0034 21 91 09           1210 	ld	hl,#_arrow_y
   0037 96                 1211 	sub	a,(hl)
   0038 D2 50 00           1212 	jp	nc,00102$
                           1213 ;	start_up/start_up.c 26
                           1214 ;	genAssign
                           1215 ;	AOP_HL for _arrow_y
   003B 36 30              1216 	ld	(hl),#0x30
                           1217 ;	start_up/start_up.c 27
                           1218 ;	genIpush
                           1219 ; _saveRegsForCall: sendSetSize: 0 deInUse: 0 bcInUse: 0 deSending: 0
   003D 3E 30              1220 	ld	a,#0x30
   003F F5                 1221 	push	af
   0040 33                 1222 	inc	sp
                           1223 ;	genIpush
                           1224 ;	AOP_HL for _arrow_x
   0041 21 90 09           1225 	ld	hl,#_arrow_x
   0044 7E                 1226 	ld	a,(hl)
   0045 F5                 1227 	push	af
   0046 33                 1228 	inc	sp
                           1229 ;	genIpush
   0047 3E 00              1230 	ld	a,#0x00
   0049 F5                 1231 	push	af
   004A 33                 1232 	inc	sp
                           1233 ;	genCall
   004B CD 00 00           1234 	call	_move_sprite
   004E E8 03              1235 	lda	sp,3(sp)
                           1236 ;	genLabel
   0050                    1237 00102$:
                           1238 ;	start_up/start_up.c 29
                           1239 ;	genPlus
                           1240 ;	AOP_HL for _arrow_y
                           1241 ;	genPlusIncr
                           1242 ;	Can't optimise plus by inc, falling back to the normal way
   0050 21 91 09           1243 	ld	hl,#_arrow_y
   0053 7E                 1244 	ld	a,(hl)
   0054 C6 08              1245 	add	a,#0x08
                           1246 ;	start_up/start_up.c 30
                           1247 ;	genIpush
                           1248 ; _saveRegsForCall: sendSetSize: 0 deInUse: 0 bcInUse: 0 deSending: 0
                           1249 ;	AOP_HL for _arrow_y
   0056 77                 1250 	ld      (hl),a
   0057 7F                 1251 	ld      a,a
   0058 F5                 1252 	push	af
   0059 33                 1253 	inc	sp
                           1254 ;	genIpush
                           1255 ;	AOP_HL for _arrow_x
   005A 21 90 09           1256 	ld	hl,#_arrow_x
   005D 7E                 1257 	ld	a,(hl)
   005E F5                 1258 	push	af
   005F 33                 1259 	inc	sp
                           1260 ;	genIpush
   0060 3E 00              1261 	ld	a,#0x00
   0062 F5                 1262 	push	af
   0063 33                 1263 	inc	sp
                           1264 ;	genCall
   0064 CD 00 00           1265 	call	_move_sprite
   0067 E8 03              1266 	lda	sp,3(sp)
                           1267 ;	genLabel
   0069                    1268 00104$:
                           1269 ;	start_up/start_up.c 33
                           1270 ;	genCall
                           1271 ; _saveRegsForCall: sendSetSize: 0 deInUse: 0 bcInUse: 0 deSending: 0
   0069 CD 00 00           1272 	call	_joypad
   006C 4B                 1273 	ld	c,e
                           1274 ;	genAnd
   006D 79                 1275 	ld	a,c
   006E E6 04              1276 	and	a,#0x04
   0070 20 03              1277 	jr	nz,00119$
   0072 C3 AC 00           1278 	jp	00108$
   0075                    1279 00119$:
                           1280 ;	start_up/start_up.c 35
                           1281 ;	genCmpLt
                           1282 ;	AOP_HL for _arrow_y
   0075 21 91 09           1283 	ld	hl,#_arrow_y
   0078 7E                 1284 	ld	a,(hl)
   0079 FE 40              1285 	cp	#0x40
   007B D2 93 00           1286 	jp	nc,00106$
                           1287 ;	start_up/start_up.c 37
                           1288 ;	genAssign
                           1289 ;	AOP_HL for _arrow_y
   007E 36 50              1290 	ld	(hl),#0x50
                           1291 ;	start_up/start_up.c 38
                           1292 ;	genIpush
                           1293 ; _saveRegsForCall: sendSetSize: 0 deInUse: 0 bcInUse: 0 deSending: 0
   0080 3E 50              1294 	ld	a,#0x50
   0082 F5                 1295 	push	af
   0083 33                 1296 	inc	sp
                           1297 ;	genIpush
                           1298 ;	AOP_HL for _arrow_x
   0084 21 90 09           1299 	ld	hl,#_arrow_x
   0087 7E                 1300 	ld	a,(hl)
   0088 F5                 1301 	push	af
   0089 33                 1302 	inc	sp
                           1303 ;	genIpush
   008A 3E 00              1304 	ld	a,#0x00
   008C F5                 1305 	push	af
   008D 33                 1306 	inc	sp
                           1307 ;	genCall
   008E CD 00 00           1308 	call	_move_sprite
   0091 E8 03              1309 	lda	sp,3(sp)
                           1310 ;	genLabel
   0093                    1311 00106$:
                           1312 ;	start_up/start_up.c 40
                           1313 ;	genMinus
                           1314 ;	AOP_HL for _arrow_y
   0093 21 91 09           1315 	ld	hl,#_arrow_y
   0096 7E                 1316 	ld	a,(hl)
   0097 C6 F8              1317 	add	a,#0xF8
                           1318 ;	start_up/start_up.c 41
                           1319 ;	genIpush
                           1320 ; _saveRegsForCall: sendSetSize: 0 deInUse: 0 bcInUse: 0 deSending: 0
                           1321 ;	AOP_HL for _arrow_y
   0099 77                 1322 	ld      (hl),a
   009A 7F                 1323 	ld      a,a
   009B F5                 1324 	push	af
   009C 33                 1325 	inc	sp
                           1326 ;	genIpush
                           1327 ;	AOP_HL for _arrow_x
   009D 21 90 09           1328 	ld	hl,#_arrow_x
   00A0 7E                 1329 	ld	a,(hl)
   00A1 F5                 1330 	push	af
   00A2 33                 1331 	inc	sp
                           1332 ;	genIpush
   00A3 3E 00              1333 	ld	a,#0x00
   00A5 F5                 1334 	push	af
   00A6 33                 1335 	inc	sp
                           1336 ;	genCall
   00A7 CD 00 00           1337 	call	_move_sprite
   00AA E8 03              1338 	lda	sp,3(sp)
                           1339 ;	genLabel
   00AC                    1340 00108$:
                           1341 ;	start_up/start_up.c 44
                           1342 ;	genCall
                           1343 ; _saveRegsForCall: sendSetSize: 0 deInUse: 0 bcInUse: 0 deSending: 0
   00AC CD 00 00           1344 	call	_joypad
   00AF 4B                 1345 	ld	c,e
                           1346 ;	genAnd
   00B0 79                 1347 	ld	a,c
   00B1 E6 10              1348 	and	a,#0x10
   00B3 20 03              1349 	jr	nz,00120$
   00B5 C3 C1 00           1350 	jp	00111$
   00B8                    1351 00120$:
                           1352 ;	start_up/start_up.c 45
                           1353 ;	genCall
                           1354 ; _saveRegsForCall: sendSetSize: 0 deInUse: 0 bcInUse: 0 deSending: 0
   00B8 CD C2 00           1355 	call	_check_pos
                           1356 ;	AOP_HL for _option
   00BB 21 93 09           1357 	ld	hl,#_option + 1
   00BE 72                 1358 	ld	(hl),d
   00BF 2B                 1359 	dec	hl
   00C0 73                 1360 	ld	(hl),e
                           1361 ;	genLabel
   00C1                    1362 00111$:
                           1363 ;	genEndFunction
                           1364 	
   00C1 C9                 1365 	ret
   00C2                    1366 ___start_up_end:
                           1367 ;	start_up/start_up.c 49
                           1368 ;	genLabel
                           1369 ;	genFunction
                           1370 ;	---------------------------------
                           1371 ; Function check_pos
                           1372 ; ---------------------------------
   00C2                    1373 ___check_pos_start:
   00C2                    1374 _check_pos:
                           1375 	
                           1376 ;	start_up/start_up.c 51
                           1377 ;	genCmpEq
                           1378 ;	AOP_HL for _arrow_y
                           1379 ; genCmpEq: left 1, right 1, result 0
   00C2 21 91 09           1380 	ld	hl,#_arrow_y
   00C5 7E                 1381 	ld	a,(hl)
   00C6 FE 38              1382 	cp	a,#0x38
   00C8 C2 D6 00           1383 	jp	nz,00102$
   00CB 18 03              1384 	jr	00113$
   00CD                    1385 00112$:
   00CD C3 D6 00           1386 	jp	00102$
   00D0                    1387 00113$:
                           1388 ;	start_up/start_up.c 52
                           1389 ;	genRet
   00D0 11 01 00           1390 	ld	de,#0x0001
   00D3 C3 FB 00           1391 	jp	00107$
                           1392 ;	genLabel
   00D6                    1393 00102$:
                           1394 ;	start_up/start_up.c 53
                           1395 ;	genCmpEq
                           1396 ;	AOP_HL for _arrow_y
                           1397 ; genCmpEq: left 1, right 1, result 0
   00D6 21 91 09           1398 	ld	hl,#_arrow_y
   00D9 7E                 1399 	ld	a,(hl)
   00DA FE 40              1400 	cp	a,#0x40
   00DC C2 EA 00           1401 	jp	nz,00104$
   00DF 18 03              1402 	jr	00115$
   00E1                    1403 00114$:
   00E1 C3 EA 00           1404 	jp	00104$
   00E4                    1405 00115$:
                           1406 ;	start_up/start_up.c 54
                           1407 ;	genRet
   00E4 11 02 00           1408 	ld	de,#0x0002
   00E7 C3 FB 00           1409 	jp	00107$
                           1410 ;	genLabel
   00EA                    1411 00104$:
                           1412 ;	start_up/start_up.c 55
                           1413 ;	genCmpEq
                           1414 ;	AOP_HL for _arrow_y
                           1415 ; genCmpEq: left 1, right 1, result 0
   00EA 21 91 09           1416 	ld	hl,#_arrow_y
   00ED 7E                 1417 	ld	a,(hl)
   00EE FE 48              1418 	cp	a,#0x48
   00F0 C2 FB 00           1419 	jp	nz,00107$
   00F3 18 03              1420 	jr	00117$
   00F5                    1421 00116$:
   00F5 C3 FB 00           1422 	jp	00107$
   00F8                    1423 00117$:
                           1424 ;	start_up/start_up.c 56
                           1425 ;	genRet
   00F8 11 03 00           1426 	ld	de,#0x0003
                           1427 ;	genLabel
   00FB                    1428 00107$:
                           1429 ;	genEndFunction
                           1430 	
   00FB C9                 1431 	ret
   00FC                    1432 ___check_pos_end:
                           1433 ;	start_up/start_up.c 60
                           1434 ;	genLabel
                           1435 ;	genFunction
                           1436 ;	---------------------------------
                           1437 ; Function setup_sprite
                           1438 ; ---------------------------------
   00FC                    1439 ___setup_sprite_start:
   00FC                    1440 _setup_sprite:
   00FC E8 FD              1441 	lda	sp,-3(sp)
                           1442 ;	start_up/start_up.c 62
                           1443 ;	genAssign
   00FE 01 40 FF           1444 	ld	bc,#0xFF40
                           1445 ;	genAssign
                           1446 ;	AOP_STK for _setup_sprite_sloc0_1_0
   0101 F8 01              1447 	lda	hl,1(sp)
   0103 36 40              1448 	ld	(hl),#0x40
   0105 23                 1449 	inc	hl
   0106 36 FF              1450 	ld	(hl),#0xFF
                           1451 ;	genPointerGet
                           1452 ;	AOP_STK for _setup_sprite_sloc0_1_0
                           1453 ;	AOP_STK for _setup_sprite_sloc1_1_0
   0108 2B                 1454 	dec	hl
   0109 5E                 1455 	ld	e,(hl)
   010A 23                 1456 	inc	hl
   010B 56                 1457 	ld	d,(hl)
   010C 1A                 1458 	ld	a,(de)
   010D 2B                 1459 	dec	hl
   010E 2B                 1460 	dec	hl
                           1461 ;	genAnd
                           1462 ;	AOP_STK for _setup_sprite_sloc1_1_0
   010F 77                 1463 	ld      (hl),a
   0110 7F                 1464 	ld      a,a
   0111 E6 FB              1465 	and	a,#0xFB
                           1466 ;	genAssign (pointer)
   0113 02                 1467 	ld	(bc),a
                           1468 ;	start_up/start_up.c 63
                           1469 ;	genIpush
                           1470 ; _saveRegsForCall: sendSetSize: 0 deInUse: 0 bcInUse: 0 deSending: 0
   0114 21 00 00           1471 	ld	hl,#_ship_tiles
   0117 E5                 1472 	push	hl
                           1473 ;	genIpush
   0118 21 00 59           1474 	ld	hl,#0x5900
   011B E5                 1475 	push	hl
                           1476 ;	genCall
   011C CD 00 00           1477 	call	_set_sprite_data
   011F E8 04              1478 	lda	sp,4(sp)
                           1479 ;	start_up/start_up.c 65
                           1480 ;	genIpush
                           1481 ; _saveRegsForCall: sendSetSize: 0 deInUse: 0 bcInUse: 0 deSending: 0
   0121 21 00 50           1482 	ld	hl,#0x5000
   0124 E5                 1483 	push	hl
                           1484 ;	genCall
   0125 CD 00 00           1485 	call	_set_sprite_tile
   0128 E8 02              1486 	lda	sp,2(sp)
                           1487 ;	start_up/start_up.c 66
                           1488 ;	genIpush
                           1489 ; _saveRegsForCall: sendSetSize: 0 deInUse: 0 bcInUse: 0 deSending: 0
                           1490 ;	AOP_HL for _arrow_y
   012A 21 91 09           1491 	ld	hl,#_arrow_y
   012D 7E                 1492 	ld	a,(hl)
   012E F5                 1493 	push	af
   012F 33                 1494 	inc	sp
                           1495 ;	genIpush
                           1496 ;	AOP_HL for _arrow_x
   0130 21 90 09           1497 	ld	hl,#_arrow_x
   0133 7E                 1498 	ld	a,(hl)
   0134 F5                 1499 	push	af
   0135 33                 1500 	inc	sp
                           1501 ;	genIpush
   0136 3E 00              1502 	ld	a,#0x00
   0138 F5                 1503 	push	af
   0139 33                 1504 	inc	sp
                           1505 ;	genCall
   013A CD 00 00           1506 	call	_move_sprite
   013D E8 03              1507 	lda	sp,3(sp)
                           1508 ;	start_up/start_up.c 68
                           1509 ;	genAssign
   013F 01 40 FF           1510 	ld	bc,#0xFF40
                           1511 ;	genAssign
                           1512 ;	AOP_STK for _setup_sprite_sloc0_1_0
   0142 F8 01              1513 	lda	hl,1(sp)
   0144 36 40              1514 	ld	(hl),#0x40
   0146 23                 1515 	inc	hl
   0147 36 FF              1516 	ld	(hl),#0xFF
                           1517 ;	genPointerGet
                           1518 ;	AOP_STK for _setup_sprite_sloc0_1_0
                           1519 ;	AOP_STK for _setup_sprite_sloc1_1_0
   0149 2B                 1520 	dec	hl
   014A 5E                 1521 	ld	e,(hl)
   014B 23                 1522 	inc	hl
   014C 56                 1523 	ld	d,(hl)
   014D 1A                 1524 	ld	a,(de)
   014E 2B                 1525 	dec	hl
   014F 2B                 1526 	dec	hl
                           1527 ;	genOr
                           1528 ;	AOP_STK for _setup_sprite_sloc1_1_0
   0150 77                 1529 	ld      (hl),a
   0151 7F                 1530 	ld      a,a
   0152 F6 02              1531 	or	a,#0x02
                           1532 ;	genAssign (pointer)
   0154 02                 1533 	ld	(bc),a
                           1534 ;	genLabel
   0155                    1535 00101$:
                           1536 ;	genEndFunction
   0155 E8 03              1537 	lda	sp,3(sp)
   0157 C9                 1538 	ret
   0158                    1539 ___setup_sprite_end:
                           1540 ;	start_up/start_up.c 72
                           1541 ;	genLabel
                           1542 ;	genFunction
                           1543 ;	---------------------------------
                           1544 ; Function setup_bkg
                           1545 ; ---------------------------------
   0158                    1546 ___setup_bkg_start:
   0158                    1547 _setup_bkg:
   0158 E8 FD              1548 	lda	sp,-3(sp)
                           1549 ;	start_up/start_up.c 74
                           1550 ;	genAssign
   015A 01 40 FF           1551 	ld	bc,#0xFF40
                           1552 ;	genAssign
                           1553 ;	AOP_STK for _setup_bkg_sloc0_1_0
   015D F8 01              1554 	lda	hl,1(sp)
   015F 36 40              1555 	ld	(hl),#0x40
   0161 23                 1556 	inc	hl
   0162 36 FF              1557 	ld	(hl),#0xFF
                           1558 ;	genPointerGet
                           1559 ;	AOP_STK for _setup_bkg_sloc0_1_0
                           1560 ;	AOP_STK for _setup_bkg_sloc1_1_0
   0164 2B                 1561 	dec	hl
   0165 5E                 1562 	ld	e,(hl)
   0166 23                 1563 	inc	hl
   0167 56                 1564 	ld	d,(hl)
   0168 1A                 1565 	ld	a,(de)
   0169 2B                 1566 	dec	hl
   016A 2B                 1567 	dec	hl
                           1568 ;	genAnd
                           1569 ;	AOP_STK for _setup_bkg_sloc1_1_0
   016B 77                 1570 	ld      (hl),a
   016C 7F                 1571 	ld      a,a
   016D E6 DF              1572 	and	a,#0xDF
                           1573 ;	genAssign (pointer)
   016F 02                 1574 	ld	(bc),a
                           1575 ;	start_up/start_up.c 75
                           1576 ;	genAssign
   0170 01 40 FF           1577 	ld	bc,#0xFF40
                           1578 ;	genAssign
                           1579 ;	AOP_STK for _setup_bkg_sloc0_1_0
   0173 23                 1580 	inc	hl
   0174 36 40              1581 	ld	(hl),#0x40
   0176 23                 1582 	inc	hl
   0177 36 FF              1583 	ld	(hl),#0xFF
                           1584 ;	genPointerGet
                           1585 ;	AOP_STK for _setup_bkg_sloc0_1_0
                           1586 ;	AOP_STK for _setup_bkg_sloc1_1_0
   0179 2B                 1587 	dec	hl
   017A 5E                 1588 	ld	e,(hl)
   017B 23                 1589 	inc	hl
   017C 56                 1590 	ld	d,(hl)
   017D 1A                 1591 	ld	a,(de)
   017E 2B                 1592 	dec	hl
   017F 2B                 1593 	dec	hl
                           1594 ;	genOr
                           1595 ;	AOP_STK for _setup_bkg_sloc1_1_0
   0180 77                 1596 	ld      (hl),a
   0181 7F                 1597 	ld      a,a
   0182 F6 01              1598 	or	a,#0x01
                           1599 ;	genAssign (pointer)
   0184 02                 1600 	ld	(bc),a
                           1601 ;	start_up/start_up.c 78
                           1602 ;	genIpush
                           1603 ; _saveRegsForCall: sendSetSize: 0 deInUse: 0 bcInUse: 0 deSending: 0
   0185 21 00 00           1604 	ld	hl,#_ship_tiles
   0188 E5                 1605 	push	hl
                           1606 ;	genIpush
   0189 21 00 59           1607 	ld	hl,#0x5900
   018C E5                 1608 	push	hl
                           1609 ;	genCall
   018D CD 00 00           1610 	call	_set_bkg_data
   0190 E8 04              1611 	lda	sp,4(sp)
                           1612 ;	start_up/start_up.c 79
                           1613 ;	genIpush
                           1614 ; _saveRegsForCall: sendSetSize: 0 deInUse: 0 bcInUse: 0 deSending: 0
   0192 21 90 05           1615 	ld	hl,#_open_screen
   0195 E5                 1616 	push	hl
                           1617 ;	genIpush
   0196 21 20 20           1618 	ld	hl,#0x2020
   0199 E5                 1619 	push	hl
                           1620 ;	genIpush
   019A 21 00 00           1621 	ld	hl,#0x0000
   019D E5                 1622 	push	hl
                           1623 ;	genCall
   019E CD 00 00           1624 	call	_set_bkg_tiles
   01A1 E8 06              1625 	lda	sp,6(sp)
                           1626 ;	start_up/start_up.c 80
                           1627 ;	genIpush
                           1628 ; _saveRegsForCall: sendSetSize: 0 deInUse: 0 bcInUse: 0 deSending: 0
   01A3 21 60 00           1629 	ld	hl,#0x0060
   01A6 E5                 1630 	push	hl
                           1631 ;	genCall
   01A7 CD 00 00           1632 	call	_scroll_bkg
   01AA E8 02              1633 	lda	sp,2(sp)
                           1634 ;	start_up/start_up.c 82
                           1635 ;	genAssign
   01AC 01 40 FF           1636 	ld	bc,#0xFF40
                           1637 ;	genAssign
                           1638 ;	AOP_STK for _setup_bkg_sloc0_1_0
   01AF F8 01              1639 	lda	hl,1(sp)
   01B1 36 40              1640 	ld	(hl),#0x40
   01B3 23                 1641 	inc	hl
   01B4 36 FF              1642 	ld	(hl),#0xFF
                           1643 ;	genPointerGet
                           1644 ;	AOP_STK for _setup_bkg_sloc0_1_0
                           1645 ;	AOP_STK for _setup_bkg_sloc1_1_0
   01B6 2B                 1646 	dec	hl
   01B7 5E                 1647 	ld	e,(hl)
   01B8 23                 1648 	inc	hl
   01B9 56                 1649 	ld	d,(hl)
   01BA 1A                 1650 	ld	a,(de)
   01BB 2B                 1651 	dec	hl
   01BC 2B                 1652 	dec	hl
                           1653 ;	genOr
                           1654 ;	AOP_STK for _setup_bkg_sloc1_1_0
   01BD 77                 1655 	ld      (hl),a
   01BE 7F                 1656 	ld      a,a
   01BF F6 80              1657 	or	a,#0x80
                           1658 ;	genAssign (pointer)
   01C1 02                 1659 	ld	(bc),a
                           1660 ;	genLabel
   01C2                    1661 00101$:
                           1662 ;	genEndFunction
   01C2 E8 03              1663 	lda	sp,3(sp)
   01C4 C9                 1664 	ret
   01C5                    1665 ___setup_bkg_end:
                           1666 ;	level_1/level_1.c 39
                           1667 ;	genLabel
                           1668 ;	genFunction
                           1669 ;	---------------------------------
                           1670 ; Function level_1_ctrl
                           1671 ; ---------------------------------
   01C5                    1672 ___level_1_ctrl_start:
   01C5                    1673 _level_1_ctrl:
                           1674 	
                           1675 ;	level_1/level_1.c 41
                           1676 ;	genCall
                           1677 ; _saveRegsForCall: sendSetSize: 0 deInUse: 0 bcInUse: 0 deSending: 0
   01C5 CD D2 01           1678 	call	_level_1_bkg_start
                           1679 ;	level_1/level_1.c 42
                           1680 ;	genLabel
   01C8                    1681 00102$:
                           1682 ;	level_1/level_1.c 44
                           1683 ;	genCall
                           1684 ; _saveRegsForCall: sendSetSize: 0 deInUse: 0 bcInUse: 0 deSending: 0
   01C8 CD 00 00           1685 	call	_wait_vbl_done
                           1686 ;	level_1/level_1.c 45
                           1687 ;	genCall
                           1688 ; _saveRegsForCall: sendSetSize: 0 deInUse: 0 bcInUse: 0 deSending: 0
   01CB CD C2 02           1689 	call	_joypad_check
                           1690 ;	genGoto
   01CE C3 C8 01           1691 	jp	00102$
                           1692 ;	genLabel
   01D1                    1693 00104$:
                           1694 ;	genEndFunction
                           1695 	
   01D1 C9                 1696 	ret
   01D2                    1697 ___level_1_ctrl_end:
                           1698 ;	level_1/level_1.c 50
                           1699 ;	genLabel
                           1700 ;	genFunction
                           1701 ;	---------------------------------
                           1702 ; Function level_1_bkg_start
                           1703 ; ---------------------------------
   01D2                    1704 ___level_1_bkg_start_start:
   01D2                    1705 _level_1_bkg_start:
   01D2 E8 FD              1706 	lda	sp,-3(sp)
                           1707 ;	level_1/level_1.c 52
                           1708 ;	genCall
                           1709 ; _saveRegsForCall: sendSetSize: 0 deInUse: 0 bcInUse: 0 deSending: 0
   01D4 CD 00 00           1710 	call	_display_off
                           1711 ;	level_1/level_1.c 53
                           1712 ;	genAssign
   01D7 01 40 FF           1713 	ld	bc,#0xFF40
                           1714 ;	genAssign
                           1715 ;	AOP_STK for _level_1_bkg_start_sloc0_1_0
   01DA F8 01              1716 	lda	hl,1(sp)
   01DC 36 40              1717 	ld	(hl),#0x40
   01DE 23                 1718 	inc	hl
   01DF 36 FF              1719 	ld	(hl),#0xFF
                           1720 ;	genPointerGet
                           1721 ;	AOP_STK for _level_1_bkg_start_sloc0_1_0
                           1722 ;	AOP_STK for _level_1_bkg_start_sloc1_1_0
   01E1 2B                 1723 	dec	hl
   01E2 5E                 1724 	ld	e,(hl)
   01E3 23                 1725 	inc	hl
   01E4 56                 1726 	ld	d,(hl)
   01E5 1A                 1727 	ld	a,(de)
   01E6 2B                 1728 	dec	hl
   01E7 2B                 1729 	dec	hl
                           1730 ;	genAnd
                           1731 ;	AOP_STK for _level_1_bkg_start_sloc1_1_0
   01E8 77                 1732 	ld      (hl),a
   01E9 7F                 1733 	ld      a,a
   01EA E6 DF              1734 	and	a,#0xDF
                           1735 ;	genAssign (pointer)
   01EC 02                 1736 	ld	(bc),a
                           1737 ;	level_1/level_1.c 54
                           1738 ;	genAssign
   01ED 01 40 FF           1739 	ld	bc,#0xFF40
                           1740 ;	genAssign
                           1741 ;	AOP_STK for _level_1_bkg_start_sloc0_1_0
   01F0 23                 1742 	inc	hl
   01F1 36 40              1743 	ld	(hl),#0x40
   01F3 23                 1744 	inc	hl
   01F4 36 FF              1745 	ld	(hl),#0xFF
                           1746 ;	genPointerGet
                           1747 ;	AOP_STK for _level_1_bkg_start_sloc0_1_0
                           1748 ;	AOP_STK for _level_1_bkg_start_sloc1_1_0
   01F6 2B                 1749 	dec	hl
   01F7 5E                 1750 	ld	e,(hl)
   01F8 23                 1751 	inc	hl
   01F9 56                 1752 	ld	d,(hl)
   01FA 1A                 1753 	ld	a,(de)
   01FB 2B                 1754 	dec	hl
   01FC 2B                 1755 	dec	hl
                           1756 ;	genOr
                           1757 ;	AOP_STK for _level_1_bkg_start_sloc1_1_0
   01FD 77                 1758 	ld      (hl),a
   01FE 7F                 1759 	ld      a,a
   01FF F6 01              1760 	or	a,#0x01
                           1761 ;	genAssign (pointer)
   0201 02                 1762 	ld	(bc),a
                           1763 ;	level_1/level_1.c 56
                           1764 ;	genAssign
   0202 01 40 FF           1765 	ld	bc,#0xFF40
                           1766 ;	genAssign
                           1767 ;	AOP_STK for _level_1_bkg_start_sloc0_1_0
   0205 23                 1768 	inc	hl
   0206 36 40              1769 	ld	(hl),#0x40
   0208 23                 1770 	inc	hl
   0209 36 FF              1771 	ld	(hl),#0xFF
                           1772 ;	genPointerGet
                           1773 ;	AOP_STK for _level_1_bkg_start_sloc0_1_0
                           1774 ;	AOP_STK for _level_1_bkg_start_sloc1_1_0
   020B 2B                 1775 	dec	hl
   020C 5E                 1776 	ld	e,(hl)
   020D 23                 1777 	inc	hl
   020E 56                 1778 	ld	d,(hl)
   020F 1A                 1779 	ld	a,(de)
   0210 2B                 1780 	dec	hl
   0211 2B                 1781 	dec	hl
                           1782 ;	genAnd
                           1783 ;	AOP_STK for _level_1_bkg_start_sloc1_1_0
   0212 77                 1784 	ld      (hl),a
   0213 7F                 1785 	ld      a,a
   0214 E6 FD              1786 	and	a,#0xFD
                           1787 ;	genAssign (pointer)
   0216 02                 1788 	ld	(bc),a
                           1789 ;	level_1/level_1.c 59
                           1790 ;	genIpush
                           1791 ; _saveRegsForCall: sendSetSize: 0 deInUse: 0 bcInUse: 0 deSending: 0
   0217 21 96 09           1792 	ld	hl,#_level_1_screen_tiles
   021A E5                 1793 	push	hl
                           1794 ;	genIpush
   021B 21 00 28           1795 	ld	hl,#0x2800
   021E E5                 1796 	push	hl
                           1797 ;	genCall
   021F CD 00 00           1798 	call	_set_bkg_data
   0222 E8 04              1799 	lda	sp,4(sp)
                           1800 ;	level_1/level_1.c 60
                           1801 ;	genIpush
                           1802 ; _saveRegsForCall: sendSetSize: 0 deInUse: 0 bcInUse: 0 deSending: 0
   0224 21 16 0C           1803 	ld	hl,#_level_1_screen
   0227 E5                 1804 	push	hl
                           1805 ;	genIpush
   0228 21 14 12           1806 	ld	hl,#0x1214
   022B E5                 1807 	push	hl
                           1808 ;	genIpush
   022C 21 00 00           1809 	ld	hl,#0x0000
   022F E5                 1810 	push	hl
                           1811 ;	genCall
   0230 CD 00 00           1812 	call	_set_bkg_tiles
   0233 E8 06              1813 	lda	sp,6(sp)
                           1814 ;	level_1/level_1.c 62
                           1815 ;	genIpush
                           1816 ; _saveRegsForCall: sendSetSize: 0 deInUse: 0 bcInUse: 0 deSending: 0
   0235 21 A0 00           1817 	ld	hl,#0x00A0
   0238 E5                 1818 	push	hl
                           1819 ;	genCall
   0239 CD 00 00           1820 	call	_scroll_bkg
   023C E8 02              1821 	lda	sp,2(sp)
                           1822 ;	level_1/level_1.c 64
                           1823 ;	genAssign
   023E 01 40 FF           1824 	ld	bc,#0xFF40
                           1825 ;	genAssign
                           1826 ;	AOP_STK for _level_1_bkg_start_sloc0_1_0
   0241 F8 01              1827 	lda	hl,1(sp)
   0243 36 40              1828 	ld	(hl),#0x40
   0245 23                 1829 	inc	hl
   0246 36 FF              1830 	ld	(hl),#0xFF
                           1831 ;	genPointerGet
                           1832 ;	AOP_STK for _level_1_bkg_start_sloc0_1_0
                           1833 ;	AOP_STK for _level_1_bkg_start_sloc1_1_0
   0248 2B                 1834 	dec	hl
   0249 5E                 1835 	ld	e,(hl)
   024A 23                 1836 	inc	hl
   024B 56                 1837 	ld	d,(hl)
   024C 1A                 1838 	ld	a,(de)
   024D 2B                 1839 	dec	hl
   024E 2B                 1840 	dec	hl
                           1841 ;	genOr
                           1842 ;	AOP_STK for _level_1_bkg_start_sloc1_1_0
   024F 77                 1843 	ld      (hl),a
   0250 7F                 1844 	ld      a,a
   0251 F6 80              1845 	or	a,#0x80
                           1846 ;	genAssign (pointer)
   0253 02                 1847 	ld	(bc),a
                           1848 ;	level_1/level_1.c 66
                           1849 ;	genIpush
                           1850 ; _saveRegsForCall: sendSetSize: 0 deInUse: 0 bcInUse: 0 deSending: 0
   0254 21 E8 03           1851 	ld	hl,#0x03E8
   0257 E5                 1852 	push	hl
                           1853 ;	genCall
   0258 CD 00 00           1854 	call	_delay
   025B E8 02              1855 	lda	sp,2(sp)
                           1856 ;	level_1/level_1.c 68
                           1857 ;	genCall
                           1858 ; _saveRegsForCall: sendSetSize: 0 deInUse: 0 bcInUse: 0 deSending: 0
   025D CD 00 00           1859 	call	_display_off
                           1860 ;	level_1/level_1.c 69
                           1861 ;	genAssign
   0260 01 40 FF           1862 	ld	bc,#0xFF40
                           1863 ;	genAssign
                           1864 ;	AOP_STK for _level_1_bkg_start_sloc0_1_0
   0263 F8 01              1865 	lda	hl,1(sp)
   0265 36 40              1866 	ld	(hl),#0x40
   0267 23                 1867 	inc	hl
   0268 36 FF              1868 	ld	(hl),#0xFF
                           1869 ;	genPointerGet
                           1870 ;	AOP_STK for _level_1_bkg_start_sloc0_1_0
                           1871 ;	AOP_STK for _level_1_bkg_start_sloc1_1_0
   026A 2B                 1872 	dec	hl
   026B 5E                 1873 	ld	e,(hl)
   026C 23                 1874 	inc	hl
   026D 56                 1875 	ld	d,(hl)
   026E 1A                 1876 	ld	a,(de)
   026F 2B                 1877 	dec	hl
   0270 2B                 1878 	dec	hl
                           1879 ;	genAnd
                           1880 ;	AOP_STK for _level_1_bkg_start_sloc1_1_0
   0271 77                 1881 	ld      (hl),a
   0272 7F                 1882 	ld      a,a
   0273 E6 DF              1883 	and	a,#0xDF
                           1884 ;	genAssign (pointer)
   0275 02                 1885 	ld	(bc),a
                           1886 ;	level_1/level_1.c 70
                           1887 ;	genAssign
   0276 01 40 FF           1888 	ld	bc,#0xFF40
                           1889 ;	genAssign
                           1890 ;	AOP_STK for _level_1_bkg_start_sloc0_1_0
   0279 23                 1891 	inc	hl
   027A 36 40              1892 	ld	(hl),#0x40
   027C 23                 1893 	inc	hl
   027D 36 FF              1894 	ld	(hl),#0xFF
                           1895 ;	genPointerGet
                           1896 ;	AOP_STK for _level_1_bkg_start_sloc0_1_0
                           1897 ;	AOP_STK for _level_1_bkg_start_sloc1_1_0
   027F 2B                 1898 	dec	hl
   0280 5E                 1899 	ld	e,(hl)
   0281 23                 1900 	inc	hl
   0282 56                 1901 	ld	d,(hl)
   0283 1A                 1902 	ld	a,(de)
   0284 2B                 1903 	dec	hl
   0285 2B                 1904 	dec	hl
                           1905 ;	genOr
                           1906 ;	AOP_STK for _level_1_bkg_start_sloc1_1_0
   0286 77                 1907 	ld      (hl),a
   0287 7F                 1908 	ld      a,a
   0288 F6 01              1909 	or	a,#0x01
                           1910 ;	genAssign (pointer)
   028A 02                 1911 	ld	(bc),a
                           1912 ;	level_1/level_1.c 73
                           1913 ;	genIpush
                           1914 ; _saveRegsForCall: sendSetSize: 0 deInUse: 0 bcInUse: 0 deSending: 0
   028B 21 7E 0D           1915 	ld	hl,#_font
   028E E5                 1916 	push	hl
                           1917 ;	genIpush
   028F 21 00 37           1918 	ld	hl,#0x3700
   0292 E5                 1919 	push	hl
                           1920 ;	genCall
   0293 CD 00 00           1921 	call	_set_bkg_data
   0296 E8 04              1922 	lda	sp,4(sp)
                           1923 ;	level_1/level_1.c 74
                           1924 ;	genIpush
                           1925 ; _saveRegsForCall: sendSetSize: 0 deInUse: 0 bcInUse: 0 deSending: 0
   0298 21 EE 10           1926 	ld	hl,#_text_1_level_1
   029B E5                 1927 	push	hl
                           1928 ;	genIpush
   029C 21 14 12           1929 	ld	hl,#0x1214
   029F E5                 1930 	push	hl
                           1931 ;	genIpush
   02A0 21 00 00           1932 	ld	hl,#0x0000
   02A3 E5                 1933 	push	hl
                           1934 ;	genCall
   02A4 CD 00 00           1935 	call	_set_bkg_tiles
   02A7 E8 06              1936 	lda	sp,6(sp)
                           1937 ;	level_1/level_1.c 76
                           1938 ;	genAssign
   02A9 01 40 FF           1939 	ld	bc,#0xFF40
                           1940 ;	genAssign
                           1941 ;	AOP_STK for _level_1_bkg_start_sloc0_1_0
   02AC F8 01              1942 	lda	hl,1(sp)
   02AE 36 40              1943 	ld	(hl),#0x40
   02B0 23                 1944 	inc	hl
   02B1 36 FF              1945 	ld	(hl),#0xFF
                           1946 ;	genPointerGet
                           1947 ;	AOP_STK for _level_1_bkg_start_sloc0_1_0
                           1948 ;	AOP_STK for _level_1_bkg_start_sloc1_1_0
   02B3 2B                 1949 	dec	hl
   02B4 5E                 1950 	ld	e,(hl)
   02B5 23                 1951 	inc	hl
   02B6 56                 1952 	ld	d,(hl)
   02B7 1A                 1953 	ld	a,(de)
   02B8 2B                 1954 	dec	hl
   02B9 2B                 1955 	dec	hl
                           1956 ;	genOr
                           1957 ;	AOP_STK for _level_1_bkg_start_sloc1_1_0
   02BA 77                 1958 	ld      (hl),a
   02BB 7F                 1959 	ld      a,a
   02BC F6 80              1960 	or	a,#0x80
                           1961 ;	genAssign (pointer)
   02BE 02                 1962 	ld	(bc),a
                           1963 ;	genLabel
   02BF                    1964 00101$:
                           1965 ;	genEndFunction
   02BF E8 03              1966 	lda	sp,3(sp)
   02C1 C9                 1967 	ret
   02C2                    1968 ___level_1_bkg_start_end:
                           1969 ;	level_1/level_1.c 79
                           1970 ;	genLabel
                           1971 ;	genFunction
                           1972 ;	---------------------------------
                           1973 ; Function joypad_check
                           1974 ; ---------------------------------
   02C2                    1975 ___joypad_check_start:
   02C2                    1976 _joypad_check:
                           1977 	
                           1978 ;	level_1/level_1.c 81
                           1979 ;	genCall
                           1980 ; _saveRegsForCall: sendSetSize: 0 deInUse: 0 bcInUse: 0 deSending: 0
   02C2 CD 00 00           1981 	call	_joypad
   02C5 4B                 1982 	ld	c,e
                           1983 ;	genAnd
   02C6 79                 1984 	ld	a,c
   02C7 E6 10              1985 	and	a,#0x10
   02C9 20 03              1986 	jr	nz,00106$
   02CB C3 D1 02           1987 	jp	00103$
   02CE                    1988 00106$:
                           1989 ;	level_1/level_1.c 83
                           1990 ;	genCall
                           1991 ; _saveRegsForCall: sendSetSize: 0 deInUse: 0 bcInUse: 0 deSending: 0
   02CE CD D2 02           1992 	call	_output_text
                           1993 ;	genLabel
   02D1                    1994 00103$:
                           1995 ;	genEndFunction
                           1996 	
   02D1 C9                 1997 	ret
   02D2                    1998 ___joypad_check_end:
                           1999 ;	level_1/level_1.c 87
                           2000 ;	genLabel
                           2001 ;	genFunction
                           2002 ;	---------------------------------
                           2003 ; Function output_text
                           2004 ; ---------------------------------
   02D2                    2005 ___output_text_start:
   02D2                    2006 _output_text:
   02D2 E8 FD              2007 	lda	sp,-3(sp)
                           2008 ;	level_1/level_1.c 89
                           2009 ;	genIpush
                           2010 ; _saveRegsForCall: sendSetSize: 0 deInUse: 0 bcInUse: 0 deSending: 0
   02D4 21 64 00           2011 	ld	hl,#0x0064
   02D7 E5                 2012 	push	hl
                           2013 ;	genCall
   02D8 CD 00 00           2014 	call	_delay
   02DB E8 02              2015 	lda	sp,2(sp)
                           2016 ;	level_1/level_1.c 90
                           2017 ;	genPlus
                           2018 ;	AOP_HL for _text_count
                           2019 ;	genPlusIncr
   02DD 21 76 1A           2020 	ld	hl,#_text_count
   02E0 34                 2021 	inc	(hl)
                           2022 ;	level_1/level_1.c 91
                           2023 ;	genIpush
                           2024 ; _saveRegsForCall: sendSetSize: 0 deInUse: 0 bcInUse: 0 deSending: 0
   02E1 21 64 00           2025 	ld	hl,#0x0064
   02E4 E5                 2026 	push	hl
                           2027 ;	genCall
   02E5 CD 00 00           2028 	call	_delay
   02E8 E8 02              2029 	lda	sp,2(sp)
                           2030 ;	level_1/level_1.c 92
                           2031 ;	genCmpEq
                           2032 ;	AOP_HL for _text_count
                           2033 ; genCmpEq: left 1, right 1, result 0
   02EA 21 76 1A           2034 	ld	hl,#_text_count
   02ED 7E                 2035 	ld	a,(hl)
   02EE FE 01              2036 	cp	a,#0x01
   02F0 C2 21 03           2037 	jp	nz,00102$
   02F3 18 03              2038 	jr	00113$
   02F5                    2039 00112$:
   02F5 C3 21 03           2040 	jp	00102$
   02F8                    2041 00113$:
                           2042 ;	level_1/level_1.c 94
                           2043 ;	genCall
                           2044 ; _saveRegsForCall: sendSetSize: 0 deInUse: 0 bcInUse: 0 deSending: 0
   02F8 CD 00 00           2045 	call	_display_off
                           2046 ;	level_1/level_1.c 95
                           2047 ;	genIpush
                           2048 ; _saveRegsForCall: sendSetSize: 0 deInUse: 0 bcInUse: 0 deSending: 0
   02FB 21 56 12           2049 	ld	hl,#_text_2_level_1
   02FE E5                 2050 	push	hl
                           2051 ;	genIpush
   02FF 21 14 12           2052 	ld	hl,#0x1214
   0302 E5                 2053 	push	hl
                           2054 ;	genIpush
   0303 21 00 00           2055 	ld	hl,#0x0000
   0306 E5                 2056 	push	hl
                           2057 ;	genCall
   0307 CD 00 00           2058 	call	_set_bkg_tiles
   030A E8 06              2059 	lda	sp,6(sp)
                           2060 ;	level_1/level_1.c 96
                           2061 ;	genAssign
   030C 01 40 FF           2062 	ld	bc,#0xFF40
                           2063 ;	genAssign
                           2064 ;	AOP_STK for _output_text_sloc0_1_0
   030F F8 01              2065 	lda	hl,1(sp)
   0311 36 40              2066 	ld	(hl),#0x40
   0313 23                 2067 	inc	hl
   0314 36 FF              2068 	ld	(hl),#0xFF
                           2069 ;	genPointerGet
                           2070 ;	AOP_STK for _output_text_sloc0_1_0
                           2071 ;	AOP_STK for _output_text_sloc1_1_0
   0316 2B                 2072 	dec	hl
   0317 5E                 2073 	ld	e,(hl)
   0318 23                 2074 	inc	hl
   0319 56                 2075 	ld	d,(hl)
   031A 1A                 2076 	ld	a,(de)
   031B 2B                 2077 	dec	hl
   031C 2B                 2078 	dec	hl
                           2079 ;	genOr
                           2080 ;	AOP_STK for _output_text_sloc1_1_0
   031D 77                 2081 	ld      (hl),a
                           2082 ; Removed redundent load
   031E F6 80              2083 	or	a,#0x80
                           2084 ;	genAssign (pointer)
   0320 02                 2085 	ld	(bc),a
                           2086 ;	genLabel
   0321                    2087 00102$:
                           2088 ;	level_1/level_1.c 98
                           2089 ;	genCmpEq
                           2090 ;	AOP_HL for _text_count
                           2091 ; genCmpEq: left 1, right 1, result 0
   0321 21 76 1A           2092 	ld	hl,#_text_count
   0324 7E                 2093 	ld	a,(hl)
   0325 FE 02              2094 	cp	a,#0x02
   0327 C2 58 03           2095 	jp	nz,00104$
   032A 18 03              2096 	jr	00115$
   032C                    2097 00114$:
   032C C3 58 03           2098 	jp	00104$
   032F                    2099 00115$:
                           2100 ;	level_1/level_1.c 100
                           2101 ;	genCall
                           2102 ; _saveRegsForCall: sendSetSize: 0 deInUse: 0 bcInUse: 0 deSending: 0
   032F CD 00 00           2103 	call	_display_off
                           2104 ;	level_1/level_1.c 101
                           2105 ;	genIpush
                           2106 ; _saveRegsForCall: sendSetSize: 0 deInUse: 0 bcInUse: 0 deSending: 0
   0332 21 BE 13           2107 	ld	hl,#_text_3_level_1
   0335 E5                 2108 	push	hl
                           2109 ;	genIpush
   0336 21 14 12           2110 	ld	hl,#0x1214
   0339 E5                 2111 	push	hl
                           2112 ;	genIpush
   033A 21 00 00           2113 	ld	hl,#0x0000
   033D E5                 2114 	push	hl
                           2115 ;	genCall
   033E CD 00 00           2116 	call	_set_bkg_tiles
   0341 E8 06              2117 	lda	sp,6(sp)
                           2118 ;	level_1/level_1.c 102
                           2119 ;	genAssign
   0343 01 40 FF           2120 	ld	bc,#0xFF40
                           2121 ;	genAssign
                           2122 ;	AOP_STK for _output_text_sloc0_1_0
   0346 F8 01              2123 	lda	hl,1(sp)
   0348 36 40              2124 	ld	(hl),#0x40
   034A 23                 2125 	inc	hl
   034B 36 FF              2126 	ld	(hl),#0xFF
                           2127 ;	genPointerGet
                           2128 ;	AOP_STK for _output_text_sloc0_1_0
                           2129 ;	AOP_STK for _output_text_sloc1_1_0
   034D 2B                 2130 	dec	hl
   034E 5E                 2131 	ld	e,(hl)
   034F 23                 2132 	inc	hl
   0350 56                 2133 	ld	d,(hl)
   0351 1A                 2134 	ld	a,(de)
   0352 2B                 2135 	dec	hl
   0353 2B                 2136 	dec	hl
                           2137 ;	genOr
                           2138 ;	AOP_STK for _output_text_sloc1_1_0
   0354 77                 2139 	ld      (hl),a
                           2140 ; Removed redundent load
   0355 F6 80              2141 	or	a,#0x80
                           2142 ;	genAssign (pointer)
   0357 02                 2143 	ld	(bc),a
                           2144 ;	genLabel
   0358                    2145 00104$:
                           2146 ;	level_1/level_1.c 105
                           2147 ;	genCmpLt
                           2148 ;	AOP_HL for _text_count
   0358 21 76 1A           2149 	ld	hl,#_text_count
   035B 7E                 2150 	ld	a,(hl)
   035C FE 03              2151 	cp	#0x03
   035E DA B7 03           2152 	jp	c,00107$
                           2153 ;	level_1/level_1.c 107
                           2154 ;	genCall
                           2155 ; _saveRegsForCall: sendSetSize: 0 deInUse: 0 bcInUse: 0 deSending: 0
   0361 CD 00 00           2156 	call	_display_off
                           2157 ;	level_1/level_1.c 108
                           2158 ;	genIpush
                           2159 ; _saveRegsForCall: sendSetSize: 0 deInUse: 0 bcInUse: 0 deSending: 0
   0364 21 28 00           2160 	ld	hl,#0x0028
   0367 E5                 2161 	push	hl
                           2162 ;	genCall
   0368 CD 00 00           2163 	call	_scroll_bkg
   036B E8 02              2164 	lda	sp,2(sp)
                           2165 ;	level_1/level_1.c 116
                           2166 ;	level_1/level_1.c 114
                           2167 ;	genIpush
                           2168 ; _saveRegsForCall: sendSetSize: 0 deInUse: 0 bcInUse: 0 deSending: 0
   036D 21 26 15           2169 	ld	hl,#_shit_pot_tiles
   0370 E5                 2170 	push	hl
                           2171 ;	genIpush
   0371 21 00 10           2172 	ld	hl,#0x1000
   0374 E5                 2173 	push	hl
                           2174 ;	genCall
   0375 CD 00 00           2175 	call	_set_bkg_data
   0378 E8 04              2176 	lda	sp,4(sp)
                           2177 ;	level_1/level_1.c 117
                           2178 ;	genIpush
                           2179 ; _saveRegsForCall: sendSetSize: 0 deInUse: 0 bcInUse: 0 deSending: 0
   037A 21 F6 15           2180 	ld	hl,#_shit_pot
   037D E5                 2181 	push	hl
                           2182 ;	genIpush
   037E 21 20 20           2183 	ld	hl,#0x2020
   0381 E5                 2184 	push	hl
                           2185 ;	genIpush
   0382 21 00 00           2186 	ld	hl,#0x0000
   0385 E5                 2187 	push	hl
                           2188 ;	genCall
   0386 CD 00 00           2189 	call	_set_bkg_tiles
   0389 E8 06              2190 	lda	sp,6(sp)
                           2191 ;	level_1/level_1.c 118
                           2192 ;	genAssign
   038B 01 40 FF           2193 	ld	bc,#0xFF40
                           2194 ;	genAssign
                           2195 ;	AOP_STK for _output_text_sloc0_1_0
   038E F8 01              2196 	lda	hl,1(sp)
   0390 36 40              2197 	ld	(hl),#0x40
   0392 23                 2198 	inc	hl
   0393 36 FF              2199 	ld	(hl),#0xFF
                           2200 ;	genPointerGet
                           2201 ;	AOP_STK for _output_text_sloc0_1_0
                           2202 ;	AOP_STK for _output_text_sloc1_1_0
   0395 2B                 2203 	dec	hl
   0396 5E                 2204 	ld	e,(hl)
   0397 23                 2205 	inc	hl
   0398 56                 2206 	ld	d,(hl)
   0399 1A                 2207 	ld	a,(de)
   039A 2B                 2208 	dec	hl
   039B 2B                 2209 	dec	hl
                           2210 ;	genOr
                           2211 ;	AOP_STK for _output_text_sloc1_1_0
   039C 77                 2212 	ld      (hl),a
                           2213 ; Removed redundent load
   039D F6 80              2214 	or	a,#0x80
                           2215 ;	genAssign (pointer)
   039F 02                 2216 	ld	(bc),a
                           2217 ;	level_1/level_1.c 119
                           2218 ;	genAssign
   03A0 01 40 FF           2219 	ld	bc,#0xFF40
                           2220 ;	genAssign
                           2221 ;	AOP_STK for _output_text_sloc0_1_0
   03A3 23                 2222 	inc	hl
   03A4 36 40              2223 	ld	(hl),#0x40
   03A6 23                 2224 	inc	hl
   03A7 36 FF              2225 	ld	(hl),#0xFF
                           2226 ;	genPointerGet
                           2227 ;	AOP_STK for _output_text_sloc0_1_0
                           2228 ;	AOP_STK for _output_text_sloc1_1_0
   03A9 2B                 2229 	dec	hl
   03AA 5E                 2230 	ld	e,(hl)
   03AB 23                 2231 	inc	hl
   03AC 56                 2232 	ld	d,(hl)
   03AD 1A                 2233 	ld	a,(de)
   03AE 2B                 2234 	dec	hl
   03AF 2B                 2235 	dec	hl
                           2236 ;	genAnd
                           2237 ;	AOP_STK for _output_text_sloc1_1_0
   03B0 77                 2238 	ld      (hl),a
                           2239 ; Removed redundent load
   03B1 E6 FD              2240 	and	a,#0xFD
                           2241 ;	genAssign (pointer)
   03B3 02                 2242 	ld	(bc),a
                           2243 ;	level_1/level_1.c 120
                           2244 ;	genCall
                           2245 ; _saveRegsForCall: sendSetSize: 0 deInUse: 0 bcInUse: 0 deSending: 0
   03B4 CD BA 03           2246 	call	_level_1_sprite_setup
                           2247 ;	genLabel
   03B7                    2248 00107$:
                           2249 ;	genEndFunction
   03B7 E8 03              2250 	lda	sp,3(sp)
   03B9 C9                 2251 	ret
   03BA                    2252 ___output_text_end:
                           2253 ;	level_1/level_1.c 124
                           2254 ;	genLabel
                           2255 ;	genFunction
                           2256 ;	---------------------------------
                           2257 ; Function level_1_sprite_setup
                           2258 ; ---------------------------------
   03BA                    2259 ___level_1_sprite_setup_start:
   03BA                    2260 _level_1_sprite_setup:
   03BA E8 F9              2261 	lda	sp,-7(sp)
                           2262 ;	level_1/level_1.c 131
                           2263 ;	genAssign (pointer)
   03BC 11 77 1A           2264 	ld	de,#_hero_pos
   03BF 3E 46              2265 	ld	a,#0x46
   03C1 12                 2266 	ld	(de),a
                           2267 ;	level_1/level_1.c 132
                           2268 ;	genPlus
                           2269 ;	genPlusIncr
   03C2 01 78 1A           2270 	ld	bc,#_hero_pos + 1
                           2271 ;	genAssign (pointer)
   03C5 3E 41              2272 	ld	a,#0x41
   03C7 02                 2273 	ld	(bc),a
                           2274 ;	level_1/level_1.c 134
                           2275 ;	genPlus
                           2276 ;	AOP_STK for _level_1_sprite_setup_sloc0_1_0
                           2277 ;	genPlusIncr
                           2278 ;	Can't optimise plus by inc, falling back to the normal way
   03C8 11 77 1A           2279 	ld	de,#_hero_pos
   03CB 21 02 00           2280 	ld	hl,#0x0002
   03CE 19                 2281 	add	hl,de
   03CF 7D                 2282 	ld	a,l
   03D0 54                 2283 	ld	d,h
   03D1 F8 05              2284 	lda	hl,5(sp)
   03D3 22                 2285 	ld	(hl+),a
   03D4 72                 2286 	ld	(hl),d
                           2287 ;	genPointerGet
                           2288 ;	AOP_STK for _level_1_sprite_setup_sloc1_1_0
   03D5 11 77 1A           2289 	ld	de,#_hero_pos
   03D8 1A                 2290 	ld	a,(de)
   03D9 2B                 2291 	dec	hl
   03DA 2B                 2292 	dec	hl
                           2293 ;	genPlus
                           2294 ;	AOP_STK for _level_1_sprite_setup_sloc1_1_0
                           2295 ;	AOP_STK for _level_1_sprite_setup_sloc2_1_0
                           2296 ;	genPlusIncr
                           2297 ;	Can't optimise plus by inc, falling back to the normal way
   03DB 77                 2298 	ld      (hl),a
   03DC 7F                 2299 	ld      a,a
   03DD C6 08              2300 	add	a,#0x08
   03DF 2B                 2301 	dec	hl
                           2302 ;	genAssign (pointer)
                           2303 ;	AOP_STK for _level_1_sprite_setup_sloc0_1_0
                           2304 ;	AOP_STK for _level_1_sprite_setup_sloc2_1_0
   03E0 22                 2305 	ld	(hl+),a
   03E1 23                 2306 	inc	hl
   03E2 5E                 2307 	ld	e,(hl)
   03E3 23                 2308 	inc	hl
   03E4 56                 2309 	ld	d,(hl)
   03E5 F8 03              2310 	lda	hl,3(sp)
   03E7 7E                 2311 	ld	a,(hl)
   03E8 12                 2312 	ld	(de),a
                           2313 ;	level_1/level_1.c 135
                           2314 ;	genPlus
                           2315 ;	AOP_STK for _level_1_sprite_setup_sloc0_1_0
                           2316 ;	genPlusIncr
                           2317 ;	Can't optimise plus by inc, falling back to the normal way
   03E9 11 77 1A           2318 	ld	de,#_hero_pos
   03EC 21 03 00           2319 	ld	hl,#0x0003
   03EF 19                 2320 	add	hl,de
   03F0 7D                 2321 	ld	a,l
   03F1 54                 2322 	ld	d,h
   03F2 F8 05              2323 	lda	hl,5(sp)
   03F4 22                 2324 	ld	(hl+),a
   03F5 72                 2325 	ld	(hl),d
                           2326 ;	genPointerGet
                           2327 ;	AOP_STK for _level_1_sprite_setup_sloc1_1_0
   03F6 0A                 2328 	ld	a,(bc)
   03F7 2B                 2329 	dec	hl
   03F8 2B                 2330 	dec	hl
                           2331 ;	genAssign (pointer)
                           2332 ;	AOP_STK for _level_1_sprite_setup_sloc0_1_0
                           2333 ;	AOP_STK for _level_1_sprite_setup_sloc1_1_0
   03F9 22                 2334 	ld	(hl+),a
   03FA 5E                 2335 	ld	e,(hl)
   03FB 23                 2336 	inc	hl
   03FC 56                 2337 	ld	d,(hl)
   03FD 2B                 2338 	dec	hl
   03FE 2B                 2339 	dec	hl
   03FF 7E                 2340 	ld	a,(hl)
   0400 12                 2341 	ld	(de),a
                           2342 ;	level_1/level_1.c 137
                           2343 ;	genAssign
                           2344 ;	AOP_STK for _level_1_sprite_setup_sloc0_1_0
   0401 23                 2345 	inc	hl
   0402 36 40              2346 	ld	(hl),#0x40
   0404 23                 2347 	inc	hl
   0405 36 FF              2348 	ld	(hl),#0xFF
                           2349 ;	genAssign
                           2350 ;	AOP_STK for _level_1_sprite_setup_sloc3_1_0
   0407 F8 01              2351 	lda	hl,1(sp)
   0409 36 40              2352 	ld	(hl),#0x40
   040B 23                 2353 	inc	hl
   040C 36 FF              2354 	ld	(hl),#0xFF
                           2355 ;	genPointerGet
                           2356 ;	AOP_STK for _level_1_sprite_setup_sloc3_1_0
                           2357 ;	AOP_STK for _level_1_sprite_setup_sloc4_1_0
   040E 2B                 2358 	dec	hl
   040F 5E                 2359 	ld	e,(hl)
   0410 23                 2360 	inc	hl
   0411 56                 2361 	ld	d,(hl)
   0412 1A                 2362 	ld	a,(de)
   0413 2B                 2363 	dec	hl
   0414 2B                 2364 	dec	hl
                           2365 ;	genOr
                           2366 ;	AOP_STK for _level_1_sprite_setup_sloc4_1_0
   0415 77                 2367 	ld      (hl),a
   0416 7F                 2368 	ld      a,a
   0417 F6 04              2369 	or	a,#0x04
                           2370 ;	genAssign (pointer)
                           2371 ;	AOP_STK for _level_1_sprite_setup_sloc0_1_0
   0419 F8 05              2372 	lda	hl,5(sp)
   041B 5E                 2373 	ld	e,(hl)
   041C 23                 2374 	inc	hl
   041D 56                 2375 	ld	d,(hl)
   041E 12                 2376 	ld	(de),a
                           2377 ;	level_1/level_1.c 138
                           2378 ;	genIpush
                           2379 ; _saveRegsForCall: sendSetSize: 0 deInUse: 0 bcInUse: 1 deSending: 0
   041F C5                 2380 	push	bc
   0420 21 F6 19           2381 	ld	hl,#_hero_front_idle
   0423 E5                 2382 	push	hl
                           2383 ;	genIpush
   0424 21 00 07           2384 	ld	hl,#0x0700
   0427 E5                 2385 	push	hl
                           2386 ;	genCall
   0428 CD 00 00           2387 	call	_set_sprite_data
   042B E8 04              2388 	lda	sp,4(sp)
   042D C1                 2389 	pop	bc
                           2390 ;	level_1/level_1.c 139
                           2391 ;	genIpush
                           2392 ; _saveRegsForCall: sendSetSize: 0 deInUse: 0 bcInUse: 1 deSending: 0
   042E C5                 2393 	push	bc
   042F 21 00 00           2394 	ld	hl,#0x0000
   0432 E5                 2395 	push	hl
                           2396 ;	genCall
   0433 CD 00 00           2397 	call	_set_sprite_tile
   0436 E8 02              2398 	lda	sp,2(sp)
   0438 C1                 2399 	pop	bc
                           2400 ;	level_1/level_1.c 140
                           2401 ;	genIpush
                           2402 ; _saveRegsForCall: sendSetSize: 0 deInUse: 0 bcInUse: 1 deSending: 0
   0439 C5                 2403 	push	bc
   043A 21 01 02           2404 	ld	hl,#0x0201
   043D E5                 2405 	push	hl
                           2406 ;	genCall
   043E CD 00 00           2407 	call	_set_sprite_tile
   0441 E8 02              2408 	lda	sp,2(sp)
   0443 C1                 2409 	pop	bc
                           2410 ;	level_1/level_1.c 142
                           2411 ;	genPointerGet
   0444 0A                 2412 	ld	a,(bc)
   0445 4F                 2413 	ld	c,a
                           2414 ;	genPointerGet
   0446 11 77 1A           2415 	ld	de,#_hero_pos
   0449 1A                 2416 	ld	a,(de)
   044A 47                 2417 	ld	b,a
                           2418 ;	genIpush
                           2419 ; _saveRegsForCall: sendSetSize: 0 deInUse: 0 bcInUse: 0 deSending: 0
   044B 79                 2420 	ld	a,c
   044C F5                 2421 	push	af
   044D 33                 2422 	inc	sp
                           2423 ;	genIpush
   044E 78                 2424 	ld	a,b
   044F F5                 2425 	push	af
   0450 33                 2426 	inc	sp
                           2427 ;	genIpush
   0451 3E 00              2428 	ld	a,#0x00
   0453 F5                 2429 	push	af
   0454 33                 2430 	inc	sp
                           2431 ;	genCall
   0455 CD 00 00           2432 	call	_move_sprite
   0458 E8 03              2433 	lda	sp,3(sp)
                           2434 ;	level_1/level_1.c 143
                           2435 ;	genIpush
                           2436 ; _saveRegsForCall: sendSetSize: 0 deInUse: 0 bcInUse: 0 deSending: 0
                           2437 ;	AOP_STK for _level_1_sprite_setup_sloc1_1_0
   045A F8 04              2438 	lda	hl,4(sp)
   045C 7E                 2439 	ld	a,(hl)
   045D F5                 2440 	push	af
   045E 33                 2441 	inc	sp
                           2442 ;	genIpush
                           2443 ;	AOP_STK for _level_1_sprite_setup_sloc2_1_0
   045F 2B                 2444 	dec	hl
   0460 7E                 2445 	ld	a,(hl)
   0461 F5                 2446 	push	af
   0462 33                 2447 	inc	sp
                           2448 ;	genIpush
   0463 3E 01              2449 	ld	a,#0x01
   0465 F5                 2450 	push	af
   0466 33                 2451 	inc	sp
                           2452 ;	genCall
   0467 CD 00 00           2453 	call	_move_sprite
   046A E8 03              2454 	lda	sp,3(sp)
                           2455 ;	level_1/level_1.c 145
                           2456 ;	genAssign
   046C 01 40 FF           2457 	ld	bc,#0xFF40
                           2458 ;	genAssign
                           2459 ;	AOP_STK for _level_1_sprite_setup_sloc3_1_0
   046F F8 01              2460 	lda	hl,1(sp)
   0471 36 40              2461 	ld	(hl),#0x40
   0473 23                 2462 	inc	hl
   0474 36 FF              2463 	ld	(hl),#0xFF
                           2464 ;	genPointerGet
                           2465 ;	AOP_STK for _level_1_sprite_setup_sloc3_1_0
                           2466 ;	AOP_STK for _level_1_sprite_setup_sloc4_1_0
   0476 2B                 2467 	dec	hl
   0477 5E                 2468 	ld	e,(hl)
   0478 23                 2469 	inc	hl
   0479 56                 2470 	ld	d,(hl)
   047A 1A                 2471 	ld	a,(de)
   047B 2B                 2472 	dec	hl
   047C 2B                 2473 	dec	hl
                           2474 ;	genOr
                           2475 ;	AOP_STK for _level_1_sprite_setup_sloc4_1_0
   047D 77                 2476 	ld      (hl),a
   047E 7F                 2477 	ld      a,a
   047F F6 02              2478 	or	a,#0x02
                           2479 ;	genAssign (pointer)
   0481 02                 2480 	ld	(bc),a
                           2481 ;	genLabel
   0482                    2482 00101$:
                           2483 ;	genEndFunction
   0482 E8 07              2484 	lda	sp,7(sp)
   0484 C9                 2485 	ret
   0485                    2486 ___level_1_sprite_setup_end:
                           2487 ;	main.c 11
                           2488 ;	genLabel
                           2489 ;	genFunction
                           2490 ;	---------------------------------
                           2491 ; Function main
                           2492 ; ---------------------------------
   0485                    2493 ___main_start:
   0485                    2494 _main:
                           2495 	
                           2496 ;	main.c 14
                           2497 ;	genCall
                           2498 ; _saveRegsForCall: sendSetSize: 0 deInUse: 0 bcInUse: 0 deSending: 0
   0485 CD 00 00           2499 	call	_opening
                           2500 ;	main.c 15
                           2501 ;	genCmpEq
                           2502 ;	AOP_HL for _option
                           2503 ; genCmpEq: left 2, right 2, result 0
   0488 21 92 09           2504 	ld	hl,#_option
   048B 7E                 2505 	ld	a,(hl)
   048C FE 01              2506 	cp	a,#0x01
   048E C2 99 04           2507 	jp	nz,00106$
   0491 23                 2508 	inc	hl
   0492 7E                 2509 	ld	a,(hl)
   0493 B7                 2510 	or	a,a
   0494 C2 9F 04           2511 	jp	nz,00103$
   0497 18 03              2512 	jr	00107$
   0499                    2513 00106$:
   0499 C3 9F 04           2514 	jp	00103$
   049C                    2515 00107$:
                           2516 ;	main.c 17
                           2517 ;	genCall
                           2518 ; _saveRegsForCall: sendSetSize: 0 deInUse: 0 bcInUse: 0 deSending: 0
   049C CD C5 01           2519 	call	_level_1_ctrl
                           2520 ;	genLabel
   049F                    2521 00103$:
                           2522 ;	genEndFunction
                           2523 	
   049F C9                 2524 	ret
   04A0                    2525 ___main_end:
                           2526 	.area _CODE
ASxxxx Assembler V01.75  (GameBoy Z80-like CPU), page 1.

Symbol Table

  0 ___check_pos_end                   00FC R
  0 ___check_pos_start                 00C2 R
  0 ___joypad_check_end                02D2 R
  0 ___joypad_check_start              02C2 R
  0 ___level_1_bkg_start_end           02C2 R
  0 ___level_1_bkg_start_start         01D2 R
  0 ___level_1_ctrl_end                01D2 R
  0 ___level_1_ctrl_start              01C5 R
  0 ___level_1_sprite_setup_end        0485 R
  0 ___level_1_sprite_setup_start      03BA R
  0 ___main_end                        04A0 R
  0 ___main_start                      0485 R
  0 ___opening_end                     001D R
  0 ___opening_start                   0000 R
  0 ___output_text_end                 03BA R
  0 ___output_text_start               02D2 R
  0 ___setup_bkg_end                   01C5 R
  0 ___setup_bkg_start                 0158 R
  0 ___setup_sprite_end                0158 R
  0 ___setup_sprite_start              00FC R
  0 ___start_up_end                    00C2 R
  0 ___start_up_start                  001D R
    __initrleblock                     **** GX
  1 _action                            1A7F GR
  1 _arrow_x                           0990 GR
  1 _arrow_y                           0991 GR
  0 _check_pos                         00C2 GR
  1 _choice                            0994 GR
    _delay                             **** GX
    _display_off                       **** GX
  1 _fisherman_pos                     1A7B GR
  1 _font                              0D7E GR
  1 _hero_front_idle                   19F6 GR
  1 _hero_pos                          1A77 GR
    _joypad                            **** GX
  0 _joypad_check                      02C2 GR
  0 _level_1_bkg_start                 01D2 GR
  0 _level_1_ctrl                      01C5 GR
  1 _level_1_screen                    0C16 GR
  1 _level_1_screen_tiles              0996 GR
  0 _level_1_sprite_setup              03BA GR
  0 _main                              0485 GR
    _move_sprite                       **** GX
  1 _open_screen                       0590 GR
  0 _opening                           0000 GR
  1 _option                            0992 GR
  0 _output_text                       02D2 GR
    _scroll_bkg                        **** GX
    _set_bkg_data                      **** GX
    _set_bkg_tiles                     **** GX
    _set_sprite_data                   **** GX
    _set_sprite_tile                   **** GX
  0 _setup_bkg                         0158 GR
  0 _setup_sprite                      00FC GR
  1 _ship_tiles                        0000 GR
  1 _shit_pot                          15F6 GR
  1 _shit_pot_tiles                    1526 GR
  0 _start_up                          001D GR
  1 _text_1_level_1                    10EE GR
  1 _text_2_level_1                    1256 GR
  1 _text_3_level_1                    13BE GR
  1 _text_count                        1A76 GR
    _wait_vbl_done                     **** GX

ASxxxx Assembler V01.75  (GameBoy Z80-like CPU), page 2.

Area Table

   0 _CODE                              size  4A0   flags 0
   1 _DATA                              size 1A80   flags 0
   2 _OVERLAY                           size    0   flags 0
   3 _ISEG                              size    0   flags 0
   4 _BSEG                              size    0   flags 0
   5 _XSEG                              size    0   flags 0
   6 _GSINIT                            size  FC0   flags 0
   7 _GSFINAL                           size    0   flags 0
   8 _HOME                              size    0   flags 0
