                              1 ;--------------------------------------------------------
                              2 ; File Created by SDCC : FreeWare ANSI-C Compiler
                              3 ; Version 2.3.1 Wed Nov 28 16:22:10 2018
                              4 
                              5 ;--------------------------------------------------------
                              6 	.module lcc41360
                              7 	
                              8 ;--------------------------------------------------------
                              9 ; Public variables in this module
                             10 ;--------------------------------------------------------
                             11 	.globl _main
                             12 	.globl _right
                             13 	.globl _left
                             14 	.globl _up
                             15 	.globl _down
                             16 	.globl _door
                             17 	.globl _black
                             18 	.globl _room1
                             19 	.globl _door_trig
                             20 	.globl _player
                             21 	.globl _the_tiles
                             22 	.globl _castle_town
                             23 	.globl _wizard
                             24 	.globl _setup_doors
                             25 	.globl _open_door
                             26 	.globl _scroll_doors
                             27 	.globl _door_collide
                             28 	.globl _enter_room
                             29 	.globl _bkg
                             30 	.globl _setup_sprites
                             31 	.globl _sprite_walk
                             32 	.globl _display_sprites
                             33 ;--------------------------------------------------------
                             34 ; special function registers
                             35 ;--------------------------------------------------------
                             36 ;--------------------------------------------------------
                             37 ; special function bits 
                             38 ;--------------------------------------------------------
                             39 ;--------------------------------------------------------
                             40 ; internal ram data
                             41 ;--------------------------------------------------------
                             42 	.area _DATA
   0000                      43 _wizard::
   0000                      44 	.ds 512
   0200                      45 _castle_town::
   0200                      46 	.ds 1440
   07A0                      47 _the_tiles::
   07A0                      48 	.ds 144
   0830                      49 _player::
   0830                      50 	.ds 4
   0834                      51 _door_trig::
   0834                      52 	.ds 320
   0974                      53 _room1::
   0974                      54 	.ds 360
   0ADC                      55 _black::
   0ADC                      56 	.ds 1440
   107C                      57 _door::
   107C                      58 	.ds 4
   1080                      59 _down::
   1080                      60 	.ds 1
   1081                      61 _up::
   1081                      62 	.ds 1
   1082                      63 _left::
   1082                      64 	.ds 1
   1083                      65 _right::
   1083                      66 	.ds 1
                             67 ;--------------------------------------------------------
                             68 ; overlayable items in internal ram 
                             69 ;--------------------------------------------------------
                             70 	.area _OVERLAY
                             71 ;--------------------------------------------------------
                             72 ; indirectly addressable internal ram data
                             73 ;--------------------------------------------------------
                             74 	.area _ISEG
                             75 ;--------------------------------------------------------
                             76 ; bit data
                             77 ;--------------------------------------------------------
                             78 	.area _BSEG
                             79 ;--------------------------------------------------------
                             80 ; external ram data
                             81 ;--------------------------------------------------------
                             82 	.area _XSEG
                             83 ;--------------------------------------------------------
                             84 ; global & static initialisations
                             85 ;--------------------------------------------------------
                             86 	.area _GSINIT
                             87 	.area _GSFINAL
                             88 	.area _GSINIT
                             89 ;	main.c 26
                             90 ;	main.c 20
                             91 ;	genArrayInit
                             92 ; _saveRegsForCall: sendSetSize: 0 deInUse: 0 bcInUse: 0 deSending: 0
   0000 21 00 00             93 	ld	hl,#_wizard
   0003 CD 00 00             94 	call	__initrleblock
   0006 7F                   95 	.db	127
   0007 0F 0F 1F 1F 1F 1F    96 	.db	0x0F, 0x0F, 0x1F, 0x1F, 0x1F, 0x1F, 0x3F, 0x3F
        3F 3F
   000F 64 1B 44 3B 60 1F    97 	.db	0x64, 0x1B, 0x44, 0x3B, 0x60, 0x1F, 0x3F, 0x3C
        3F 3C
   0017 7F 60 7F 43 4F 74    98 	.db	0x7F, 0x60, 0x7F, 0x43, 0x4F, 0x74, 0x4F, 0x73
        4F 73
   001F 7F 40 7F 40 7F 43    99 	.db	0x7F, 0x40, 0x7F, 0x40, 0x7F, 0x43, 0x7F, 0x7F
        7F 7F
   0027 C0 C0 E2 E0 E7 E0   100 	.db	0xC0, 0xC0, 0xE2, 0xE0, 0xE7, 0xE0, 0xF2, 0xF0
        F2 F0
   002F 9A 62 8A 72 1A E2   101 	.db	0x9A, 0x62, 0x8A, 0x72, 0x1A, 0xE2, 0xF2, 0xF2
        F2 F2
   0037 F8 1E F8 0E FA 8A   102 	.db	0xF8, 0x1E, 0xF8, 0x0E, 0xFA, 0x8A, 0xFA, 0x0A
        FA 0A
   003F FA 0A FA 0A FA FA   103 	.db	0xFA, 0x0A, 0xFA, 0x0A, 0xFA, 0xFA, 0x02, 0xF0
        02 F0
   0047 0F 0F 1F 1F 1F 1F   104 	.db	0x0F, 0x0F, 0x1F, 0x1F, 0x1F, 0x1F, 0x3F, 0x3F
        3F 3F
   004F 64 1B 44 3B 60 1F   105 	.db	0x64, 0x1B, 0x44, 0x3B, 0x60, 0x1F, 0x3F, 0x3C
        3F 3C
   0057 7F 70 4F 73 4F 74   106 	.db	0x7F, 0x70, 0x4F, 0x73, 0x4F, 0x74, 0x7F, 0x43
        7F 43
   005F 7F 40 7F 40 7F 7E   107 	.db	0x7F, 0x40, 0x7F, 0x40, 0x7F, 0x7E, 0x03, 0x3F
        03 3F
   0067 C2 C0 E7 E0 E2 E0   108 	.db	0xC2, 0xC0, 0xE7, 0xE0, 0xE2, 0xE0, 0xF2, 0xF2
        F2 F2
   006F 9A 62 8A 72 1A E2   109 	.db	0x9A, 0x62, 0x8A, 0x72, 0x1A, 0xE2, 0xF8, 0xFE
        F8 FE
   0077 F8 0E FA 0A FA 8A   110 	.db	0xF8, 0x0E, 0xFA, 0x0A, 0xFA, 0x8A, 0xFA, 0x0A
        FA 0A
   007F FA 0A FA 0A FA 08   111 	.db	0xFA, 0x0A, 0xFA, 0x0A, 0xFA, 0x08, 0xF8
        F8
   0086 7F                  112 	.db	127
   0087 F8 07 07 0F 0F 1F   113 	.db	0xF8, 0x07, 0x07, 0x0F, 0x0F, 0x1F, 0x1F, 0x3F
        1F 3F
   008F 3F 08 17 08 17 00   114 	.db	0x3F, 0x08, 0x17, 0x08, 0x17, 0x00, 0x1F, 0x07
        1F 07
   0097 07 0F 08 0F 0B 4C   115 	.db	0x07, 0x0F, 0x08, 0x0F, 0x0B, 0x4C, 0x0B, 0xFC
        0B FC
   009F 1F 4F 0B 0F 08 0F   116 	.db	0x1F, 0x4F, 0x0B, 0x0F, 0x08, 0x0F, 0x0F, 0x00
        0F 00
   00A7 0F 80 80 C0 C0 E0   117 	.db	0x0F, 0x80, 0x80, 0xC0, 0xC0, 0xE0, 0xE0, 0xF0
        E0 F0
   00AF F0 F0 00 38 C0 78   118 	.db	0xF0, 0xF0, 0x00, 0x38, 0xC0, 0x78, 0x80, 0xF0
        80 F0
   00B7 F0 F8 08 F8 88 F8   119 	.db	0xF0, 0xF8, 0x08, 0xF8, 0x88, 0xF8, 0x48, 0xFC
        48 FC
   00BF F8 FC 04 FC 04 FE   120 	.db	0xF8, 0xFC, 0x04, 0xFC, 0x04, 0xFE, 0x02, 0xFE
        02 FE
   00C7 FE 07 07 0F 0F 1F   121 	.db	0xFE, 0x07, 0x07, 0x0F, 0x0F, 0x1F, 0x1F, 0x3F
        1F 3F
   00CF 3F 08 17 08 17 00   122 	.db	0x3F, 0x08, 0x17, 0x08, 0x17, 0x00, 0x1F, 0x07
        1F 07
   00D7 07 0F 08 0F 08 0F   123 	.db	0x07, 0x0F, 0x08, 0x0F, 0x08, 0x0F, 0x0B, 0x4C
        0B 4C
   00DF 0B FC 1F 4F 08 0F   124 	.db	0x0B, 0xFC, 0x1F, 0x4F, 0x08, 0x0F, 0x08, 0x0F
        08 0F
   00E7 0F 80 80 C0 C0 E0   125 	.db	0x0F, 0x80, 0x80, 0xC0, 0xC0, 0xE0, 0xE0, 0xF0
        E0 F0
   00EF F0 F0 00 38 C0 78   126 	.db	0xF0, 0xF0, 0x00, 0x38, 0xC0, 0x78, 0x80, 0xF0
        80 F0
   00F7 F0 F8 08 F8 08 F8   127 	.db	0xF0, 0xF8, 0x08, 0xF8, 0x08, 0xF8, 0x88, 0xF8
        88 F8
   00FF 48 FC F8 FC 04 FE   128 	.db	0x48, 0xFC, 0xF8, 0xFC, 0x04, 0xFE, 0x02
        02
   0106 7F                  129 	.db	127
   0107 FE FE 01 01 03 03   130 	.db	0xFE, 0xFE, 0x01, 0x01, 0x03, 0x03, 0x07, 0x07
        07 07
   010F 0F 0F 0F 00 1C 03   131 	.db	0x0F, 0x0F, 0x0F, 0x00, 0x1C, 0x03, 0x1E, 0x01
        1E 01
   0117 0F 0F 1F 10 1F 11   132 	.db	0x0F, 0x0F, 0x1F, 0x10, 0x1F, 0x11, 0x1F, 0x12
        1F 12
   011F 3F 1F 3F 20 3F 20   133 	.db	0x3F, 0x1F, 0x3F, 0x20, 0x3F, 0x20, 0x7F, 0x40
        7F 40
   0127 7F 7F E0 E0 F0 F0   134 	.db	0x7F, 0x7F, 0xE0, 0xE0, 0xF0, 0xF0, 0xF8, 0xF8
        F8 F8
   012F FC FC 10 E8 10 E8   135 	.db	0xFC, 0xFC, 0x10, 0xE8, 0x10, 0xE8, 0x00, 0xF8
        00 F8
   0137 E0 E0 F0 10 F0 D0   136 	.db	0xE0, 0xE0, 0xF0, 0x10, 0xF0, 0xD0, 0x32, 0xD0
        32 D0
   013F 3F F8 F2 D0 F0 10   137 	.db	0x3F, 0xF8, 0xF2, 0xD0, 0xF0, 0x10, 0xF0, 0xF0
        F0 F0
   0147 00 F0 01 01 03 03   138 	.db	0x00, 0xF0, 0x01, 0x01, 0x03, 0x03, 0x07, 0x07
        07 07
   014F 0F 0F 0F 00 1C 03   139 	.db	0x0F, 0x0F, 0x0F, 0x00, 0x1C, 0x03, 0x1E, 0x01
        1E 01
   0157 0F 0F 1F 10 1F 10   140 	.db	0x0F, 0x0F, 0x1F, 0x10, 0x1F, 0x10, 0x1F, 0x11
        1F 11
   015F 1F 12 3F 1F 3F 20   141 	.db	0x1F, 0x12, 0x3F, 0x1F, 0x3F, 0x20, 0x7F, 0x40
        7F 40
   0167 7F 7F E0 E0 F0 F0   142 	.db	0x7F, 0x7F, 0xE0, 0xE0, 0xF0, 0xF0, 0xF8, 0xF8
        F8 F8
   016F FC FC 10 E8 10 E8   143 	.db	0xFC, 0xFC, 0x10, 0xE8, 0x10, 0xE8, 0x00, 0xF8
        00 F8
   0177 E0 E0 F0 10 F0 10   144 	.db	0xE0, 0xE0, 0xF0, 0x10, 0xF0, 0x10, 0xF0, 0xD0
        F0 D0
   017F 32 D0 3F F8 F2 10   145 	.db	0x32, 0xD0, 0x3F, 0xF8, 0xF2, 0x10, 0xF0
        F0
   0186 7F                  146 	.db	127
   0187 10 F0 F0 03 03 47   147 	.db	0x10, 0xF0, 0xF0, 0x03, 0x03, 0x47, 0x07, 0xE7
        07 E7
   018F 07 4F 0F 5F 40 5F   148 	.db	0x07, 0x4F, 0x0F, 0x5F, 0x40, 0x5F, 0x40, 0x5F
        40 5F
   0197 40 4F 4F 1F 78 1F   149 	.db	0x40, 0x4F, 0x4F, 0x1F, 0x78, 0x1F, 0x70, 0x5F
        70 5F
   019F 50 5F 50 5F 50 5F   150 	.db	0x50, 0x5F, 0x50, 0x5F, 0x50, 0x5F, 0x50, 0x5F
        50 5F
   01A7 5F 40 0F F0 F0 F8   151 	.db	0x5F, 0x40, 0x0F, 0xF0, 0xF0, 0xF8, 0xF8, 0xF8
        F8 F8
   01AF F8 FC FC FE 00 FE   152 	.db	0xF8, 0xFC, 0xFC, 0xFE, 0x00, 0xFE, 0x00, 0xFE
        00 FE
   01B7 00 FC FC FE 06 FE   153 	.db	0x00, 0xFC, 0xFC, 0xFE, 0x06, 0xFE, 0x02, 0xFE
        02 FE
   01BF 02 FE 02 FE 02 FE   154 	.db	0x02, 0xFE, 0x02, 0xFE, 0x02, 0xFE, 0x02, 0xFE
        02 FE
   01C7 C2 FE FE 43 03 E7   155 	.db	0xC2, 0xFE, 0xFE, 0x43, 0x03, 0xE7, 0x07, 0x47
        07 47
   01CF 07 4F 4F 5F 40 5F   156 	.db	0x07, 0x4F, 0x4F, 0x5F, 0x40, 0x5F, 0x40, 0x5F
        40 5F
   01D7 40 1F 7F 1F 70 5F   157 	.db	0x40, 0x1F, 0x7F, 0x1F, 0x70, 0x5F, 0x50, 0x5F
        50 5F
   01DF 50 5F 50 5F 50 5F   158 	.db	0x50, 0x5F, 0x50, 0x5F, 0x50, 0x5F, 0x50, 0x5F
        50 5F
   01E7 10 1F 1F F0 F0 F8   159 	.db	0x10, 0x1F, 0x1F, 0xF0, 0xF0, 0xF8, 0xF8, 0xF8
        F8 F8
   01EF F8 FC FC FE 00 FE   160 	.db	0xF8, 0xFC, 0xFC, 0xFE, 0x00, 0xFE, 0x00, 0xFE
        00 FE
   01F7 00 FC FC FE 02 FE   161 	.db	0x00, 0xFC, 0xFC, 0xFE, 0x02, 0xFE, 0x02, 0xFE
        02 FE
   01FF 02 FE 02 FE 02 FE   162 	.db	0x02, 0xFE, 0x02, 0xFE, 0x02, 0xFE, 0x02
        02
   0206 04                  163 	.db	4
   0207 FE 7E C0 FC         164 	.db	0xFE, 0x7E, 0xC0, 0xFC
   020B 00                  165 	.db	0
                            166 ;	main.c 25
                            167 ;	main.c 20
                            168 ;	genArrayInit
                            169 ; _saveRegsForCall: sendSetSize: 0 deInUse: 0 bcInUse: 0 deSending: 0
   020C 21 00 02            170 	ld	hl,#_castle_town
   020F CD 00 00            171 	call	__initrleblock
   0212 F5 01               172 	.db	-11,0x01
   0214 FA 00               173 	.db	-6,0x00
   0216 EE 01               174 	.db	-18,0x01
   0218 02                  175 	.db	2
   0219 00 00               176 	.db	0x00, 0x00
   021B F7 01               177 	.db	-9,0x01
   021D FA 00               178 	.db	-6,0x00
   021F 04                  179 	.db	4
   0220 01 01 01 01         180 	.db	0x01, 0x01, 0x01, 0x01
   0224 F3 00               181 	.db	-13,0x00
   0226 06                  182 	.db	6
   0227 01 01 01 01 00 00   183 	.db	0x01, 0x01, 0x01, 0x01, 0x00, 0x00
   022D F4 01               184 	.db	-12,0x01
   022F 0C                  185 	.db	12
   0230 00 00 01 00 00 00   186 	.db	0x00, 0x00, 0x01, 0x00, 0x00, 0x00, 0x01, 0x00
        01 00
   0238 01 00 01 00         187 	.db	0x01, 0x00, 0x01, 0x00
   023C FB 01               188 	.db	-5,0x01
   023E 04                  189 	.db	4
   023F 00 01 01 01         190 	.db	0x00, 0x01, 0x01, 0x01
   0243 FA 00               191 	.db	-6,0x00
   0245 E3 01               192 	.db	-29,0x01
   0247 01                  193 	.db	1
   0248 00                  194 	.db	0x00
   0249 F9 01               195 	.db	-7,0x01
   024B 02                  196 	.db	2
   024C 00 00               197 	.db	0x00, 0x00
   024E FA 01               198 	.db	-6,0x01
   0250 04                  199 	.db	4
   0251 00 01 01 01         200 	.db	0x00, 0x01, 0x01, 0x01
   0255 F7 00               201 	.db	-9,0x00
   0257 F8 01               202 	.db	-8,0x01
   0259 09                  203 	.db	9
   025A 00 00 00 01 01 00   204 	.db	0x00, 0x00, 0x00, 0x01, 0x01, 0x00, 0x01, 0x00
        01 00
   0262 01                  205 	.db	0x01
   0263 FB 00               206 	.db	-5,0x00
   0265 FB 01               207 	.db	-5,0x01
   0267 03                  208 	.db	3
   0268 00 01 01            209 	.db	0x00, 0x01, 0x01
   026B F0 00               210 	.db	-16,0x00
   026D 0A                  211 	.db	10
   026E 01 01 00 00 00 00   212 	.db	0x01, 0x01, 0x00, 0x00, 0x00, 0x00, 0x01, 0x01
        01 01
   0276 01 01               213 	.db	0x01, 0x01
   0278 F9 00               214 	.db	-7,0x00
   027A 08                  215 	.db	8
   027B 01 01 01 01 00 01   216 	.db	0x01, 0x01, 0x01, 0x01, 0x00, 0x01, 0x01, 0x01
        01 01
   0283 F2 00               217 	.db	-14,0x00
   0285 19                  218 	.db	25
   0286 01 01 01 00 01 01   219 	.db	0x01, 0x01, 0x01, 0x00, 0x01, 0x01, 0x01, 0x01
        01 01
   028E 00 00 00 01 00 01   220 	.db	0x00, 0x00, 0x00, 0x01, 0x00, 0x01, 0x00, 0x00
        00 00
   0296 01 00 01 01 01 01   221 	.db	0x01, 0x00, 0x01, 0x01, 0x01, 0x01, 0x00, 0x01
        00 01
   029E 01                  222 	.db	0x01
   029F F1 08               223 	.db	-15,0x08
   02A1 F9 01               224 	.db	-7,0x01
   02A3 0A                  225 	.db	10
   02A4 00 00 01 01 01 01   226 	.db	0x00, 0x00, 0x01, 0x01, 0x01, 0x01, 0x00, 0x00
        00 00
   02AC 00 00               227 	.db	0x00, 0x00
   02AE FB 01               228 	.db	-5,0x01
   02B0 03                  229 	.db	3
   02B1 00 01 01            230 	.db	0x00, 0x01, 0x01
   02B4 F1 08               231 	.db	-15,0x08
   02B6 F8 01               232 	.db	-8,0x01
   02B8 07                  233 	.db	7
   02B9 00 01 01 01 01 00   234 	.db	0x00, 0x01, 0x01, 0x01, 0x01, 0x00, 0x00
        00
   02C0 FA 01               235 	.db	-6,0x01
   02C2 0D                  236 	.db	13
   02C3 00 00 01 01 08 08   237 	.db	0x00, 0x00, 0x01, 0x01, 0x08, 0x08, 0x08, 0x08
        08 08
   02CB 02 08 02 08 02      238 	.db	0x02, 0x08, 0x02, 0x08, 0x02
   02D0 FA 08               239 	.db	-6,0x08
   02D2 F9 01               240 	.db	-7,0x01
   02D4 F7 00               241 	.db	-9,0x00
   02D6 12                  242 	.db	18
   02D7 01 01 01 00 00 00   243 	.db	0x01, 0x01, 0x01, 0x00, 0x00, 0x00, 0x00, 0x01
        00 01
   02DF 01 08 08 08 08 02   244 	.db	0x01, 0x08, 0x08, 0x08, 0x08, 0x02, 0x08, 0x02
        08 02
   02E7 08 02               245 	.db	0x08, 0x02
   02E9 FA 08               246 	.db	-6,0x08
   02EB 01                  247 	.db	1
   02EC 00                  248 	.db	0x00
   02ED F7 01               249 	.db	-9,0x01
   02EF FA 00               250 	.db	-6,0x00
   02F1 12                  251 	.db	18
   02F2 01 01 00 01 01 01   252 	.db	0x01, 0x01, 0x00, 0x01, 0x01, 0x01, 0x00, 0x00
        00 00
   02FA 01 08 08 08 08 02   253 	.db	0x01, 0x08, 0x08, 0x08, 0x08, 0x02, 0x08, 0x02
        08 02
   0302 08 02               254 	.db	0x08, 0x02
   0304 FA 08               255 	.db	-6,0x08
   0306 01                  256 	.db	1
   0307 00                  257 	.db	0x00
   0308 F6 01               258 	.db	-10,0x01
   030A FA 00               259 	.db	-6,0x00
   030C 08                  260 	.db	8
   030D 01 00 00 01 01 00   261 	.db	0x01, 0x00, 0x00, 0x01, 0x01, 0x00, 0x01, 0x00
        01 00
   0315 F1 08               262 	.db	-15,0x08
   0317 01                  263 	.db	1
   0318 00                  264 	.db	0x00
   0319 F8 01               265 	.db	-8,0x01
   031B FB 00               266 	.db	-5,0x00
   031D 0B                  267 	.db	11
   031E 01 01 00 00 01 00   268 	.db	0x01, 0x01, 0x00, 0x00, 0x01, 0x00, 0x00, 0x01
        00 01
   0326 00 00 00            269 	.db	0x00, 0x00, 0x00
   0329 F1 08               270 	.db	-15,0x08
   032B 02                  271 	.db	2
   032C 00 00               272 	.db	0x00, 0x00
   032E F9 01               273 	.db	-7,0x01
   0330 FB 00               274 	.db	-5,0x00
   0332 0E                  275 	.db	14
   0333 01 01 01 00 01 01   276 	.db	0x01, 0x01, 0x01, 0x00, 0x01, 0x01, 0x01, 0x01
        01 01
   033B 00 00 00 08 02 02   277 	.db	0x00, 0x00, 0x00, 0x08, 0x02, 0x02
   0341 F8 08               278 	.db	-8,0x08
   0343 0A                  279 	.db	10
   0344 02 02 08 08 00 00   280 	.db	0x02, 0x02, 0x08, 0x08, 0x00, 0x00, 0x01, 0x01
        01 01
   034C 01 01               281 	.db	0x01, 0x01
   034E F9 00               282 	.db	-7,0x00
   0350 0F                  283 	.db	15
   0351 01 01 01 01 00 01   284 	.db	0x01, 0x01, 0x01, 0x01, 0x00, 0x01, 0x00, 0x01
        00 01
   0359 00 01 01 00 08 02   285 	.db	0x00, 0x01, 0x01, 0x00, 0x08, 0x02, 0x02
        02
   0360 F8 08               286 	.db	-8,0x08
   0362 07                  287 	.db	7
   0363 02 02 08 08 00 01   288 	.db	0x02, 0x02, 0x08, 0x08, 0x00, 0x01, 0x01
        01
   036A F9 00               289 	.db	-7,0x00
   036C FA 01               290 	.db	-6,0x01
   036E 09                  291 	.db	9
   036F 00 00 00 01 01 01   292 	.db	0x00, 0x00, 0x00, 0x01, 0x01, 0x01, 0x01, 0x00
        01 00
   0377 00                  293 	.db	0x00
   0378 F1 08               294 	.db	-15,0x08
   037A 05                  295 	.db	5
   037B 00 01 00 00 00      296 	.db	0x00, 0x01, 0x00, 0x00, 0x00
   0380 EE 01               297 	.db	-18,0x01
   0382 02                  298 	.db	2
   0383 00 00               299 	.db	0x00, 0x00
   0385 FB 08               300 	.db	-5,0x08
   0387 02                  301 	.db	2
   0388 04 06               302 	.db	0x04, 0x06
   038A F8 08               303 	.db	-8,0x08
   038C 02                  304 	.db	2
   038D 01 00               305 	.db	0x01, 0x00
   038F F9 01               306 	.db	-7,0x01
   0391 F9 00               307 	.db	-7,0x00
   0393 F7 01               308 	.db	-9,0x01
   0395 FB 08               309 	.db	-5,0x08
   0397 0D                  310 	.db	13
   0398 05 07 08 03 03 03   311 	.db	0x05, 0x07, 0x08, 0x03, 0x03, 0x03, 0x08, 0x08
        08 08
   03A0 08 08 01 00 01      312 	.db	0x08, 0x08, 0x01, 0x00, 0x01
   03A5 F0 00               313 	.db	-16,0x00
   03A7 FB 01               314 	.db	-5,0x01
   03A9 F8 00               315 	.db	-8,0x00
   03AB 0C                  316 	.db	12
   03AC 01 03 03 03 01 01   317 	.db	0x01, 0x03, 0x03, 0x03, 0x01, 0x01, 0x01, 0x00
        01 00
   03B4 01 00 01 01         318 	.db	0x01, 0x00, 0x01, 0x01
   03B8 F2 00               319 	.db	-14,0x00
   03BA FA 01               320 	.db	-6,0x01
   03BC 0B                  321 	.db	11
   03BD 00 00 01 01 01 00   322 	.db	0x00, 0x00, 0x01, 0x01, 0x01, 0x00, 0x00, 0x00
        00 00
   03C5 01 01 03            323 	.db	0x01, 0x01, 0x03
   03C8 FB 01               324 	.db	-5,0x01
   03CA 03                  325 	.db	3
   03CB 00 00 01            326 	.db	0x00, 0x00, 0x01
   03CE F1 08               327 	.db	-15,0x08
   03D0 F5 01               328 	.db	-11,0x01
   03D2 04                  329 	.db	4
   03D3 00 00 00 00         330 	.db	0x00, 0x00, 0x00, 0x00
   03D7 FA 01               331 	.db	-6,0x01
   03D9 04                  332 	.db	4
   03DA 00 00 00 01         333 	.db	0x00, 0x00, 0x00, 0x01
   03DE F1 08               334 	.db	-15,0x08
   03E0 03                  335 	.db	3
   03E1 01 01 00            336 	.db	0x01, 0x01, 0x00
   03E4 F7 01               337 	.db	-9,0x01
   03E6 16                  338 	.db	22
   03E7 00 00 01 01 00 00   339 	.db	0x00, 0x00, 0x01, 0x01, 0x00, 0x00, 0x00, 0x01
        00 01
   03EF 00 00 00 01 01 08   340 	.db	0x00, 0x00, 0x00, 0x01, 0x01, 0x08, 0x08, 0x08
        08 08
   03F7 08 02 08 02 08 02   341 	.db	0x08, 0x02, 0x08, 0x02, 0x08, 0x02
   03FD FA 08               342 	.db	-6,0x08
   03FF 03                  343 	.db	3
   0400 01 01 00            344 	.db	0x01, 0x01, 0x00
   0403 F7 01               345 	.db	-9,0x01
   0405 F6 00               346 	.db	-10,0x00
   0407 0C                  347 	.db	12
   0408 01 01 01 08 08 08   348 	.db	0x01, 0x01, 0x01, 0x08, 0x08, 0x08, 0x08, 0x02
        08 02
   0410 08 02 08 02         349 	.db	0x08, 0x02, 0x08, 0x02
   0414 FA 08               350 	.db	-6,0x08
   0416 03                  351 	.db	3
   0417 00 01 00            352 	.db	0x00, 0x01, 0x00
   041A F7 01               353 	.db	-9,0x01
   041C F6 00               354 	.db	-10,0x00
   041E 0C                  355 	.db	12
   041F 01 01 01 08 08 08   356 	.db	0x01, 0x01, 0x01, 0x08, 0x08, 0x08, 0x08, 0x02
        08 02
   0427 08 02 08 02         357 	.db	0x08, 0x02, 0x08, 0x02
   042B FA 08               358 	.db	-6,0x08
   042D 03                  359 	.db	3
   042E 00 01 00            360 	.db	0x00, 0x01, 0x00
   0431 F5 01               361 	.db	-11,0x01
   0433 FB 00               362 	.db	-5,0x00
   0435 FB 01               363 	.db	-5,0x01
   0437 01                  364 	.db	1
   0438 00                  365 	.db	0x00
   0439 F1 08               366 	.db	-15,0x08
   043B 03                  367 	.db	3
   043C 00 01 00            368 	.db	0x00, 0x01, 0x00
   043F F7 01               369 	.db	-9,0x01
   0441 FB 00               370 	.db	-5,0x00
   0443 F9 01               371 	.db	-7,0x01
   0445 01                  372 	.db	1
   0446 00                  373 	.db	0x00
   0447 F1 08               374 	.db	-15,0x08
   0449 03                  375 	.db	3
   044A 00 00 00            376 	.db	0x00, 0x00, 0x00
   044D F8 01               377 	.db	-8,0x01
   044F 04                  378 	.db	4
   0450 00 00 00 00         379 	.db	0x00, 0x00, 0x00, 0x00
   0454 F7 01               380 	.db	-9,0x01
   0456 04                  381 	.db	4
   0457 00 08 02 02         382 	.db	0x00, 0x08, 0x02, 0x02
   045B F8 08               383 	.db	-8,0x08
   045D 07                  384 	.db	7
   045E 02 02 08 08 00 00   385 	.db	0x02, 0x02, 0x08, 0x08, 0x00, 0x00, 0x00
        00
   0465 F9 01               386 	.db	-7,0x01
   0467 FB 00               387 	.db	-5,0x00
   0469 F7 01               388 	.db	-9,0x01
   046B 04                  389 	.db	4
   046C 00 08 02 02         390 	.db	0x00, 0x08, 0x02, 0x02
   0470 F8 08               391 	.db	-8,0x08
   0472 07                  392 	.db	7
   0473 02 02 08 08 00 01   393 	.db	0x02, 0x02, 0x08, 0x08, 0x00, 0x01, 0x00
        00
   047A FA 01               394 	.db	-6,0x01
   047C 06                  395 	.db	6
   047D 00 01 00 00 00 00   396 	.db	0x00, 0x01, 0x00, 0x00, 0x00, 0x00
   0483 F7 01               397 	.db	-9,0x01
   0485 01                  398 	.db	1
   0486 00                  399 	.db	0x00
   0487 F1 08               400 	.db	-15,0x08
   0489 03                  401 	.db	3
   048A 00 01 00            402 	.db	0x00, 0x01, 0x00
   048D FA 01               403 	.db	-6,0x01
   048F FA 00               404 	.db	-6,0x00
   0491 F7 01               405 	.db	-9,0x01
   0493 01                  406 	.db	1
   0494 00                  407 	.db	0x00
   0495 FB 08               408 	.db	-5,0x08
   0497 02                  409 	.db	2
   0498 04 06               410 	.db	0x04, 0x06
   049A F8 08               411 	.db	-8,0x08
   049C 02                  412 	.db	2
   049D 01 00               413 	.db	0x01, 0x00
   049F FA 01               414 	.db	-6,0x01
   04A1 04                  415 	.db	4
   04A2 00 00 00 01         416 	.db	0x00, 0x00, 0x00, 0x01
   04A6 FB 00               417 	.db	-5,0x00
   04A8 F8 01               418 	.db	-8,0x01
   04AA FB 08               419 	.db	-5,0x08
   04AC 0C                  420 	.db	12
   04AD 05 07 08 03 03 03   421 	.db	0x05, 0x07, 0x08, 0x03, 0x03, 0x03, 0x08, 0x08
        08 08
   04B5 08 08 01 00         422 	.db	0x08, 0x08, 0x01, 0x00
   04B9 FA 01               423 	.db	-6,0x01
   04BB FA 00               424 	.db	-6,0x00
   04BD 0A                  425 	.db	10
   04BE 01 01 00 00 00 00   426 	.db	0x01, 0x01, 0x00, 0x00, 0x00, 0x00, 0x01, 0x01
        01 01
   04C6 01 01               427 	.db	0x01, 0x01
   04C8 F8 00               428 	.db	-8,0x00
   04CA 10                  429 	.db	16
   04CB 01 03 03 03 01 01   430 	.db	0x01, 0x03, 0x03, 0x03, 0x01, 0x01, 0x01, 0x00
        01 00
   04D3 01 00 01 00 01 01   431 	.db	0x01, 0x00, 0x01, 0x00, 0x01, 0x01, 0x01, 0x01
        01 01
   04DB FB 00               432 	.db	-5,0x00
   04DD FB 01               433 	.db	-5,0x01
   04DF 04                  434 	.db	4
   04E0 00 00 00 00         435 	.db	0x00, 0x00, 0x00, 0x00
   04E4 F6 01               436 	.db	-10,0x01
   04E6 04                  437 	.db	4
   04E7 00 00 03 00         438 	.db	0x00, 0x00, 0x03, 0x00
   04EB F9 01               439 	.db	-7,0x01
   04ED 05                  440 	.db	5
   04EE 00 01 01 01 01      441 	.db	0x00, 0x01, 0x01, 0x01, 0x01
   04F3 FB 00               442 	.db	-5,0x00
   04F5 FA 01               443 	.db	-6,0x01
   04F7 F6 00               444 	.db	-10,0x00
   04F9 02                  445 	.db	2
   04FA 01 01               446 	.db	0x01, 0x01
   04FC FA 00               447 	.db	-6,0x00
   04FE FA 01               448 	.db	-6,0x01
   0500 01                  449 	.db	1
   0501 00                  450 	.db	0x00
   0502 FB 01               451 	.db	-5,0x01
   0504 03                  452 	.db	3
   0505 00 00 00            453 	.db	0x00, 0x00, 0x00
   0508 F6 01               454 	.db	-10,0x01
   050A F5 00               455 	.db	-11,0x00
   050C 03                  456 	.db	3
   050D 01 01 01            457 	.db	0x01, 0x01, 0x01
   0510 F8 00               458 	.db	-8,0x00
   0512 01                  459 	.db	1
   0513 01                  460 	.db	0x01
   0514 00                  461 	.db	0
                            462 ;	main.c 26
                            463 ;	main.c 20
                            464 ;	genArrayInit
                            465 ; _saveRegsForCall: sendSetSize: 0 deInUse: 0 bcInUse: 0 deSending: 0
   0515 21 A0 07            466 	ld	hl,#_the_tiles
   0518 CD 00 00            467 	call	__initrleblock
   051B 20                  468 	.db	32
   051C F7 38 5B B4 45 FE   469 	.db	0xF7, 0x38, 0x5B, 0xB4, 0x45, 0xFE, 0xAC, 0xDB
        AC DB
   0524 11 EF EB 37 95 6A   470 	.db	0x11, 0xEF, 0xEB, 0x37, 0x95, 0x6A, 0xEF, 0x18
        EF 18
   052C D7 28 EB 9C FD 02   471 	.db	0xD7, 0x28, 0xEB, 0x9C, 0xFD, 0x02, 0x48, 0xB7
        48 B7
   0534 2A DD 92 EF FD 0B   472 	.db	0x2A, 0xDD, 0x92, 0xEF, 0xFD, 0x0B, 0xB7, 0x48
        B7 48
   053C F0 FF               473 	.db	-16,0xFF
   053E F0 00               474 	.db	-16,0x00
   0540 50                  475 	.db	80
   0541 F8 FF F7 F8 ED F2   476 	.db	0xF8, 0xFF, 0xF7, 0xF8, 0xED, 0xF2, 0xD8, 0xE7
        D8 E7
   0549 DD E2 D8 E7 DD E2   477 	.db	0xDD, 0xE2, 0xD8, 0xE7, 0xDD, 0xE2, 0xDF, 0xE0
        DF E0
   0551 DF E0 DF E0 DF E0   478 	.db	0xDF, 0xE0, 0xDF, 0xE0, 0xDF, 0xE0, 0xDF, 0xE0
        DF E0
   0559 DF E0 DF E0 DF E0   479 	.db	0xDF, 0xE0, 0xDF, 0xE0, 0xDF, 0xE0, 0xDF, 0xE0
        DF E0
   0561 1F FF EF 1F B7 4F   480 	.db	0x1F, 0xFF, 0xEF, 0x1F, 0xB7, 0x4F, 0x1B, 0xE7
        1B E7
   0569 BB 47 1B E7 BB 47   481 	.db	0xBB, 0x47, 0x1B, 0xE7, 0xBB, 0x47, 0xFB, 0x07
        FB 07
   0571 FB 07 FB 37 FB 07   482 	.db	0xFB, 0x07, 0xFB, 0x37, 0xFB, 0x07, 0xFB, 0x07
        FB 07
   0579 FB 07 FB 07 FB 07   483 	.db	0xFB, 0x07, 0xFB, 0x07, 0xFB, 0x07, 0xFB, 0x07
        FB 07
   0581 E7 FF E7 FF 00 FF   484 	.db	0xE7, 0xFF, 0xE7, 0xFF, 0x00, 0xFF, 0xBD, 0xFF
        BD FF
   0589 BD FF 00 FF E7 FF   485 	.db	0xBD, 0xFF, 0x00, 0xFF, 0xE7, 0xFF, 0xE7, 0xFF
        E7 FF
   0591 00                  486 	.db	0
                            487 ;	main.c 26
                            488 ;	main.c 20
                            489 ;	genArrayInit
                            490 ; _saveRegsForCall: sendSetSize: 0 deInUse: 0 bcInUse: 0 deSending: 0
   0592 21 34 08            491 	ld	hl,#_door_trig
   0595 CD 00 00            492 	call	__initrleblock
   0598 7F                  493 	.db	127
   0599 F8 FF F7 F8 EF F2   494 	.db	0xF8, 0xFF, 0xF7, 0xF8, 0xEF, 0xF2, 0xDF, 0xE7
        DF E7
   05A1 DF E2 DF E7 DF E2   495 	.db	0xDF, 0xE2, 0xDF, 0xE7, 0xDF, 0xE2, 0xDF, 0xE0
        DF E0
   05A9 DF E0 DF E0 DF E0   496 	.db	0xDF, 0xE0, 0xDF, 0xE0, 0xDF, 0xE0, 0xDF, 0xE0
        DF E0
   05B1 DF E0 DF E0 DF E0   497 	.db	0xDF, 0xE0, 0xDF, 0xE0, 0xDF, 0xE0, 0xDF, 0xE0
        DF E0
   05B9 1F FF EF 1F F7 4F   498 	.db	0x1F, 0xFF, 0xEF, 0x1F, 0xF7, 0x4F, 0xFB, 0xE7
        FB E7
   05C1 FB 47 FB E7 FB 47   499 	.db	0xFB, 0x47, 0xFB, 0xE7, 0xFB, 0x47, 0xFB, 0x07
        FB 07
   05C9 FB 07 FB 37 FB 07   500 	.db	0xFB, 0x07, 0xFB, 0x37, 0xFB, 0x07, 0xFB, 0x07
        FB 07
   05D1 FB 07 FB 07 FB 07   501 	.db	0xFB, 0x07, 0xFB, 0x07, 0xFB, 0x07, 0xFB, 0x07
        FB 07
   05D9 F8 FF F7 F8 EF F5   502 	.db	0xF8, 0xFF, 0xF7, 0xF8, 0xEF, 0xF5, 0xDF, 0xEF
        DF EF
   05E1 DF E5 DF EF DF E5   503 	.db	0xDF, 0xE5, 0xDF, 0xEF, 0xDF, 0xE5, 0xDF, 0xE0
        DF E0
   05E9 DF E0 DF E1 DF E0   504 	.db	0xDF, 0xE0, 0xDF, 0xE1, 0xDF, 0xE0, 0xDF, 0xE0
        DF E0
   05F1 DF E0 DF E0 DF E0   505 	.db	0xDF, 0xE0, 0xDF, 0xE0, 0xDF, 0xE0, 0xDF, 0xE0
        DF E0
   05F9 1F FF 6F FF 97 7F   506 	.db	0x1F, 0xFF, 0x6F, 0xFF, 0x97, 0x7F, 0xDB, 0xBF
        DB BF
   0601 DB 3F DB BF DB 3F   507 	.db	0xDB, 0x3F, 0xDB, 0xBF, 0xDB, 0x3F, 0xDB, 0x3F
        DB 3F
   0609 DB 3F DB BF DB 3F   508 	.db	0xDB, 0x3F, 0xDB, 0xBF, 0xDB, 0x3F, 0xDB, 0x3F
        DB 3F
   0611 DB 3F DB 3F DB 3F   509 	.db	0xDB, 0x3F, 0xDB, 0x3F, 0xDB, 0x3F, 0xDB
        DB
   0618 7F                  510 	.db	127
   0619 3F F8 FF F5 FB EE   511 	.db	0x3F, 0xF8, 0xFF, 0xF5, 0xFB, 0xEE, 0xF1, 0xDE
        F1 DE
   0621 E9 DE FD DE E9 DE   512 	.db	0xE9, 0xDE, 0xFD, 0xDE, 0xE9, 0xDE, 0xFD, 0xDE
        FD DE
   0629 E9 DE E1 DE ED DE   513 	.db	0xE9, 0xDE, 0xE1, 0xDE, 0xED, 0xDE, 0xE1, 0xDE
        E1 DE
   0631 E1 DE E1 DE E1 DE   514 	.db	0xE1, 0xDE, 0xE1, 0xDE, 0xE1, 0xDE, 0xE1, 0xDE
        E1 DE
   0639 E1 1F FF EF FF F7   515 	.db	0xE1, 0x1F, 0xFF, 0xEF, 0xFF, 0xF7, 0xFF, 0xFB
        FF FB
   0641 FF FB FF FB FF FB   516 	.db	0xFF, 0xFB, 0xFF, 0xFB, 0xFF, 0xFB, 0xFF, 0xFB
        FF FB
   0649 FF FB FF FB FF FB   517 	.db	0xFF, 0xFB, 0xFF, 0xFB, 0xFF, 0xFB, 0xFF, 0xFB
        FF FB
   0651 FF FB FF FB FF FB   518 	.db	0xFF, 0xFB, 0xFF, 0xFB, 0xFF, 0xFB, 0xFF, 0xFB
        FF FB
   0659 FF F8 FF F7 FF E7   519 	.db	0xFF, 0xF8, 0xFF, 0xF7, 0xFF, 0xE7, 0xFF, 0xD7
        FF D7
   0661 EF D7 FF D7 EF D7   520 	.db	0xEF, 0xD7, 0xFF, 0xD7, 0xEF, 0xD7, 0xFF, 0xD7
        FF D7
   0669 EF D7 EF D7 FF D7   521 	.db	0xEF, 0xD7, 0xEF, 0xD7, 0xFF, 0xD7, 0xEF, 0xD7
        EF D7
   0671 EF D7 EF D7 EF D7   522 	.db	0xEF, 0xD7, 0xEF, 0xD7, 0xEF, 0xD7, 0xEF, 0xD7
        EF D7
   0679 EF 1F FF EF FF F7   523 	.db	0xEF, 0x1F, 0xFF, 0xEF, 0xFF, 0xF7, 0xFF, 0xFB
        FF FB
   0681 FF FB FF FB FF FB   524 	.db	0xFF, 0xFB, 0xFF, 0xFB, 0xFF, 0xFB, 0xFF, 0xFB
        FF FB
   0689 FF FB FF FB FF FB   525 	.db	0xFF, 0xFB, 0xFF, 0xFB, 0xFF, 0xFB, 0xFF, 0xFB
        FF FB
   0691 FF FB FF FB FF FB   526 	.db	0xFF, 0xFB, 0xFF, 0xFB, 0xFF, 0xFB, 0xFF
        FF
   0698 42                  527 	.db	66
   0699 FB FF F8 FF F7 FF   528 	.db	0xFB, 0xFF, 0xF8, 0xFF, 0xF7, 0xFF, 0xEF, 0xFF
        EF FF
   06A1 DF FF DF FF DF FF   529 	.db	0xDF, 0xFF, 0xDF, 0xFF, 0xDF, 0xFF, 0xDF, 0xFF
        DF FF
   06A9 DF FF DF FF DF FF   530 	.db	0xDF, 0xFF, 0xDF, 0xFF, 0xDF, 0xFF, 0xDF, 0xFF
        DF FF
   06B1 DF FF DF FF DF FF   531 	.db	0xDF, 0xFF, 0xDF, 0xFF, 0xDF, 0xFF, 0xDF, 0xFF
        DF FF
   06B9 DF FF 1F FF EF FF   532 	.db	0xDF, 0xFF, 0x1F, 0xFF, 0xEF, 0xFF, 0xF7, 0xFF
        F7 FF
   06C1 FB FF FB FF FB FF   533 	.db	0xFB, 0xFF, 0xFB, 0xFF, 0xFB, 0xFF, 0xFB, 0xFF
        FB FF
   06C9 FB FF FB FF FB FF   534 	.db	0xFB, 0xFF, 0xFB, 0xFF, 0xFB, 0xFF, 0xFB, 0xFF
        FB FF
   06D1 FB FF FB FF FB FF   535 	.db	0xFB, 0xFF, 0xFB, 0xFF, 0xFB, 0xFF, 0xFB, 0xFF
        FB FF
   06D9 FB FF               536 	.db	0xFB, 0xFF
   06DB 00                  537 	.db	0
                            538 ;	main.c 25
                            539 ;	main.c 20
                            540 ;	genArrayInit
                            541 ; _saveRegsForCall: sendSetSize: 0 deInUse: 0 bcInUse: 0 deSending: 0
   06DC 21 74 09            542 	ld	hl,#_room1
   06DF CD 00 00            543 	call	__initrleblock
   06E2 03                  544 	.db	3
   06E3 01 01 00            545 	.db	0x01, 0x01, 0x00
   06E6 F8 01               546 	.db	-8,0x01
   06E8 05                  547 	.db	5
   06E9 00 00 01 01 01      548 	.db	0x00, 0x00, 0x01, 0x01, 0x01
   06EE FB 00               549 	.db	-5,0x00
   06F0 03                  550 	.db	3
   06F1 01 00 00            551 	.db	0x01, 0x00, 0x00
   06F4 F6 01               552 	.db	-10,0x01
   06F6 07                  553 	.db	7
   06F7 00 00 01 00 00 00   554 	.db	0x00, 0x00, 0x01, 0x00, 0x00, 0x00, 0x00
        00
   06FE EF 08               555 	.db	-17,0x08
   0700 03                  556 	.db	3
   0701 01 00 00            557 	.db	0x01, 0x00, 0x00
   0704 EF 08               558 	.db	-17,0x08
   0706 7F                  559 	.db	127
   0707 01 00 00 08 03 02   560 	.db	0x01, 0x00, 0x00, 0x08, 0x03, 0x02, 0x03, 0x02
        03 02
   070F 03 02 03 02 03 02   561 	.db	0x03, 0x02, 0x03, 0x02, 0x03, 0x02, 0x03, 0x02
        03 02
   0717 03 02 03 08 01 00   562 	.db	0x03, 0x02, 0x03, 0x08, 0x01, 0x00, 0x00, 0x08
        00 08
   071F 02 03 02 03 02 03   563 	.db	0x02, 0x03, 0x02, 0x03, 0x02, 0x03, 0x02, 0x03
        02 03
   0727 02 03 02 03 02 03   564 	.db	0x02, 0x03, 0x02, 0x03, 0x02, 0x03, 0x02, 0x08
        02 08
   072F 01 00 00 08 03 02   565 	.db	0x01, 0x00, 0x00, 0x08, 0x03, 0x02, 0x03, 0x02
        03 02
   0737 03 02 03 02 03 02   566 	.db	0x03, 0x02, 0x03, 0x02, 0x03, 0x02, 0x03, 0x02
        03 02
   073F 03 02 03 08 01 00   567 	.db	0x03, 0x02, 0x03, 0x08, 0x01, 0x00, 0x01, 0x08
        01 08
   0747 02 03 02 03 02 03   568 	.db	0x02, 0x03, 0x02, 0x03, 0x02, 0x03, 0x02, 0x03
        02 03
   074F 02 03 02 03 02 03   569 	.db	0x02, 0x03, 0x02, 0x03, 0x02, 0x03, 0x02, 0x08
        02 08
   0757 01 00 01 08 03 02   570 	.db	0x01, 0x00, 0x01, 0x08, 0x03, 0x02, 0x03, 0x02
        03 02
   075F 03 02 03 02 03 02   571 	.db	0x03, 0x02, 0x03, 0x02, 0x03, 0x02, 0x03, 0x02
        03 02
   0767 03 02 03 08 01 00   572 	.db	0x03, 0x02, 0x03, 0x08, 0x01, 0x00, 0x01, 0x08
        01 08
   076F 02 03 02 03 02 03   573 	.db	0x02, 0x03, 0x02, 0x03, 0x02, 0x03, 0x02, 0x03
        02 03
   0777 02 03 02 03 02 03   574 	.db	0x02, 0x03, 0x02, 0x03, 0x02, 0x03, 0x02, 0x08
        02 08
   077F 01 01 01 08 03 02   575 	.db	0x01, 0x01, 0x01, 0x08, 0x03, 0x02, 0x03
        03
   0786 38                  576 	.db	56
   0787 02 03 02 03 02 03   577 	.db	0x02, 0x03, 0x02, 0x03, 0x02, 0x03, 0x02, 0x03
        02 03
   078F 02 03 02 03 08 01   578 	.db	0x02, 0x03, 0x02, 0x03, 0x08, 0x01, 0x01, 0x01
        01 01
   0797 08 02 03 02 03 02   579 	.db	0x08, 0x02, 0x03, 0x02, 0x03, 0x02, 0x03, 0x02
        03 02
   079F 03 02 03 02 03 02   580 	.db	0x03, 0x02, 0x03, 0x02, 0x03, 0x02, 0x03, 0x02
        03 02
   07A7 08 01 01 01 08 03   581 	.db	0x08, 0x01, 0x01, 0x01, 0x08, 0x03, 0x02, 0x03
        02 03
   07AF 02 03 02 03 02 03   582 	.db	0x02, 0x03, 0x02, 0x03, 0x02, 0x03, 0x02, 0x03
        02 03
   07B7 02 03 02 03 08 01   583 	.db	0x02, 0x03, 0x02, 0x03, 0x08, 0x01, 0x01, 0x01
        01 01
   07BF EF 08               584 	.db	-17,0x08
   07C1 03                  585 	.db	3
   07C2 01 01 01            586 	.db	0x01, 0x01, 0x01
   07C5 FA 08               587 	.db	-6,0x08
   07C7 02                  588 	.db	2
   07C8 04 06               589 	.db	0x04, 0x06
   07CA F7 08               590 	.db	-9,0x08
   07CC 03                  591 	.db	3
   07CD 01 00 01            592 	.db	0x01, 0x00, 0x01
   07D0 FA 08               593 	.db	-6,0x08
   07D2 02                  594 	.db	2
   07D3 05 07               595 	.db	0x05, 0x07
   07D5 F7 08               596 	.db	-9,0x08
   07D7 02                  597 	.db	2
   07D8 01 00               598 	.db	0x01, 0x00
   07DA FB 01               599 	.db	-5,0x01
   07DC FA 00               600 	.db	-6,0x00
   07DE 05                  601 	.db	5
   07DF 01 01 01 00 01      602 	.db	0x01, 0x01, 0x01, 0x00, 0x01
   07E4 F8 00               603 	.db	-8,0x00
   07E6 F8 01               604 	.db	-8,0x01
   07E8 08                  605 	.db	8
   07E9 00 01 01 01 00 00   606 	.db	0x00, 0x01, 0x01, 0x01, 0x00, 0x00, 0x00, 0x00
        00 00
   07F1 00                  607 	.db	0
                            608 ;	main.c 25
                            609 ;	main.c 20
                            610 ;	genArrayInit
                            611 ; _saveRegsForCall: sendSetSize: 0 deInUse: 0 bcInUse: 0 deSending: 0
   07F2 21 DC 0A            612 	ld	hl,#_black
   07F5 CD 00 00            613 	call	__initrleblock
   07F8 81 02               614 	.db	-127,0x02
   07FA 81 02               615 	.db	-127,0x02
   07FC 81 02               616 	.db	-127,0x02
   07FE 81 02               617 	.db	-127,0x02
   0800 81 02               618 	.db	-127,0x02
   0802 81 02               619 	.db	-127,0x02
   0804 81 02               620 	.db	-127,0x02
   0806 81 02               621 	.db	-127,0x02
   0808 81 02               622 	.db	-127,0x02
   080A 81 02               623 	.db	-127,0x02
   080C 81 02               624 	.db	-127,0x02
   080E D5 02               625 	.db	-43,0x02
   0810 00                  626 	.db	0
                            627 ;	main.c 12
                            628 ;	genAssign
                            629 ;	AOP_HL for _down
   0811 21 80 10            630 	ld	hl,#_down
   0814 36 01               631 	ld	(hl),#0x01
                            632 ;	main.c 13
                            633 ;	genAssign
                            634 ;	AOP_HL for _up
   0816 21 81 10            635 	ld	hl,#_up
   0819 36 00               636 	ld	(hl),#0x00
                            637 ;	main.c 14
                            638 ;	genAssign
                            639 ;	AOP_HL for _left
   081B 21 82 10            640 	ld	hl,#_left
   081E 36 00               641 	ld	(hl),#0x00
                            642 ;	main.c 15
                            643 ;	genAssign
                            644 ;	AOP_HL for _right
   0820 21 83 10            645 	ld	hl,#_right
   0823 36 00               646 	ld	(hl),#0x00
                            647 ;--------------------------------------------------------
                            648 ; Home
                            649 ;--------------------------------------------------------
                            650 	.area _HOME
                            651 	.area _CODE
                            652 ;--------------------------------------------------------
                            653 ; code
                            654 ;--------------------------------------------------------
                            655 	.area _CODE
                            656 ;	triggers.h 25
                            657 ;	genLabel
                            658 ;	genFunction
                            659 ;	---------------------------------
                            660 ; Function setup_doors
                            661 ; ---------------------------------
   0000                     662 ___setup_doors_start:
   0000                     663 _setup_doors:
   0000 E8 FC               664 	lda	sp,-4(sp)
                            665 ;	triggers.h 28
                            666 ;	genAssign (pointer)
   0002 11 7C 10            667 	ld	de,#_door
   0005 3E 40               668 	ld	a,#0x40
   0007 12                  669 	ld	(de),a
                            670 ;	triggers.h 29
                            671 ;	genPlus
                            672 ;	genPlusIncr
   0008 01 7D 10            673 	ld	bc,#_door + 1
                            674 ;	genAssign (pointer)
   000B 3E 98               675 	ld	a,#0x98
   000D 02                  676 	ld	(bc),a
                            677 ;	triggers.h 30
                            678 ;	genPlus
                            679 ;	AOP_STK for _setup_doors_sloc0_1_0
                            680 ;	genPlusIncr
                            681 ;	Can't optimise plus by inc, falling back to the normal way
   000E 11 7C 10            682 	ld	de,#_door
   0011 21 02 00            683 	ld	hl,#0x0002
   0014 19                  684 	add	hl,de
   0015 7D                  685 	ld	a,l
   0016 54                  686 	ld	d,h
   0017 F8 02               687 	lda	hl,2(sp)
   0019 22                  688 	ld	(hl+),a
   001A 72                  689 	ld	(hl),d
                            690 ;	genAssign (pointer)
                            691 ;	AOP_STK for _setup_doors_sloc0_1_0
   001B 2B                  692 	dec	hl
   001C 5E                  693 	ld	e,(hl)
   001D 23                  694 	inc	hl
   001E 56                  695 	ld	d,(hl)
   001F 3E 48               696 	ld	a,#0x48
   0021 12                  697 	ld	(de),a
                            698 ;	triggers.h 31
                            699 ;	genPlus
                            700 ;	AOP_STK for _setup_doors_sloc1_1_0
                            701 ;	genPlusIncr
                            702 ;	Can't optimise plus by inc, falling back to the normal way
   0022 11 7C 10            703 	ld	de,#_door
   0025 21 03 00            704 	ld	hl,#0x0003
   0028 19                  705 	add	hl,de
   0029 7D                  706 	ld	a,l
   002A 54                  707 	ld	d,h
   002B F8 00               708 	lda	hl,0(sp)
   002D 22                  709 	ld	(hl+),a
   002E 72                  710 	ld	(hl),d
                            711 ;	genAssign (pointer)
                            712 ;	AOP_STK for _setup_doors_sloc1_1_0
   002F 2B                  713 	dec	hl
   0030 5E                  714 	ld	e,(hl)
   0031 23                  715 	inc	hl
   0032 56                  716 	ld	d,(hl)
   0033 3E 98               717 	ld	a,#0x98
   0035 12                  718 	ld	(de),a
                            719 ;	triggers.h 34
                            720 ;	genIpush
                            721 ; _saveRegsForCall: sendSetSize: 0 deInUse: 0 bcInUse: 1 deSending: 0
   0036 C5                  722 	push	bc
   0037 21 34 08            723 	ld	hl,#_door_trig
   003A E5                  724 	push	hl
                            725 ;	genIpush
   003B 21 20 34            726 	ld	hl,#0x3420
   003E E5                  727 	push	hl
                            728 ;	genCall
   003F CD 00 00            729 	call	_set_sprite_data
   0042 E8 04               730 	lda	sp,4(sp)
   0044 C1                  731 	pop	bc
                            732 ;	triggers.h 37
                            733 ;	genIpush
                            734 ; _saveRegsForCall: sendSetSize: 0 deInUse: 0 bcInUse: 1 deSending: 0
   0045 C5                  735 	push	bc
   0046 21 02 20            736 	ld	hl,#0x2002
   0049 E5                  737 	push	hl
                            738 ;	genCall
   004A CD 00 00            739 	call	_set_sprite_tile
   004D E8 02               740 	lda	sp,2(sp)
   004F C1                  741 	pop	bc
                            742 ;	triggers.h 38
                            743 ;	genPointerGet
   0050 0A                  744 	ld	a,(bc)
   0051 4F                  745 	ld	c,a
                            746 ;	genPointerGet
   0052 11 7C 10            747 	ld	de,#_door
   0055 1A                  748 	ld	a,(de)
   0056 47                  749 	ld	b,a
                            750 ;	genIpush
                            751 ; _saveRegsForCall: sendSetSize: 0 deInUse: 0 bcInUse: 0 deSending: 0
   0057 79                  752 	ld	a,c
   0058 F5                  753 	push	af
   0059 33                  754 	inc	sp
                            755 ;	genIpush
   005A 78                  756 	ld	a,b
   005B F5                  757 	push	af
   005C 33                  758 	inc	sp
                            759 ;	genIpush
   005D 3E 02               760 	ld	a,#0x02
   005F F5                  761 	push	af
   0060 33                  762 	inc	sp
                            763 ;	genCall
   0061 CD 00 00            764 	call	_move_sprite
   0064 E8 03               765 	lda	sp,3(sp)
                            766 ;	triggers.h 39
                            767 ;	genIpush
                            768 ; _saveRegsForCall: sendSetSize: 0 deInUse: 0 bcInUse: 0 deSending: 0
   0066 21 03 22            769 	ld	hl,#0x2203
   0069 E5                  770 	push	hl
                            771 ;	genCall
   006A CD 00 00            772 	call	_set_sprite_tile
   006D E8 02               773 	lda	sp,2(sp)
                            774 ;	triggers.h 40
                            775 ;	genPointerGet
                            776 ;	AOP_STK for _setup_doors_sloc1_1_0
   006F F8 00               777 	lda	hl,0(sp)
   0071 5E                  778 	ld	e,(hl)
   0072 23                  779 	inc	hl
   0073 56                  780 	ld	d,(hl)
   0074 1A                  781 	ld	a,(de)
   0075 4F                  782 	ld	c,a
                            783 ;	genPointerGet
                            784 ;	AOP_STK for _setup_doors_sloc0_1_0
   0076 23                  785 	inc	hl
   0077 5E                  786 	ld	e,(hl)
   0078 23                  787 	inc	hl
   0079 56                  788 	ld	d,(hl)
   007A 1A                  789 	ld	a,(de)
   007B 47                  790 	ld	b,a
                            791 ;	genIpush
                            792 ; _saveRegsForCall: sendSetSize: 0 deInUse: 0 bcInUse: 0 deSending: 0
   007C 79                  793 	ld	a,c
   007D F5                  794 	push	af
   007E 33                  795 	inc	sp
                            796 ;	genIpush
   007F 78                  797 	ld	a,b
   0080 F5                  798 	push	af
   0081 33                  799 	inc	sp
                            800 ;	genIpush
   0082 3E 03               801 	ld	a,#0x03
   0084 F5                  802 	push	af
   0085 33                  803 	inc	sp
                            804 ;	genCall
   0086 CD 00 00            805 	call	_move_sprite
   0089 E8 03               806 	lda	sp,3(sp)
                            807 ;	genLabel
   008B                     808 00101$:
                            809 ;	genEndFunction
   008B E8 04               810 	lda	sp,4(sp)
   008D C9                  811 	ret
   008E                     812 ___setup_doors_end:
                            813 ;	triggers.h 43
                            814 ;	genLabel
                            815 ;	genFunction
                            816 ;	---------------------------------
                            817 ; Function open_door
                            818 ; ---------------------------------
   008E                     819 ___open_door_start:
   008E                     820 _open_door:
   008E E8 FA               821 	lda	sp,-6(sp)
                            822 ;	triggers.h 45
                            823 ;	genIpush
                            824 ; _saveRegsForCall: sendSetSize: 0 deInUse: 0 bcInUse: 0 deSending: 0
   0090 21 02 20            825 	ld	hl,#0x2002
   0093 E5                  826 	push	hl
                            827 ;	genCall
   0094 CD 00 00            828 	call	_set_sprite_tile
   0097 E8 02               829 	lda	sp,2(sp)
                            830 ;	triggers.h 46
                            831 ;	genPlus
                            832 ;	genPlusIncr
   0099 01 7D 10            833 	ld	bc,#_door + 1
                            834 ;	genPointerGet
                            835 ;	AOP_STK for _open_door_sloc0_1_0
   009C 0A                  836 	ld	a,(bc)
   009D F8 05               837 	lda	hl,5(sp)
   009F 77                  838 	ld	(hl),a
                            839 ;	genPointerGet
                            840 ;	AOP_STK for _open_door_sloc1_1_0
   00A0 11 7C 10            841 	ld	de,#_door
   00A3 1A                  842 	ld	a,(de)
   00A4 2B                  843 	dec	hl
   00A5 77                  844 	ld	(hl),a
                            845 ;	genIpush
                            846 ; _saveRegsForCall: sendSetSize: 0 deInUse: 0 bcInUse: 1 deSending: 0
   00A6 C5                  847 	push	bc
                            848 ;	AOP_STK for _open_door_sloc0_1_0
   00A7 23                  849 	inc	hl
   00A8 7E                  850 	ld	a,(hl)
   00A9 F5                  851 	push	af
   00AA 33                  852 	inc	sp
                            853 ;	genIpush
                            854 ;	AOP_STK for _open_door_sloc1_1_0
   00AB 2B                  855 	dec	hl
   00AC 7E                  856 	ld	a,(hl)
   00AD F5                  857 	push	af
   00AE 33                  858 	inc	sp
                            859 ;	genIpush
   00AF 3E 02               860 	ld	a,#0x02
   00B1 F5                  861 	push	af
   00B2 33                  862 	inc	sp
                            863 ;	genCall
   00B3 CD 00 00            864 	call	_move_sprite
   00B6 E8 03               865 	lda	sp,3(sp)
   00B8 C1                  866 	pop	bc
                            867 ;	triggers.h 47
                            868 ;	genIpush
                            869 ; _saveRegsForCall: sendSetSize: 0 deInUse: 0 bcInUse: 1 deSending: 0
   00B9 C5                  870 	push	bc
   00BA 21 03 22            871 	ld	hl,#0x2203
   00BD E5                  872 	push	hl
                            873 ;	genCall
   00BE CD 00 00            874 	call	_set_sprite_tile
   00C1 E8 02               875 	lda	sp,2(sp)
   00C3 C1                  876 	pop	bc
                            877 ;	triggers.h 48
                            878 ;	genPlus
                            879 ;	AOP_STK for _open_door_sloc2_1_0
                            880 ;	genPlusIncr
                            881 ;	Can't optimise plus by inc, falling back to the normal way
   00C4 11 7C 10            882 	ld	de,#_door
   00C7 21 02 00            883 	ld	hl,#0x0002
   00CA 19                  884 	add	hl,de
   00CB 7D                  885 	ld	a,l
   00CC 54                  886 	ld	d,h
   00CD F8 02               887 	lda	hl,2(sp)
   00CF 22                  888 	ld	(hl+),a
   00D0 72                  889 	ld	(hl),d
                            890 ;	genPlus
                            891 ;	AOP_STK for _open_door_sloc3_1_0
                            892 ;	genPlusIncr
                            893 ;	Can't optimise plus by inc, falling back to the normal way
   00D1 11 7C 10            894 	ld	de,#_door
   00D4 21 03 00            895 	ld	hl,#0x0003
   00D7 19                  896 	add	hl,de
   00D8 7D                  897 	ld	a,l
   00D9 54                  898 	ld	d,h
   00DA F8 00               899 	lda	hl,0(sp)
                            900 ;	genPointerGet
                            901 ;	AOP_STK for _open_door_sloc3_1_0
                            902 ;	AOP_STK for _open_door_sloc1_1_0
   00DC 22                  903 	ld	(hl+),a
   00DD 72                  904 	ld	(hl),d
   00DE 5F                  905 	ld	e,a
   00DF 1A                  906 	ld	a,(de)
   00E0 F8 04               907 	lda	hl,4(sp)
                            908 ;	genPointerGet
                            909 ;	AOP_STK for _open_door_sloc2_1_0
                            910 ;	AOP_STK for _open_door_sloc0_1_0
   00E2 32                  911 	ld      (hl-),a
   00E3 2B                  912 	dec	hl
   00E4 5E                  913 	ld	e,(hl)
   00E5 23                  914 	inc	hl
   00E6 56                  915 	ld	d,(hl)
   00E7 1A                  916 	ld	a,(de)
   00E8 23                  917 	inc	hl
   00E9 23                  918 	inc	hl
   00EA 77                  919 	ld	(hl),a
                            920 ;	genIpush
                            921 ; _saveRegsForCall: sendSetSize: 0 deInUse: 0 bcInUse: 1 deSending: 0
   00EB C5                  922 	push	bc
                            923 ;	AOP_STK for _open_door_sloc1_1_0
   00EC 2B                  924 	dec	hl
   00ED 7E                  925 	ld	a,(hl)
   00EE F5                  926 	push	af
   00EF 33                  927 	inc	sp
                            928 ;	genIpush
                            929 ;	AOP_STK for _open_door_sloc0_1_0
   00F0 23                  930 	inc	hl
   00F1 7E                  931 	ld	a,(hl)
   00F2 F5                  932 	push	af
   00F3 33                  933 	inc	sp
                            934 ;	genIpush
   00F4 3E 03               935 	ld	a,#0x03
   00F6 F5                  936 	push	af
   00F7 33                  937 	inc	sp
                            938 ;	genCall
   00F8 CD 00 00            939 	call	_move_sprite
   00FB E8 03               940 	lda	sp,3(sp)
   00FD C1                  941 	pop	bc
                            942 ;	triggers.h 49
                            943 ;	genIpush
                            944 ; _saveRegsForCall: sendSetSize: 0 deInUse: 0 bcInUse: 1 deSending: 0
   00FE C5                  945 	push	bc
   00FF 21 64 00            946 	ld	hl,#0x0064
   0102 E5                  947 	push	hl
                            948 ;	genCall
   0103 CD 00 00            949 	call	_delay
   0106 E8 02               950 	lda	sp,2(sp)
   0108 C1                  951 	pop	bc
                            952 ;	triggers.h 51
                            953 ;	genIpush
                            954 ; _saveRegsForCall: sendSetSize: 0 deInUse: 0 bcInUse: 1 deSending: 0
   0109 C5                  955 	push	bc
   010A 21 02 24            956 	ld	hl,#0x2402
   010D E5                  957 	push	hl
                            958 ;	genCall
   010E CD 00 00            959 	call	_set_sprite_tile
   0111 E8 02               960 	lda	sp,2(sp)
   0113 C1                  961 	pop	bc
                            962 ;	triggers.h 52
                            963 ;	genPointerGet
                            964 ;	AOP_STK for _open_door_sloc1_1_0
   0114 0A                  965 	ld	a,(bc)
   0115 F8 04               966 	lda	hl,4(sp)
   0117 77                  967 	ld	(hl),a
                            968 ;	genPointerGet
                            969 ;	AOP_STK for _open_door_sloc0_1_0
   0118 11 7C 10            970 	ld	de,#_door
   011B 1A                  971 	ld	a,(de)
   011C 23                  972 	inc	hl
   011D 77                  973 	ld	(hl),a
                            974 ;	genIpush
                            975 ; _saveRegsForCall: sendSetSize: 0 deInUse: 0 bcInUse: 1 deSending: 0
   011E C5                  976 	push	bc
                            977 ;	AOP_STK for _open_door_sloc1_1_0
   011F 2B                  978 	dec	hl
   0120 7E                  979 	ld	a,(hl)
   0121 F5                  980 	push	af
   0122 33                  981 	inc	sp
                            982 ;	genIpush
                            983 ;	AOP_STK for _open_door_sloc0_1_0
   0123 23                  984 	inc	hl
   0124 7E                  985 	ld	a,(hl)
   0125 F5                  986 	push	af
   0126 33                  987 	inc	sp
                            988 ;	genIpush
   0127 3E 02               989 	ld	a,#0x02
   0129 F5                  990 	push	af
   012A 33                  991 	inc	sp
                            992 ;	genCall
   012B CD 00 00            993 	call	_move_sprite
   012E E8 03               994 	lda	sp,3(sp)
   0130 C1                  995 	pop	bc
                            996 ;	triggers.h 53
                            997 ;	genIpush
                            998 ; _saveRegsForCall: sendSetSize: 0 deInUse: 0 bcInUse: 1 deSending: 0
   0131 C5                  999 	push	bc
   0132 21 03 26           1000 	ld	hl,#0x2603
   0135 E5                 1001 	push	hl
                           1002 ;	genCall
   0136 CD 00 00           1003 	call	_set_sprite_tile
   0139 E8 02              1004 	lda	sp,2(sp)
   013B C1                 1005 	pop	bc
                           1006 ;	triggers.h 54
                           1007 ;	genPointerGet
                           1008 ;	AOP_STK for _open_door_sloc3_1_0
                           1009 ;	AOP_STK for _open_door_sloc1_1_0
   013C F8 00              1010 	lda	hl,0(sp)
   013E 5E                 1011 	ld	e,(hl)
   013F 23                 1012 	inc	hl
   0140 56                 1013 	ld	d,(hl)
   0141 1A                 1014 	ld	a,(de)
   0142 F8 04              1015 	lda	hl,4(sp)
                           1016 ;	genPointerGet
                           1017 ;	AOP_STK for _open_door_sloc2_1_0
                           1018 ;	AOP_STK for _open_door_sloc0_1_0
   0144 32                 1019 	ld      (hl-),a
   0145 2B                 1020 	dec	hl
   0146 5E                 1021 	ld	e,(hl)
   0147 23                 1022 	inc	hl
   0148 56                 1023 	ld	d,(hl)
   0149 1A                 1024 	ld	a,(de)
   014A 23                 1025 	inc	hl
   014B 23                 1026 	inc	hl
   014C 77                 1027 	ld	(hl),a
                           1028 ;	genIpush
                           1029 ; _saveRegsForCall: sendSetSize: 0 deInUse: 0 bcInUse: 1 deSending: 0
   014D C5                 1030 	push	bc
                           1031 ;	AOP_STK for _open_door_sloc1_1_0
   014E 2B                 1032 	dec	hl
   014F 7E                 1033 	ld	a,(hl)
   0150 F5                 1034 	push	af
   0151 33                 1035 	inc	sp
                           1036 ;	genIpush
                           1037 ;	AOP_STK for _open_door_sloc0_1_0
   0152 23                 1038 	inc	hl
   0153 7E                 1039 	ld	a,(hl)
   0154 F5                 1040 	push	af
   0155 33                 1041 	inc	sp
                           1042 ;	genIpush
   0156 3E 03              1043 	ld	a,#0x03
   0158 F5                 1044 	push	af
   0159 33                 1045 	inc	sp
                           1046 ;	genCall
   015A CD 00 00           1047 	call	_move_sprite
   015D E8 03              1048 	lda	sp,3(sp)
   015F C1                 1049 	pop	bc
                           1050 ;	triggers.h 55
                           1051 ;	genIpush
                           1052 ; _saveRegsForCall: sendSetSize: 0 deInUse: 0 bcInUse: 1 deSending: 0
   0160 C5                 1053 	push	bc
   0161 21 64 00           1054 	ld	hl,#0x0064
   0164 E5                 1055 	push	hl
                           1056 ;	genCall
   0165 CD 00 00           1057 	call	_delay
   0168 E8 02              1058 	lda	sp,2(sp)
   016A C1                 1059 	pop	bc
                           1060 ;	triggers.h 57
                           1061 ;	genIpush
                           1062 ; _saveRegsForCall: sendSetSize: 0 deInUse: 0 bcInUse: 1 deSending: 0
   016B C5                 1063 	push	bc
   016C 21 02 28           1064 	ld	hl,#0x2802
   016F E5                 1065 	push	hl
                           1066 ;	genCall
   0170 CD 00 00           1067 	call	_set_sprite_tile
   0173 E8 02              1068 	lda	sp,2(sp)
   0175 C1                 1069 	pop	bc
                           1070 ;	triggers.h 58
                           1071 ;	genPointerGet
                           1072 ;	AOP_STK for _open_door_sloc1_1_0
   0176 0A                 1073 	ld	a,(bc)
   0177 F8 04              1074 	lda	hl,4(sp)
   0179 77                 1075 	ld	(hl),a
                           1076 ;	genPointerGet
                           1077 ;	AOP_STK for _open_door_sloc0_1_0
   017A 11 7C 10           1078 	ld	de,#_door
   017D 1A                 1079 	ld	a,(de)
   017E 23                 1080 	inc	hl
   017F 77                 1081 	ld	(hl),a
                           1082 ;	genIpush
                           1083 ; _saveRegsForCall: sendSetSize: 0 deInUse: 0 bcInUse: 1 deSending: 0
   0180 C5                 1084 	push	bc
                           1085 ;	AOP_STK for _open_door_sloc1_1_0
   0181 2B                 1086 	dec	hl
   0182 7E                 1087 	ld	a,(hl)
   0183 F5                 1088 	push	af
   0184 33                 1089 	inc	sp
                           1090 ;	genIpush
                           1091 ;	AOP_STK for _open_door_sloc0_1_0
   0185 23                 1092 	inc	hl
   0186 7E                 1093 	ld	a,(hl)
   0187 F5                 1094 	push	af
   0188 33                 1095 	inc	sp
                           1096 ;	genIpush
   0189 3E 02              1097 	ld	a,#0x02
   018B F5                 1098 	push	af
   018C 33                 1099 	inc	sp
                           1100 ;	genCall
   018D CD 00 00           1101 	call	_move_sprite
   0190 E8 03              1102 	lda	sp,3(sp)
   0192 C1                 1103 	pop	bc
                           1104 ;	triggers.h 59
                           1105 ;	genIpush
                           1106 ; _saveRegsForCall: sendSetSize: 0 deInUse: 0 bcInUse: 1 deSending: 0
   0193 C5                 1107 	push	bc
   0194 21 03 2A           1108 	ld	hl,#0x2A03
   0197 E5                 1109 	push	hl
                           1110 ;	genCall
   0198 CD 00 00           1111 	call	_set_sprite_tile
   019B E8 02              1112 	lda	sp,2(sp)
   019D C1                 1113 	pop	bc
                           1114 ;	triggers.h 60
                           1115 ;	genPointerGet
                           1116 ;	AOP_STK for _open_door_sloc3_1_0
                           1117 ;	AOP_STK for _open_door_sloc1_1_0
   019E F8 00              1118 	lda	hl,0(sp)
   01A0 5E                 1119 	ld	e,(hl)
   01A1 23                 1120 	inc	hl
   01A2 56                 1121 	ld	d,(hl)
   01A3 1A                 1122 	ld	a,(de)
   01A4 F8 04              1123 	lda	hl,4(sp)
                           1124 ;	genPointerGet
                           1125 ;	AOP_STK for _open_door_sloc2_1_0
                           1126 ;	AOP_STK for _open_door_sloc0_1_0
   01A6 32                 1127 	ld      (hl-),a
   01A7 2B                 1128 	dec	hl
   01A8 5E                 1129 	ld	e,(hl)
   01A9 23                 1130 	inc	hl
   01AA 56                 1131 	ld	d,(hl)
   01AB 1A                 1132 	ld	a,(de)
   01AC 23                 1133 	inc	hl
   01AD 23                 1134 	inc	hl
   01AE 77                 1135 	ld	(hl),a
                           1136 ;	genIpush
                           1137 ; _saveRegsForCall: sendSetSize: 0 deInUse: 0 bcInUse: 1 deSending: 0
   01AF C5                 1138 	push	bc
                           1139 ;	AOP_STK for _open_door_sloc1_1_0
   01B0 2B                 1140 	dec	hl
   01B1 7E                 1141 	ld	a,(hl)
   01B2 F5                 1142 	push	af
   01B3 33                 1143 	inc	sp
                           1144 ;	genIpush
                           1145 ;	AOP_STK for _open_door_sloc0_1_0
   01B4 23                 1146 	inc	hl
   01B5 7E                 1147 	ld	a,(hl)
   01B6 F5                 1148 	push	af
   01B7 33                 1149 	inc	sp
                           1150 ;	genIpush
   01B8 3E 03              1151 	ld	a,#0x03
   01BA F5                 1152 	push	af
   01BB 33                 1153 	inc	sp
                           1154 ;	genCall
   01BC CD 00 00           1155 	call	_move_sprite
   01BF E8 03              1156 	lda	sp,3(sp)
   01C1 C1                 1157 	pop	bc
                           1158 ;	triggers.h 61
                           1159 ;	genIpush
                           1160 ; _saveRegsForCall: sendSetSize: 0 deInUse: 0 bcInUse: 1 deSending: 0
   01C2 C5                 1161 	push	bc
   01C3 21 64 00           1162 	ld	hl,#0x0064
   01C6 E5                 1163 	push	hl
                           1164 ;	genCall
   01C7 CD 00 00           1165 	call	_delay
   01CA E8 02              1166 	lda	sp,2(sp)
   01CC C1                 1167 	pop	bc
                           1168 ;	triggers.h 63
                           1169 ;	genIpush
                           1170 ; _saveRegsForCall: sendSetSize: 0 deInUse: 0 bcInUse: 1 deSending: 0
   01CD C5                 1171 	push	bc
   01CE 21 02 2C           1172 	ld	hl,#0x2C02
   01D1 E5                 1173 	push	hl
                           1174 ;	genCall
   01D2 CD 00 00           1175 	call	_set_sprite_tile
   01D5 E8 02              1176 	lda	sp,2(sp)
   01D7 C1                 1177 	pop	bc
                           1178 ;	triggers.h 64
                           1179 ;	genPointerGet
                           1180 ;	AOP_STK for _open_door_sloc1_1_0
   01D8 0A                 1181 	ld	a,(bc)
   01D9 F8 04              1182 	lda	hl,4(sp)
   01DB 77                 1183 	ld	(hl),a
                           1184 ;	genPointerGet
                           1185 ;	AOP_STK for _open_door_sloc0_1_0
   01DC 11 7C 10           1186 	ld	de,#_door
   01DF 1A                 1187 	ld	a,(de)
   01E0 23                 1188 	inc	hl
   01E1 77                 1189 	ld	(hl),a
                           1190 ;	genIpush
                           1191 ; _saveRegsForCall: sendSetSize: 0 deInUse: 0 bcInUse: 1 deSending: 0
   01E2 C5                 1192 	push	bc
                           1193 ;	AOP_STK for _open_door_sloc1_1_0
   01E3 2B                 1194 	dec	hl
   01E4 7E                 1195 	ld	a,(hl)
   01E5 F5                 1196 	push	af
   01E6 33                 1197 	inc	sp
                           1198 ;	genIpush
                           1199 ;	AOP_STK for _open_door_sloc0_1_0
   01E7 23                 1200 	inc	hl
   01E8 7E                 1201 	ld	a,(hl)
   01E9 F5                 1202 	push	af
   01EA 33                 1203 	inc	sp
                           1204 ;	genIpush
   01EB 3E 02              1205 	ld	a,#0x02
   01ED F5                 1206 	push	af
   01EE 33                 1207 	inc	sp
                           1208 ;	genCall
   01EF CD 00 00           1209 	call	_move_sprite
   01F2 E8 03              1210 	lda	sp,3(sp)
   01F4 C1                 1211 	pop	bc
                           1212 ;	triggers.h 65
                           1213 ;	genIpush
                           1214 ; _saveRegsForCall: sendSetSize: 0 deInUse: 0 bcInUse: 1 deSending: 0
   01F5 C5                 1215 	push	bc
   01F6 21 03 2E           1216 	ld	hl,#0x2E03
   01F9 E5                 1217 	push	hl
                           1218 ;	genCall
   01FA CD 00 00           1219 	call	_set_sprite_tile
   01FD E8 02              1220 	lda	sp,2(sp)
   01FF C1                 1221 	pop	bc
                           1222 ;	triggers.h 66
                           1223 ;	genPointerGet
                           1224 ;	AOP_STK for _open_door_sloc3_1_0
                           1225 ;	AOP_STK for _open_door_sloc1_1_0
   0200 F8 00              1226 	lda	hl,0(sp)
   0202 5E                 1227 	ld	e,(hl)
   0203 23                 1228 	inc	hl
   0204 56                 1229 	ld	d,(hl)
   0205 1A                 1230 	ld	a,(de)
   0206 F8 04              1231 	lda	hl,4(sp)
                           1232 ;	genPointerGet
                           1233 ;	AOP_STK for _open_door_sloc2_1_0
                           1234 ;	AOP_STK for _open_door_sloc0_1_0
   0208 32                 1235 	ld      (hl-),a
   0209 2B                 1236 	dec	hl
   020A 5E                 1237 	ld	e,(hl)
   020B 23                 1238 	inc	hl
   020C 56                 1239 	ld	d,(hl)
   020D 1A                 1240 	ld	a,(de)
   020E 23                 1241 	inc	hl
   020F 23                 1242 	inc	hl
   0210 77                 1243 	ld	(hl),a
                           1244 ;	genIpush
                           1245 ; _saveRegsForCall: sendSetSize: 0 deInUse: 0 bcInUse: 1 deSending: 0
   0211 C5                 1246 	push	bc
                           1247 ;	AOP_STK for _open_door_sloc1_1_0
   0212 2B                 1248 	dec	hl
   0213 7E                 1249 	ld	a,(hl)
   0214 F5                 1250 	push	af
   0215 33                 1251 	inc	sp
                           1252 ;	genIpush
                           1253 ;	AOP_STK for _open_door_sloc0_1_0
   0216 23                 1254 	inc	hl
   0217 7E                 1255 	ld	a,(hl)
   0218 F5                 1256 	push	af
   0219 33                 1257 	inc	sp
                           1258 ;	genIpush
   021A 3E 03              1259 	ld	a,#0x03
   021C F5                 1260 	push	af
   021D 33                 1261 	inc	sp
                           1262 ;	genCall
   021E CD 00 00           1263 	call	_move_sprite
   0221 E8 03              1264 	lda	sp,3(sp)
   0223 C1                 1265 	pop	bc
                           1266 ;	triggers.h 67
                           1267 ;	genIpush
                           1268 ; _saveRegsForCall: sendSetSize: 0 deInUse: 0 bcInUse: 1 deSending: 0
   0224 C5                 1269 	push	bc
   0225 21 64 00           1270 	ld	hl,#0x0064
   0228 E5                 1271 	push	hl
                           1272 ;	genCall
   0229 CD 00 00           1273 	call	_delay
   022C E8 02              1274 	lda	sp,2(sp)
   022E C1                 1275 	pop	bc
                           1276 ;	triggers.h 69
                           1277 ;	genIpush
                           1278 ; _saveRegsForCall: sendSetSize: 0 deInUse: 0 bcInUse: 1 deSending: 0
   022F C5                 1279 	push	bc
   0230 21 02 30           1280 	ld	hl,#0x3002
   0233 E5                 1281 	push	hl
                           1282 ;	genCall
   0234 CD 00 00           1283 	call	_set_sprite_tile
   0237 E8 02              1284 	lda	sp,2(sp)
   0239 C1                 1285 	pop	bc
                           1286 ;	triggers.h 70
                           1287 ;	genPointerGet
   023A 0A                 1288 	ld	a,(bc)
   023B 4F                 1289 	ld	c,a
                           1290 ;	genPointerGet
   023C 11 7C 10           1291 	ld	de,#_door
   023F 1A                 1292 	ld	a,(de)
   0240 47                 1293 	ld	b,a
                           1294 ;	genIpush
                           1295 ; _saveRegsForCall: sendSetSize: 0 deInUse: 0 bcInUse: 0 deSending: 0
   0241 79                 1296 	ld	a,c
   0242 F5                 1297 	push	af
   0243 33                 1298 	inc	sp
                           1299 ;	genIpush
   0244 78                 1300 	ld	a,b
   0245 F5                 1301 	push	af
   0246 33                 1302 	inc	sp
                           1303 ;	genIpush
   0247 3E 02              1304 	ld	a,#0x02
   0249 F5                 1305 	push	af
   024A 33                 1306 	inc	sp
                           1307 ;	genCall
   024B CD 00 00           1308 	call	_move_sprite
   024E E8 03              1309 	lda	sp,3(sp)
                           1310 ;	triggers.h 71
                           1311 ;	genIpush
                           1312 ; _saveRegsForCall: sendSetSize: 0 deInUse: 0 bcInUse: 0 deSending: 0
   0250 21 03 32           1313 	ld	hl,#0x3203
   0253 E5                 1314 	push	hl
                           1315 ;	genCall
   0254 CD 00 00           1316 	call	_set_sprite_tile
   0257 E8 02              1317 	lda	sp,2(sp)
                           1318 ;	triggers.h 72
                           1319 ;	genPointerGet
                           1320 ;	AOP_STK for _open_door_sloc3_1_0
   0259 F8 00              1321 	lda	hl,0(sp)
   025B 5E                 1322 	ld	e,(hl)
   025C 23                 1323 	inc	hl
   025D 56                 1324 	ld	d,(hl)
   025E 1A                 1325 	ld	a,(de)
   025F 4F                 1326 	ld	c,a
                           1327 ;	genPointerGet
                           1328 ;	AOP_STK for _open_door_sloc2_1_0
   0260 23                 1329 	inc	hl
   0261 5E                 1330 	ld	e,(hl)
   0262 23                 1331 	inc	hl
   0263 56                 1332 	ld	d,(hl)
   0264 1A                 1333 	ld	a,(de)
   0265 47                 1334 	ld	b,a
                           1335 ;	genIpush
                           1336 ; _saveRegsForCall: sendSetSize: 0 deInUse: 0 bcInUse: 0 deSending: 0
   0266 79                 1337 	ld	a,c
   0267 F5                 1338 	push	af
   0268 33                 1339 	inc	sp
                           1340 ;	genIpush
   0269 78                 1341 	ld	a,b
   026A F5                 1342 	push	af
   026B 33                 1343 	inc	sp
                           1344 ;	genIpush
   026C 3E 03              1345 	ld	a,#0x03
   026E F5                 1346 	push	af
   026F 33                 1347 	inc	sp
                           1348 ;	genCall
   0270 CD 00 00           1349 	call	_move_sprite
   0273 E8 03              1350 	lda	sp,3(sp)
                           1351 ;	genLabel
   0275                    1352 00101$:
                           1353 ;	genEndFunction
   0275 E8 06              1354 	lda	sp,6(sp)
   0277 C9                 1355 	ret
   0278                    1356 ___open_door_end:
                           1357 ;	triggers.h 75
                           1358 ;	genLabel
                           1359 ;	genFunction
                           1360 ;	---------------------------------
                           1361 ; Function scroll_doors
                           1362 ; ---------------------------------
   0278                    1363 ___scroll_doors_start:
   0278                    1364 _scroll_doors:
   0278 E8 F9              1365 	lda	sp,-7(sp)
                           1366 ;	triggers.h 77
                           1367 ;	genPlus
                           1368 ;	genPlusIncr
   027A 01 7D 10           1369 	ld	bc,#_door + 1
                           1370 ;	genPointerGet
                           1371 ;	AOP_STK for _scroll_doors_sloc0_1_0
   027D 0A                 1372 	ld	a,(bc)
   027E F8 06              1373 	lda	hl,6(sp)
                           1374 ;	genCast
                           1375 ;	AOP_STK for _scroll_doors_sloc0_1_0
                           1376 ;	AOP_STK for _scroll_doors_sloc1_1_0
   0280 77                 1377 	ld      (hl),a
   0281 7F                 1378 	ld      a,a
   0282 2B                 1379 	dec	hl
   0283 2B                 1380 	dec	hl
   0284 22                 1381 	ld	(hl+),a
   0285 36 00              1382 	ld	(hl),#0x00
                           1383 ;	genAssign
                           1384 ;	(operands are equal 3)
                           1385 ;	genPlus
                           1386 ;	AOP_STK for _scroll_doors_sloc1_1_0
                           1387 ;	AOP_STK for 
                           1388 ;	AOP_STK for _scroll_doors_sloc2_1_0
                           1389 ;	Can't optimise plus by inc, falling back to the normal way
   0287 2B                 1390 	dec	hl
   0288 5E                 1391 	ld	e,(hl)
   0289 23                 1392 	inc	hl
   028A 56                 1393 	ld	d,(hl)
   028B F8 0B              1394 	lda	hl,11(sp)
   028D 2A                 1395 	ld	a,(hl+)
   028E 66                 1396 	ld	h,(hl)
   028F 6F                 1397 	ld	l,a
   0290 19                 1398 	add	hl,de
   0291 7D                 1399 	ld	a,l
   0292 54                 1400 	ld	d,h
   0293 F8 02              1401 	lda	hl,2(sp)
   0295 22                 1402 	ld	(hl+),a
   0296 72                 1403 	ld	(hl),d
                           1404 ;	genCast
                           1405 ;	AOP_STK for _scroll_doors_sloc2_1_0
   0297 2B                 1406 	dec	hl
   0298 7E                 1407 	ld	a,(hl)
                           1408 ;	genAssign (pointer)
   0299 02                 1409 	ld	(bc),a
                           1410 ;	genPointerGet
   029A 11 7C 10           1411 	ld	de,#_door
   029D 1A                 1412 	ld	a,(de)
   029E 4F                 1413 	ld	c,a
                           1414 ;	genCast
                           1415 ;	AOP_STK for _scroll_doors_sloc1_1_0
   029F 23                 1416 	inc	hl
   02A0 23                 1417 	inc	hl
   02A1 71                 1418 	ld	(hl),c
   02A2 23                 1419 	inc	hl
   02A3 36 00              1420 	ld	(hl),#0x00
                           1421 ;	genAssign
                           1422 ;	AOP_STK for 
   02A5 F8 09              1423 	lda	hl,9(sp)
   02A7 4E                 1424 	ld	c,(hl)
   02A8 23                 1425 	inc	hl
   02A9 46                 1426 	ld	b,(hl)
                           1427 ;	genPlus
                           1428 ;	AOP_STK for _scroll_doors_sloc1_1_0
                           1429 ;	Can't optimise plus by inc, falling back to the normal way
   02AA F8 04              1430 	lda	hl,4(sp)
   02AC 2A                 1431 	ld	a,(hl+)
   02AD 66                 1432 	ld	h,(hl)
   02AE 6F                 1433 	ld	l,a
   02AF 09                 1434 	add	hl,bc
   02B0 4D                 1435 	ld	c,l
   02B1 44                 1436 	ld	b,h
                           1437 ;	genCast
   02B2 79                 1438 	ld	a,c
                           1439 ;	genAssign (pointer)
   02B3 11 7C 10           1440 	ld	de,#_door
   02B6 12                 1441 	ld	(de),a
                           1442 ;	genIpush
                           1443 ; _saveRegsForCall: sendSetSize: 0 deInUse: 0 bcInUse: 0 deSending: 0
                           1444 ;	AOP_STK for _scroll_doors_sloc2_1_0
   02B7 F8 02              1445 	lda	hl,2(sp)
   02B9 2A                 1446 	ld	a,(hl+)
   02BA 66                 1447 	ld	h,(hl)
   02BB 6F                 1448 	ld	l,a
   02BC E5                 1449 	push	hl
                           1450 ;	genIpush
   02BD C5                 1451 	push	bc
                           1452 ;	genIpush
   02BE 3E 02              1453 	ld	a,#0x02
   02C0 F5                 1454 	push	af
   02C1 33                 1455 	inc	sp
                           1456 ;	genCall
   02C2 CD 00 00           1457 	call	_move_sprite
   02C5 E8 05              1458 	lda	sp,5(sp)
                           1459 ;	triggers.h 78
                           1460 ;	genPlus
                           1461 ;	genPlusIncr
   02C7 01 7E 10           1462 	ld	bc,#_door + 2
                           1463 ;	genPlus
                           1464 ;	AOP_STK for _scroll_doors_sloc2_1_0
                           1465 ;	genPlusIncr
                           1466 ;	Can't optimise plus by inc, falling back to the normal way
   02CA 11 7C 10           1467 	ld	de,#_door
   02CD 21 03 00           1468 	ld	hl,#0x0003
   02D0 19                 1469 	add	hl,de
   02D1 7D                 1470 	ld	a,l
   02D2 54                 1471 	ld	d,h
   02D3 F8 02              1472 	lda	hl,2(sp)
                           1473 ;	genPointerGet
                           1474 ;	AOP_STK for _scroll_doors_sloc2_1_0
                           1475 ;	AOP_STK for _scroll_doors_sloc1_1_0
   02D5 22                 1476 	ld	(hl+),a
   02D6 72                 1477 	ld	(hl),d
   02D7 5F                 1478 	ld	e,a
   02D8 1A                 1479 	ld	a,(de)
   02D9 23                 1480 	inc	hl
                           1481 ;	genCast
                           1482 ;	AOP_STK for _scroll_doors_sloc1_1_0
                           1483 ;	AOP_STK for _scroll_doors_sloc3_1_0
   02DA 77                 1484 	ld      (hl),a
   02DB 7F                 1485 	ld      a,a
   02DC F8 00              1486 	lda	hl,0(sp)
   02DE 22                 1487 	ld	(hl+),a
   02DF 36 00              1488 	ld	(hl),#0x00
                           1489 ;	genAssign
                           1490 ;	(operands are equal 3)
                           1491 ;	genPlus
                           1492 ;	AOP_STK for _scroll_doors_sloc3_1_0
                           1493 ;	AOP_STK for 
                           1494 ;	AOP_STK for _scroll_doors_sloc1_1_0
                           1495 ;	Can't optimise plus by inc, falling back to the normal way
   02E1 2B                 1496 	dec	hl
   02E2 5E                 1497 	ld	e,(hl)
   02E3 23                 1498 	inc	hl
   02E4 56                 1499 	ld	d,(hl)
   02E5 F8 0B              1500 	lda	hl,11(sp)
   02E7 2A                 1501 	ld	a,(hl+)
   02E8 66                 1502 	ld	h,(hl)
   02E9 6F                 1503 	ld	l,a
   02EA 19                 1504 	add	hl,de
   02EB 7D                 1505 	ld	a,l
   02EC 54                 1506 	ld	d,h
   02ED F8 04              1507 	lda	hl,4(sp)
   02EF 22                 1508 	ld	(hl+),a
   02F0 72                 1509 	ld	(hl),d
                           1510 ;	genCast
                           1511 ;	AOP_STK for _scroll_doors_sloc1_1_0
   02F1 2B                 1512 	dec	hl
   02F2 7E                 1513 	ld	a,(hl)
                           1514 ;	genAssign (pointer)
                           1515 ;	AOP_STK for _scroll_doors_sloc2_1_0
   02F3 2B                 1516 	dec	hl
   02F4 2B                 1517 	dec	hl
   02F5 5E                 1518 	ld	e,(hl)
   02F6 23                 1519 	inc	hl
   02F7 56                 1520 	ld	d,(hl)
   02F8 12                 1521 	ld	(de),a
                           1522 ;	genPointerGet
                           1523 ;	AOP_STK for _scroll_doors_sloc3_1_0
   02F9 0A                 1524 	ld	a,(bc)
   02FA F8 00              1525 	lda	hl,0(sp)
   02FC 77                 1526 	ld	(hl),a
                           1527 ;	genCast
                           1528 ;	AOP_STK for _scroll_doors_sloc3_1_0
                           1529 ;	AOP_STK for _scroll_doors_sloc2_1_0
   02FD 2A                 1530 	ld	a,(hl+)
   02FE 23                 1531 	inc	hl
   02FF 22                 1532 	ld	(hl+),a
   0300 36 00              1533 	ld	(hl),#0x00
                           1534 ;	genAssign
                           1535 ;	(operands are equal 3)
                           1536 ;	genPlus
                           1537 ;	AOP_STK for _scroll_doors_sloc2_1_0
                           1538 ;	AOP_STK for 
                           1539 ;	AOP_STK for _scroll_doors_sloc3_1_0
                           1540 ;	Can't optimise plus by inc, falling back to the normal way
   0302 2B                 1541 	dec	hl
   0303 5E                 1542 	ld	e,(hl)
   0304 23                 1543 	inc	hl
   0305 56                 1544 	ld	d,(hl)
   0306 F8 09              1545 	lda	hl,9(sp)
   0308 2A                 1546 	ld	a,(hl+)
   0309 66                 1547 	ld	h,(hl)
   030A 6F                 1548 	ld	l,a
   030B 19                 1549 	add	hl,de
   030C 7D                 1550 	ld	a,l
   030D 54                 1551 	ld	d,h
   030E F8 00              1552 	lda	hl,0(sp)
   0310 22                 1553 	ld	(hl+),a
   0311 72                 1554 	ld	(hl),d
                           1555 ;	genCast
                           1556 ;	AOP_STK for _scroll_doors_sloc3_1_0
   0312 2B                 1557 	dec	hl
   0313 7E                 1558 	ld	a,(hl)
                           1559 ;	genAssign (pointer)
   0314 02                 1560 	ld	(bc),a
                           1561 ;	genIpush
                           1562 ; _saveRegsForCall: sendSetSize: 0 deInUse: 0 bcInUse: 0 deSending: 0
                           1563 ;	AOP_STK for _scroll_doors_sloc1_1_0
   0315 F8 04              1564 	lda	hl,4(sp)
   0317 2A                 1565 	ld	a,(hl+)
   0318 66                 1566 	ld	h,(hl)
   0319 6F                 1567 	ld	l,a
   031A E5                 1568 	push	hl
                           1569 ;	genIpush
                           1570 ;	AOP_STK for _scroll_doors_sloc3_1_0
   031B F8 02              1571 	lda	hl,2(sp)
   031D 2A                 1572 	ld	a,(hl+)
   031E 66                 1573 	ld	h,(hl)
   031F 6F                 1574 	ld	l,a
   0320 E5                 1575 	push	hl
                           1576 ;	genIpush
   0321 3E 03              1577 	ld	a,#0x03
   0323 F5                 1578 	push	af
   0324 33                 1579 	inc	sp
                           1580 ;	genCall
   0325 CD 00 00           1581 	call	_move_sprite
   0328 E8 05              1582 	lda	sp,5(sp)
                           1583 ;	genLabel
   032A                    1584 00101$:
                           1585 ;	genEndFunction
   032A E8 07              1586 	lda	sp,7(sp)
   032C C9                 1587 	ret
   032D                    1588 ___scroll_doors_end:
                           1589 ;	triggers.h 81
                           1590 ;	genLabel
                           1591 ;	genFunction
                           1592 ;	---------------------------------
                           1593 ; Function door_collide
                           1594 ; ---------------------------------
   032D                    1595 ___door_collide_start:
   032D                    1596 _door_collide:
   032D E8 FD              1597 	lda	sp,-3(sp)
                           1598 ;	triggers.h 83
                           1599 ;	genPointerGet
   032F 11 7C 10           1600 	ld	de,#_door
   0332 1A                 1601 	ld	a,(de)
                           1602 ;	genMinus
   0333 4F                 1603 	ld	c,a
   0334 C6 F8              1604 	add	a,#0xF8
   0336 47                 1605 	ld	b,a
                           1606 ;	genPointerGet
                           1607 ;	AOP_STK for _door_collide_sloc0_1_0
   0337 11 30 08           1608 	ld	de,#_player
   033A 1A                 1609 	ld	a,(de)
   033B F8 02              1610 	lda	hl,2(sp)
   033D 77                 1611 	ld	(hl),a
                           1612 ;	genCmpGt
                           1613 ;	AOP_STK for _door_collide_sloc0_1_0
   033E 78                 1614 	ld	a,b
   033F 96                 1615 	sub	a,(hl)
   0340 D2 87 03           1616 	jp	nc,00102$
                           1617 ;	genPlus
                           1618 ;	genPlusIncr
                           1619 ;	Can't optimise plus by inc, falling back to the normal way
   0343 79                 1620 	ld	a,c
   0344 C6 08              1621 	add	a,#0x08
   0346 4F                 1622 	ld	c,a
                           1623 ;	genCmpLt
                           1624 ;	AOP_STK for _door_collide_sloc0_1_0
   0347 7E                 1625 	ld	a,(hl)
   0348 91                 1626 	sub	a,c
   0349 D2 87 03           1627 	jp	nc,00102$
                           1628 ;	triggers.h 84
                           1629 ;	genPlus
                           1630 ;	genPlusIncr
   034C 01 31 08           1631 	ld	bc,#_player + 1
                           1632 ;	genPlus
                           1633 ;	AOP_STK for _door_collide_sloc1_1_0
                           1634 ;	genPlusIncr
                           1635 ;	Can't optimise plus by inc, falling back to the normal way
   034F 11 7C 10           1636 	ld	de,#_door
   0352 21 01 00           1637 	ld	hl,#0x0001
   0355 19                 1638 	add	hl,de
   0356 7D                 1639 	ld	a,l
   0357 54                 1640 	ld	d,h
   0358 F8 00              1641 	lda	hl,0(sp)
                           1642 ;	genPointerGet
                           1643 ;	AOP_STK for _door_collide_sloc1_1_0
                           1644 ;	AOP_STK for _door_collide_sloc0_1_0
   035A 22                 1645 	ld	(hl+),a
   035B 72                 1646 	ld	(hl),d
   035C 5F                 1647 	ld	e,a
   035D 1A                 1648 	ld	a,(de)
   035E 23                 1649 	inc	hl
   035F 77                 1650 	ld	(hl),a
                           1651 ;	genPointerGet
   0360 0A                 1652 	ld	a,(bc)
   0361 4F                 1653 	ld	c,a
                           1654 ;	genCmpGt
                           1655 ;	AOP_STK for _door_collide_sloc0_1_0
   0362 7E                 1656 	ld	a,(hl)
   0363 91                 1657 	sub	a,c
   0364 D2 87 03           1658 	jp	nc,00102$
                           1659 ;	genPointerGet
   0367 11 7C 10           1660 	ld	de,#_door
   036A 1A                 1661 	ld	a,(de)
   036B 4F                 1662 	ld	c,a
                           1663 ;	genPointerGet
   036C 11 30 08           1664 	ld	de,#_player
   036F 1A                 1665 	ld	a,(de)
                           1666 ;	genCmpLt
   0370 47                 1667 	ld	b,a
   0371 91                 1668 	sub	a,c
   0372 D2 87 03           1669 	jp	nc,00102$
                           1670 ;	triggers.h 85
                           1671 ;	genCall
                           1672 ; _saveRegsForCall: sendSetSize: 0 deInUse: 0 bcInUse: 0 deSending: 0
   0375 CD 00 00           1673 	call	_joypad
   0378 4B                 1674 	ld	c,e
                           1675 ;	genAnd
   0379 79                 1676 	ld	a,c
   037A E6 04              1677 	and	a,#0x04
   037C 20 03              1678 	jr	nz,00115$
   037E C3 87 03           1679 	jp	00102$
   0381                    1680 00115$:
                           1681 ;	triggers.h 86
                           1682 ;	genRet
   0381 11 01 00           1683 	ld	de,#0x0001
   0384 C3 8A 03           1684 	jp	00108$
                           1685 ;	genLabel
   0387                    1686 00102$:
                           1687 ;	triggers.h 88
                           1688 ;	genRet
   0387 11 00 00           1689 	ld	de,#0x0000
                           1690 ;	genLabel
   038A                    1691 00108$:
                           1692 ;	genEndFunction
   038A E8 03              1693 	lda	sp,3(sp)
   038C C9                 1694 	ret
   038D                    1695 ___door_collide_end:
                           1696 ;	triggers.h 91
                           1697 ;	genLabel
                           1698 ;	genFunction
                           1699 ;	---------------------------------
                           1700 ; Function enter_room
                           1701 ; ---------------------------------
   038D                    1702 ___enter_room_start:
   038D                    1703 _enter_room:
                           1704 	
                           1705 ;	triggers.h 93
                           1706 ;	genIpush
                           1707 ; _saveRegsForCall: sendSetSize: 0 deInUse: 0 bcInUse: 0 deSending: 0
   038D 21 DC 0A           1708 	ld	hl,#_black
   0390 E5                 1709 	push	hl
                           1710 ;	genIpush
   0391 21 28 24           1711 	ld	hl,#0x2428
   0394 E5                 1712 	push	hl
                           1713 ;	genIpush
   0395 21 00 00           1714 	ld	hl,#0x0000
   0398 E5                 1715 	push	hl
                           1716 ;	genCall
   0399 CD 00 00           1717 	call	_set_bkg_tiles
   039C E8 06              1718 	lda	sp,6(sp)
                           1719 ;	triggers.h 94
                           1720 ;	genIpush
                           1721 ; _saveRegsForCall: sendSetSize: 0 deInUse: 0 bcInUse: 0 deSending: 0
   039E 21 74 09           1722 	ld	hl,#_room1
   03A1 E5                 1723 	push	hl
                           1724 ;	genIpush
   03A2 21 14 12           1725 	ld	hl,#0x1214
   03A5 E5                 1726 	push	hl
                           1727 ;	genIpush
   03A6 21 00 0A           1728 	ld	hl,#0x0A00
   03A9 E5                 1729 	push	hl
                           1730 ;	genCall
   03AA CD 00 00           1731 	call	_set_bkg_tiles
   03AD E8 06              1732 	lda	sp,6(sp)
                           1733 ;	genLabel
   03AF                    1734 00101$:
                           1735 ;	genEndFunction
                           1736 	
   03AF C9                 1737 	ret
   03B0                    1738 ___enter_room_end:
                           1739 ;	lcdc.h 18
                           1740 ;	genLabel
                           1741 ;	genFunction
                           1742 ;	---------------------------------
                           1743 ; Function bkg
                           1744 ; ---------------------------------
   03B0                    1745 ___bkg_start:
   03B0                    1746 _bkg:
   03B0 E8 FD              1747 	lda	sp,-3(sp)
                           1748 ;	lcdc.h 20
                           1749 ;	genAssign
   03B2 01 40 FF           1750 	ld	bc,#0xFF40
                           1751 ;	genAssign
                           1752 ;	AOP_STK for _bkg_sloc0_1_0
   03B5 F8 01              1753 	lda	hl,1(sp)
   03B7 36 40              1754 	ld	(hl),#0x40
   03B9 23                 1755 	inc	hl
   03BA 36 FF              1756 	ld	(hl),#0xFF
                           1757 ;	genPointerGet
                           1758 ;	AOP_STK for _bkg_sloc0_1_0
                           1759 ;	AOP_STK for _bkg_sloc1_1_0
   03BC 2B                 1760 	dec	hl
   03BD 5E                 1761 	ld	e,(hl)
   03BE 23                 1762 	inc	hl
   03BF 56                 1763 	ld	d,(hl)
   03C0 1A                 1764 	ld	a,(de)
   03C1 2B                 1765 	dec	hl
   03C2 2B                 1766 	dec	hl
                           1767 ;	genOr
                           1768 ;	AOP_STK for _bkg_sloc1_1_0
   03C3 77                 1769 	ld      (hl),a
   03C4 7F                 1770 	ld      a,a
   03C5 F6 80              1771 	or	a,#0x80
                           1772 ;	genAssign (pointer)
   03C7 02                 1773 	ld	(bc),a
                           1774 ;	lcdc.h 21
                           1775 ;	genIpush
                           1776 ; _saveRegsForCall: sendSetSize: 0 deInUse: 0 bcInUse: 0 deSending: 0
   03C8 21 A0 07           1777 	ld	hl,#_the_tiles
   03CB E5                 1778 	push	hl
                           1779 ;	genIpush
   03CC 21 00 0A           1780 	ld	hl,#0x0A00
   03CF E5                 1781 	push	hl
                           1782 ;	genCall
   03D0 CD 00 00           1783 	call	_set_bkg_data
   03D3 E8 04              1784 	lda	sp,4(sp)
                           1785 ;	lcdc.h 22
                           1786 ;	genIpush
                           1787 ; _saveRegsForCall: sendSetSize: 0 deInUse: 0 bcInUse: 0 deSending: 0
   03D5 21 00 02           1788 	ld	hl,#_castle_town
   03D8 E5                 1789 	push	hl
                           1790 ;	genIpush
   03D9 21 28 24           1791 	ld	hl,#0x2428
   03DC E5                 1792 	push	hl
                           1793 ;	genIpush
   03DD 21 00 00           1794 	ld	hl,#0x0000
   03E0 E5                 1795 	push	hl
                           1796 ;	genCall
   03E1 CD 00 00           1797 	call	_set_bkg_tiles
   03E4 E8 06              1798 	lda	sp,6(sp)
                           1799 ;	genLabel
   03E6                    1800 00101$:
                           1801 ;	genEndFunction
   03E6 E8 03              1802 	lda	sp,3(sp)
   03E8 C9                 1803 	ret
   03E9                    1804 ___bkg_end:
                           1805 ;	lcdc.h 26
                           1806 ;	genLabel
                           1807 ;	genFunction
                           1808 ;	---------------------------------
                           1809 ; Function setup_sprites
                           1810 ; ---------------------------------
   03E9                    1811 ___setup_sprites_start:
   03E9                    1812 _setup_sprites:
   03E9 E8 F7              1813 	lda	sp,-9(sp)
                           1814 ;	lcdc.h 29
                           1815 ;	genAssign (pointer)
   03EB 11 30 08           1816 	ld	de,#_player
   03EE 3E 4B              1817 	ld	a,#0x4B
   03F0 12                 1818 	ld	(de),a
                           1819 ;	lcdc.h 30
                           1820 ;	genPlus
                           1821 ;	genPlusIncr
   03F1 01 31 08           1822 	ld	bc,#_player + 1
                           1823 ;	genAssign (pointer)
   03F4 3E 28              1824 	ld	a,#0x28
   03F6 02                 1825 	ld	(bc),a
                           1826 ;	lcdc.h 31
                           1827 ;	genPlus
                           1828 ;	AOP_STK for _setup_sprites_sloc0_1_0
                           1829 ;	genPlusIncr
                           1830 ;	Can't optimise plus by inc, falling back to the normal way
   03F7 11 30 08           1831 	ld	de,#_player
   03FA 21 02 00           1832 	ld	hl,#0x0002
   03FD 19                 1833 	add	hl,de
   03FE 7D                 1834 	ld	a,l
   03FF 54                 1835 	ld	d,h
   0400 F8 07              1836 	lda	hl,7(sp)
   0402 22                 1837 	ld	(hl+),a
   0403 72                 1838 	ld	(hl),d
                           1839 ;	genAssign (pointer)
                           1840 ;	AOP_STK for _setup_sprites_sloc0_1_0
   0404 2B                 1841 	dec	hl
   0405 5E                 1842 	ld	e,(hl)
   0406 23                 1843 	inc	hl
   0407 56                 1844 	ld	d,(hl)
   0408 3E 53              1845 	ld	a,#0x53
   040A 12                 1846 	ld	(de),a
                           1847 ;	lcdc.h 32
                           1848 ;	genPlus
                           1849 ;	AOP_STK for _setup_sprites_sloc1_1_0
                           1850 ;	genPlusIncr
                           1851 ;	Can't optimise plus by inc, falling back to the normal way
   040B 11 30 08           1852 	ld	de,#_player
   040E 21 03 00           1853 	ld	hl,#0x0003
   0411 19                 1854 	add	hl,de
   0412 7D                 1855 	ld	a,l
   0413 54                 1856 	ld	d,h
   0414 F8 05              1857 	lda	hl,5(sp)
   0416 22                 1858 	ld	(hl+),a
   0417 72                 1859 	ld	(hl),d
                           1860 ;	genAssign (pointer)
                           1861 ;	AOP_STK for _setup_sprites_sloc1_1_0
   0418 2B                 1862 	dec	hl
   0419 5E                 1863 	ld	e,(hl)
   041A 23                 1864 	inc	hl
   041B 56                 1865 	ld	d,(hl)
   041C 3E 28              1866 	ld	a,#0x28
   041E 12                 1867 	ld	(de),a
                           1868 ;	lcdc.h 35
                           1869 ;	genAssign
                           1870 ;	AOP_STK for _setup_sprites_sloc2_1_0
   041F F8 03              1871 	lda	hl,3(sp)
   0421 36 40              1872 	ld	(hl),#0x40
   0423 23                 1873 	inc	hl
   0424 36 FF              1874 	ld	(hl),#0xFF
                           1875 ;	genAssign
                           1876 ;	AOP_STK for _setup_sprites_sloc3_1_0
   0426 F8 01              1877 	lda	hl,1(sp)
   0428 36 40              1878 	ld	(hl),#0x40
   042A 23                 1879 	inc	hl
   042B 36 FF              1880 	ld	(hl),#0xFF
                           1881 ;	genPointerGet
                           1882 ;	AOP_STK for _setup_sprites_sloc3_1_0
                           1883 ;	AOP_STK for _setup_sprites_sloc4_1_0
   042D 2B                 1884 	dec	hl
   042E 5E                 1885 	ld	e,(hl)
   042F 23                 1886 	inc	hl
   0430 56                 1887 	ld	d,(hl)
   0431 1A                 1888 	ld	a,(de)
   0432 2B                 1889 	dec	hl
   0433 2B                 1890 	dec	hl
                           1891 ;	genOr
                           1892 ;	AOP_STK for _setup_sprites_sloc4_1_0
   0434 77                 1893 	ld      (hl),a
   0435 7F                 1894 	ld      a,a
   0436 F6 04              1895 	or	a,#0x04
                           1896 ;	genAssign (pointer)
                           1897 ;	AOP_STK for _setup_sprites_sloc2_1_0
   0438 F8 03              1898 	lda	hl,3(sp)
   043A 5E                 1899 	ld	e,(hl)
   043B 23                 1900 	inc	hl
   043C 56                 1901 	ld	d,(hl)
   043D 12                 1902 	ld	(de),a
                           1903 ;	lcdc.h 36
                           1904 ;	genIpush
                           1905 ; _saveRegsForCall: sendSetSize: 0 deInUse: 0 bcInUse: 1 deSending: 0
   043E C5                 1906 	push	bc
   043F 21 00 00           1907 	ld	hl,#_wizard
   0442 E5                 1908 	push	hl
                           1909 ;	genIpush
   0443 21 00 20           1910 	ld	hl,#0x2000
   0446 E5                 1911 	push	hl
                           1912 ;	genCall
   0447 CD 00 00           1913 	call	_set_sprite_data
   044A E8 04              1914 	lda	sp,4(sp)
   044C C1                 1915 	pop	bc
                           1916 ;	lcdc.h 39
                           1917 ;	genIpush
                           1918 ; _saveRegsForCall: sendSetSize: 0 deInUse: 0 bcInUse: 1 deSending: 0
   044D C5                 1919 	push	bc
   044E 21 00 00           1920 	ld	hl,#0x0000
   0451 E5                 1921 	push	hl
                           1922 ;	genCall
   0452 CD 00 00           1923 	call	_set_sprite_tile
   0455 E8 02              1924 	lda	sp,2(sp)
   0457 C1                 1925 	pop	bc
                           1926 ;	lcdc.h 40
                           1927 ;	genPointerGet
   0458 0A                 1928 	ld	a,(bc)
   0459 4F                 1929 	ld	c,a
                           1930 ;	genPointerGet
   045A 11 30 08           1931 	ld	de,#_player
   045D 1A                 1932 	ld	a,(de)
   045E 47                 1933 	ld	b,a
                           1934 ;	genIpush
                           1935 ; _saveRegsForCall: sendSetSize: 0 deInUse: 0 bcInUse: 0 deSending: 0
   045F 79                 1936 	ld	a,c
   0460 F5                 1937 	push	af
   0461 33                 1938 	inc	sp
                           1939 ;	genIpush
   0462 78                 1940 	ld	a,b
   0463 F5                 1941 	push	af
   0464 33                 1942 	inc	sp
                           1943 ;	genIpush
   0465 3E 00              1944 	ld	a,#0x00
   0467 F5                 1945 	push	af
   0468 33                 1946 	inc	sp
                           1947 ;	genCall
   0469 CD 00 00           1948 	call	_move_sprite
   046C E8 03              1949 	lda	sp,3(sp)
                           1950 ;	lcdc.h 41
                           1951 ;	genIpush
                           1952 ; _saveRegsForCall: sendSetSize: 0 deInUse: 0 bcInUse: 0 deSending: 0
   046E 21 01 02           1953 	ld	hl,#0x0201
   0471 E5                 1954 	push	hl
                           1955 ;	genCall
   0472 CD 00 00           1956 	call	_set_sprite_tile
   0475 E8 02              1957 	lda	sp,2(sp)
                           1958 ;	lcdc.h 42
                           1959 ;	genPointerGet
                           1960 ;	AOP_STK for _setup_sprites_sloc1_1_0
   0477 F8 05              1961 	lda	hl,5(sp)
   0479 5E                 1962 	ld	e,(hl)
   047A 23                 1963 	inc	hl
   047B 56                 1964 	ld	d,(hl)
   047C 1A                 1965 	ld	a,(de)
   047D 4F                 1966 	ld	c,a
                           1967 ;	genPointerGet
                           1968 ;	AOP_STK for _setup_sprites_sloc0_1_0
   047E 23                 1969 	inc	hl
   047F 5E                 1970 	ld	e,(hl)
   0480 23                 1971 	inc	hl
   0481 56                 1972 	ld	d,(hl)
   0482 1A                 1973 	ld	a,(de)
   0483 47                 1974 	ld	b,a
                           1975 ;	genIpush
                           1976 ; _saveRegsForCall: sendSetSize: 0 deInUse: 0 bcInUse: 0 deSending: 0
   0484 79                 1977 	ld	a,c
   0485 F5                 1978 	push	af
   0486 33                 1979 	inc	sp
                           1980 ;	genIpush
   0487 78                 1981 	ld	a,b
   0488 F5                 1982 	push	af
   0489 33                 1983 	inc	sp
                           1984 ;	genIpush
   048A 3E 01              1985 	ld	a,#0x01
   048C F5                 1986 	push	af
   048D 33                 1987 	inc	sp
                           1988 ;	genCall
   048E CD 00 00           1989 	call	_move_sprite
   0491 E8 03              1990 	lda	sp,3(sp)
                           1991 ;	lcdc.h 44
                           1992 ;	genCall
                           1993 ; _saveRegsForCall: sendSetSize: 0 deInUse: 0 bcInUse: 0 deSending: 0
   0493 CD 00 00           1994 	call	_setup_doors
                           1995 ;	lcdc.h 46
                           1996 ;	genAssign
   0496 01 40 FF           1997 	ld	bc,#0xFF40
                           1998 ;	genAssign
                           1999 ;	AOP_STK for _setup_sprites_sloc3_1_0
   0499 F8 01              2000 	lda	hl,1(sp)
   049B 36 40              2001 	ld	(hl),#0x40
   049D 23                 2002 	inc	hl
   049E 36 FF              2003 	ld	(hl),#0xFF
                           2004 ;	genPointerGet
                           2005 ;	AOP_STK for _setup_sprites_sloc3_1_0
                           2006 ;	AOP_STK for _setup_sprites_sloc4_1_0
   04A0 2B                 2007 	dec	hl
   04A1 5E                 2008 	ld	e,(hl)
   04A2 23                 2009 	inc	hl
   04A3 56                 2010 	ld	d,(hl)
   04A4 1A                 2011 	ld	a,(de)
   04A5 2B                 2012 	dec	hl
   04A6 2B                 2013 	dec	hl
                           2014 ;	genOr
                           2015 ;	AOP_STK for _setup_sprites_sloc4_1_0
   04A7 77                 2016 	ld      (hl),a
   04A8 7F                 2017 	ld      a,a
   04A9 F6 02              2018 	or	a,#0x02
                           2019 ;	genAssign (pointer)
   04AB 02                 2020 	ld	(bc),a
                           2021 ;	lcdc.h 51
                           2022 ;	genAssign
   04AC 01 40 FF           2023 	ld	bc,#0xFF40
                           2024 ;	genAssign
                           2025 ;	AOP_STK for _setup_sprites_sloc3_1_0
   04AF 23                 2026 	inc	hl
   04B0 36 40              2027 	ld	(hl),#0x40
   04B2 23                 2028 	inc	hl
   04B3 36 FF              2029 	ld	(hl),#0xFF
                           2030 ;	genPointerGet
                           2031 ;	AOP_STK for _setup_sprites_sloc3_1_0
                           2032 ;	AOP_STK for _setup_sprites_sloc4_1_0
   04B5 2B                 2033 	dec	hl
   04B6 5E                 2034 	ld	e,(hl)
   04B7 23                 2035 	inc	hl
   04B8 56                 2036 	ld	d,(hl)
   04B9 1A                 2037 	ld	a,(de)
   04BA 2B                 2038 	dec	hl
   04BB 2B                 2039 	dec	hl
                           2040 ;	genAnd
                           2041 ;	AOP_STK for _setup_sprites_sloc4_1_0
   04BC 77                 2042 	ld      (hl),a
   04BD 7F                 2043 	ld      a,a
   04BE E6 DF              2044 	and	a,#0xDF
                           2045 ;	genAssign (pointer)
   04C0 02                 2046 	ld	(bc),a
                           2047 ;	lcdc.h 52
                           2048 ;	genAssign
   04C1 01 40 FF           2049 	ld	bc,#0xFF40
                           2050 ;	genAssign
                           2051 ;	AOP_STK for _setup_sprites_sloc3_1_0
   04C4 23                 2052 	inc	hl
   04C5 36 40              2053 	ld	(hl),#0x40
   04C7 23                 2054 	inc	hl
   04C8 36 FF              2055 	ld	(hl),#0xFF
                           2056 ;	genPointerGet
                           2057 ;	AOP_STK for _setup_sprites_sloc3_1_0
                           2058 ;	AOP_STK for _setup_sprites_sloc4_1_0
   04CA 2B                 2059 	dec	hl
   04CB 5E                 2060 	ld	e,(hl)
   04CC 23                 2061 	inc	hl
   04CD 56                 2062 	ld	d,(hl)
   04CE 1A                 2063 	ld	a,(de)
   04CF 2B                 2064 	dec	hl
   04D0 2B                 2065 	dec	hl
                           2066 ;	genOr
                           2067 ;	AOP_STK for _setup_sprites_sloc4_1_0
   04D1 77                 2068 	ld      (hl),a
   04D2 7F                 2069 	ld      a,a
   04D3 F6 01              2070 	or	a,#0x01
                           2071 ;	genAssign (pointer)
   04D5 02                 2072 	ld	(bc),a
                           2073 ;	genLabel
   04D6                    2074 00101$:
                           2075 ;	genEndFunction
   04D6 E8 09              2076 	lda	sp,9(sp)
   04D8 C9                 2077 	ret
   04D9                    2078 ___setup_sprites_end:
                           2079 ;	lcdc.h 56
                           2080 ;	genLabel
                           2081 ;	genFunction
                           2082 ;	---------------------------------
                           2083 ; Function sprite_walk
                           2084 ; ---------------------------------
   04D9                    2085 ___sprite_walk_start:
   04D9                    2086 _sprite_walk:
                           2087 	
                           2088 ;	lcdc.h 60
                           2089 ;	genCall
                           2090 ; _saveRegsForCall: sendSetSize: 0 deInUse: 0 bcInUse: 0 deSending: 0
   04D9 CD 00 00           2091 	call	_joypad
   04DC 4B                 2092 	ld	c,e
                           2093 ;	genAnd
   04DD 79                 2094 	ld	a,c
   04DE E6 08              2095 	and	a,#0x08
   04E0 20 03              2096 	jr	nz,00118$
   04E2 C3 0F 05           2097 	jp	00102$
   04E5                    2098 00118$:
                           2099 ;	lcdc.h 62
                           2100 ;	genIpush
                           2101 ; _saveRegsForCall: sendSetSize: 0 deInUse: 0 bcInUse: 0 deSending: 0
   04E5 21 00 04           2102 	ld	hl,#0x0400
   04E8 E5                 2103 	push	hl
                           2104 ;	genCall
   04E9 CD 00 00           2105 	call	_scroll_bkg
   04EC E8 02              2106 	lda	sp,2(sp)
                           2107 ;	lcdc.h 63
                           2108 ;	genIpush
                           2109 ; _saveRegsForCall: sendSetSize: 0 deInUse: 0 bcInUse: 0 deSending: 0
   04EE 21 FC FF           2110 	ld	hl,#0xFFFFFFFC
   04F1 E5                 2111 	push	hl
                           2112 ;	genIpush
   04F2 21 00 00           2113 	ld	hl,#0x0000
   04F5 E5                 2114 	push	hl
                           2115 ;	genCall
   04F6 CD 78 02           2116 	call	_scroll_doors
   04F9 E8 04              2117 	lda	sp,4(sp)
                           2118 ;	lcdc.h 65
                           2119 ;	genAssign
                           2120 ;	AOP_HL for _down
   04FB 21 80 10           2121 	ld	hl,#_down
   04FE 36 01              2122 	ld	(hl),#0x01
                           2123 ;	lcdc.h 66
                           2124 ;	genAssign
                           2125 ;	AOP_HL for _up
   0500 21 81 10           2126 	ld	hl,#_up
   0503 36 00              2127 	ld	(hl),#0x00
                           2128 ;	lcdc.h 67
                           2129 ;	genAssign
                           2130 ;	AOP_HL for _left
   0505 21 82 10           2131 	ld	hl,#_left
   0508 36 00              2132 	ld	(hl),#0x00
                           2133 ;	lcdc.h 68
                           2134 ;	genAssign
                           2135 ;	AOP_HL for _right
   050A 21 83 10           2136 	ld	hl,#_right
   050D 36 00              2137 	ld	(hl),#0x00
                           2138 ;	genLabel
   050F                    2139 00102$:
                           2140 ;	lcdc.h 72
                           2141 ;	genCall
                           2142 ; _saveRegsForCall: sendSetSize: 0 deInUse: 0 bcInUse: 0 deSending: 0
   050F CD 00 00           2143 	call	_joypad
   0512 4B                 2144 	ld	c,e
                           2145 ;	genAnd
   0513 79                 2146 	ld	a,c
   0514 E6 04              2147 	and	a,#0x04
   0516 20 03              2148 	jr	nz,00119$
   0518 C3 45 05           2149 	jp	00104$
   051B                    2150 00119$:
                           2151 ;	lcdc.h 74
                           2152 ;	genIpush
                           2153 ; _saveRegsForCall: sendSetSize: 0 deInUse: 0 bcInUse: 0 deSending: 0
   051B 21 00 FC           2154 	ld	hl,#0xFC00
   051E E5                 2155 	push	hl
                           2156 ;	genCall
   051F CD 00 00           2157 	call	_scroll_bkg
   0522 E8 02              2158 	lda	sp,2(sp)
                           2159 ;	lcdc.h 75
                           2160 ;	genIpush
                           2161 ; _saveRegsForCall: sendSetSize: 0 deInUse: 0 bcInUse: 0 deSending: 0
   0524 21 04 00           2162 	ld	hl,#0x0004
   0527 E5                 2163 	push	hl
                           2164 ;	genIpush
   0528 21 00 00           2165 	ld	hl,#0x0000
   052B E5                 2166 	push	hl
                           2167 ;	genCall
   052C CD 78 02           2168 	call	_scroll_doors
   052F E8 04              2169 	lda	sp,4(sp)
                           2170 ;	lcdc.h 77
                           2171 ;	genAssign
                           2172 ;	AOP_HL for _down
   0531 21 80 10           2173 	ld	hl,#_down
   0534 36 00              2174 	ld	(hl),#0x00
                           2175 ;	lcdc.h 78
                           2176 ;	genAssign
                           2177 ;	AOP_HL for _up
   0536 21 81 10           2178 	ld	hl,#_up
   0539 36 01              2179 	ld	(hl),#0x01
                           2180 ;	lcdc.h 79
                           2181 ;	genAssign
                           2182 ;	AOP_HL for _left
   053B 21 82 10           2183 	ld	hl,#_left
   053E 36 00              2184 	ld	(hl),#0x00
                           2185 ;	lcdc.h 80
                           2186 ;	genAssign
                           2187 ;	AOP_HL for _right
   0540 21 83 10           2188 	ld	hl,#_right
   0543 36 00              2189 	ld	(hl),#0x00
                           2190 ;	genLabel
   0545                    2191 00104$:
                           2192 ;	lcdc.h 84
                           2193 ;	genCall
                           2194 ; _saveRegsForCall: sendSetSize: 0 deInUse: 0 bcInUse: 0 deSending: 0
   0545 CD 00 00           2195 	call	_joypad
   0548 4B                 2196 	ld	c,e
                           2197 ;	genAnd
   0549 79                 2198 	ld	a,c
   054A E6 02              2199 	and	a,#0x02
   054C 20 03              2200 	jr	nz,00120$
   054E C3 7B 05           2201 	jp	00106$
   0551                    2202 00120$:
                           2203 ;	lcdc.h 86
                           2204 ;	genIpush
                           2205 ; _saveRegsForCall: sendSetSize: 0 deInUse: 0 bcInUse: 0 deSending: 0
   0551 21 FC 00           2206 	ld	hl,#0x00FC
   0554 E5                 2207 	push	hl
                           2208 ;	genCall
   0555 CD 00 00           2209 	call	_scroll_bkg
   0558 E8 02              2210 	lda	sp,2(sp)
                           2211 ;	lcdc.h 87
                           2212 ;	genIpush
                           2213 ; _saveRegsForCall: sendSetSize: 0 deInUse: 0 bcInUse: 0 deSending: 0
   055A 21 00 00           2214 	ld	hl,#0x0000
   055D E5                 2215 	push	hl
                           2216 ;	genIpush
   055E 21 04 00           2217 	ld	hl,#0x0004
   0561 E5                 2218 	push	hl
                           2219 ;	genCall
   0562 CD 78 02           2220 	call	_scroll_doors
   0565 E8 04              2221 	lda	sp,4(sp)
                           2222 ;	lcdc.h 89
                           2223 ;	genAssign
                           2224 ;	AOP_HL for _down
   0567 21 80 10           2225 	ld	hl,#_down
   056A 36 00              2226 	ld	(hl),#0x00
                           2227 ;	lcdc.h 90
                           2228 ;	genAssign
                           2229 ;	AOP_HL for _up
   056C 21 81 10           2230 	ld	hl,#_up
   056F 36 00              2231 	ld	(hl),#0x00
                           2232 ;	lcdc.h 91
                           2233 ;	genAssign
                           2234 ;	AOP_HL for _left
   0571 21 82 10           2235 	ld	hl,#_left
   0574 36 01              2236 	ld	(hl),#0x01
                           2237 ;	lcdc.h 92
                           2238 ;	genAssign
                           2239 ;	AOP_HL for _right
   0576 21 83 10           2240 	ld	hl,#_right
   0579 36 00              2241 	ld	(hl),#0x00
                           2242 ;	genLabel
   057B                    2243 00106$:
                           2244 ;	lcdc.h 96
                           2245 ;	genCall
                           2246 ; _saveRegsForCall: sendSetSize: 0 deInUse: 0 bcInUse: 0 deSending: 0
   057B CD 00 00           2247 	call	_joypad
   057E 4B                 2248 	ld	c,e
                           2249 ;	genAnd
   057F 79                 2250 	ld	a,c
   0580 E6 01              2251 	and	a,#0x01
   0582 20 03              2252 	jr	nz,00121$
   0584 C3 B1 05           2253 	jp	00108$
   0587                    2254 00121$:
                           2255 ;	lcdc.h 98
                           2256 ;	genIpush
                           2257 ; _saveRegsForCall: sendSetSize: 0 deInUse: 0 bcInUse: 0 deSending: 0
   0587 21 04 00           2258 	ld	hl,#0x0004
   058A E5                 2259 	push	hl
                           2260 ;	genCall
   058B CD 00 00           2261 	call	_scroll_bkg
   058E E8 02              2262 	lda	sp,2(sp)
                           2263 ;	lcdc.h 99
                           2264 ;	genIpush
                           2265 ; _saveRegsForCall: sendSetSize: 0 deInUse: 0 bcInUse: 0 deSending: 0
   0590 21 00 00           2266 	ld	hl,#0x0000
   0593 E5                 2267 	push	hl
                           2268 ;	genIpush
   0594 21 FC FF           2269 	ld	hl,#0xFFFFFFFC
   0597 E5                 2270 	push	hl
                           2271 ;	genCall
   0598 CD 78 02           2272 	call	_scroll_doors
   059B E8 04              2273 	lda	sp,4(sp)
                           2274 ;	lcdc.h 101
                           2275 ;	genAssign
                           2276 ;	AOP_HL for _down
   059D 21 80 10           2277 	ld	hl,#_down
   05A0 36 00              2278 	ld	(hl),#0x00
                           2279 ;	lcdc.h 102
                           2280 ;	genAssign
                           2281 ;	AOP_HL for _up
   05A2 21 81 10           2282 	ld	hl,#_up
   05A5 36 00              2283 	ld	(hl),#0x00
                           2284 ;	lcdc.h 103
                           2285 ;	genAssign
                           2286 ;	AOP_HL for _left
   05A7 21 82 10           2287 	ld	hl,#_left
   05AA 36 00              2288 	ld	(hl),#0x00
                           2289 ;	lcdc.h 104
                           2290 ;	genAssign
                           2291 ;	AOP_HL for _right
   05AC 21 83 10           2292 	ld	hl,#_right
   05AF 36 01              2293 	ld	(hl),#0x01
                           2294 ;	genLabel
   05B1                    2295 00108$:
                           2296 ;	lcdc.h 108
                           2297 ;	genCall
                           2298 ; _saveRegsForCall: sendSetSize: 0 deInUse: 0 bcInUse: 0 deSending: 0
   05B1 CD 2D 03           2299 	call	_door_collide
   05B4 42                 2300 	ld	b,d
   05B5 4B                 2301 	ld	c,e
                           2302 ;	genCmpEq
                           2303 ; genCmpEq: left 2, right 2, result 0
   05B6 79                 2304 	ld	a,c
   05B7 FE 01              2305 	cp	a,#0x01
   05B9 C2 C3 05           2306 	jp	nz,00122$
   05BC 78                 2307 	ld	a,b
   05BD B7                 2308 	or	a,a
   05BE C2 CC 05           2309 	jp	nz,00111$
   05C1 18 03              2310 	jr	00123$
   05C3                    2311 00122$:
   05C3 C3 CC 05           2312 	jp	00111$
   05C6                    2313 00123$:
                           2314 ;	lcdc.h 110
                           2315 ;	genCall
                           2316 ; _saveRegsForCall: sendSetSize: 0 deInUse: 0 bcInUse: 0 deSending: 0
   05C6 CD 8E 00           2317 	call	_open_door
                           2318 ;	lcdc.h 111
                           2319 ;	genCall
                           2320 ; _saveRegsForCall: sendSetSize: 0 deInUse: 0 bcInUse: 0 deSending: 0
   05C9 CD 8D 03           2321 	call	_enter_room
                           2322 ;	genLabel
   05CC                    2323 00111$:
                           2324 ;	genEndFunction
                           2325 	
   05CC C9                 2326 	ret
   05CD                    2327 ___sprite_walk_end:
                           2328 ;	lcdc.h 116
                           2329 ;	genLabel
                           2330 ;	genFunction
                           2331 ;	---------------------------------
                           2332 ; Function display_sprites
                           2333 ; ---------------------------------
   05CD                    2334 ___display_sprites_start:
   05CD                    2335 _display_sprites:
   05CD E8 FA              2336 	lda	sp,-6(sp)
                           2337 ;	lcdc.h 118
                           2338 ;	genCmpEq
                           2339 ;	AOP_HL for _up
                           2340 ; genCmpEq: left 1, right 1, result 0
   05CF 21 81 10           2341 	ld	hl,#_up
   05D2 7E                 2342 	ld	a,(hl)
   05D3 FE 01              2343 	cp	a,#0x01
   05D5 C2 A5 06           2344 	jp	nz,00102$
   05D8 18 03              2345 	jr	00116$
   05DA                    2346 00115$:
   05DA C3 A5 06           2347 	jp	00102$
   05DD                    2348 00116$:
                           2349 ;	lcdc.h 120
                           2350 ;	genIpush
                           2351 ; _saveRegsForCall: sendSetSize: 0 deInUse: 0 bcInUse: 0 deSending: 0
   05DD 21 00 1C           2352 	ld	hl,#0x1C00
   05E0 E5                 2353 	push	hl
                           2354 ;	genCall
   05E1 CD 00 00           2355 	call	_set_sprite_tile
   05E4 E8 02              2356 	lda	sp,2(sp)
                           2357 ;	lcdc.h 121
                           2358 ;	genPlus
                           2359 ;	genPlusIncr
   05E6 01 31 08           2360 	ld	bc,#_player + 1
                           2361 ;	genPointerGet
                           2362 ;	AOP_STK for _display_sprites_sloc0_1_0
   05E9 0A                 2363 	ld	a,(bc)
   05EA F8 05              2364 	lda	hl,5(sp)
   05EC 77                 2365 	ld	(hl),a
                           2366 ;	genPointerGet
                           2367 ;	AOP_STK for _display_sprites_sloc1_1_0
   05ED 11 30 08           2368 	ld	de,#_player
   05F0 1A                 2369 	ld	a,(de)
   05F1 2B                 2370 	dec	hl
   05F2 77                 2371 	ld	(hl),a
                           2372 ;	genIpush
                           2373 ; _saveRegsForCall: sendSetSize: 0 deInUse: 0 bcInUse: 1 deSending: 0
   05F3 C5                 2374 	push	bc
                           2375 ;	AOP_STK for _display_sprites_sloc0_1_0
   05F4 23                 2376 	inc	hl
   05F5 7E                 2377 	ld	a,(hl)
   05F6 F5                 2378 	push	af
   05F7 33                 2379 	inc	sp
                           2380 ;	genIpush
                           2381 ;	AOP_STK for _display_sprites_sloc1_1_0
   05F8 2B                 2382 	dec	hl
   05F9 7E                 2383 	ld	a,(hl)
   05FA F5                 2384 	push	af
   05FB 33                 2385 	inc	sp
                           2386 ;	genIpush
   05FC 3E 00              2387 	ld	a,#0x00
   05FE F5                 2388 	push	af
   05FF 33                 2389 	inc	sp
                           2390 ;	genCall
   0600 CD 00 00           2391 	call	_move_sprite
   0603 E8 03              2392 	lda	sp,3(sp)
   0605 C1                 2393 	pop	bc
                           2394 ;	lcdc.h 122
                           2395 ;	genIpush
                           2396 ; _saveRegsForCall: sendSetSize: 0 deInUse: 0 bcInUse: 1 deSending: 0
   0606 C5                 2397 	push	bc
   0607 21 01 1E           2398 	ld	hl,#0x1E01
   060A E5                 2399 	push	hl
                           2400 ;	genCall
   060B CD 00 00           2401 	call	_set_sprite_tile
   060E E8 02              2402 	lda	sp,2(sp)
   0610 C1                 2403 	pop	bc
                           2404 ;	lcdc.h 123
                           2405 ;	genPlus
                           2406 ;	AOP_STK for _display_sprites_sloc2_1_0
                           2407 ;	genPlusIncr
                           2408 ;	Can't optimise plus by inc, falling back to the normal way
   0611 11 30 08           2409 	ld	de,#_player
   0614 21 02 00           2410 	ld	hl,#0x0002
   0617 19                 2411 	add	hl,de
   0618 7D                 2412 	ld	a,l
   0619 54                 2413 	ld	d,h
   061A F8 02              2414 	lda	hl,2(sp)
   061C 22                 2415 	ld	(hl+),a
   061D 72                 2416 	ld	(hl),d
                           2417 ;	genPlus
                           2418 ;	AOP_STK for _display_sprites_sloc3_1_0
                           2419 ;	genPlusIncr
                           2420 ;	Can't optimise plus by inc, falling back to the normal way
   061E 11 30 08           2421 	ld	de,#_player
   0621 21 03 00           2422 	ld	hl,#0x0003
   0624 19                 2423 	add	hl,de
   0625 7D                 2424 	ld	a,l
   0626 54                 2425 	ld	d,h
   0627 F8 00              2426 	lda	hl,0(sp)
                           2427 ;	genPointerGet
                           2428 ;	AOP_STK for _display_sprites_sloc3_1_0
                           2429 ;	AOP_STK for _display_sprites_sloc1_1_0
   0629 22                 2430 	ld	(hl+),a
   062A 72                 2431 	ld	(hl),d
   062B 5F                 2432 	ld	e,a
   062C 1A                 2433 	ld	a,(de)
   062D F8 04              2434 	lda	hl,4(sp)
                           2435 ;	genPointerGet
                           2436 ;	AOP_STK for _display_sprites_sloc2_1_0
                           2437 ;	AOP_STK for _display_sprites_sloc0_1_0
   062F 32                 2438 	ld      (hl-),a
   0630 2B                 2439 	dec	hl
   0631 5E                 2440 	ld	e,(hl)
   0632 23                 2441 	inc	hl
   0633 56                 2442 	ld	d,(hl)
   0634 1A                 2443 	ld	a,(de)
   0635 23                 2444 	inc	hl
   0636 23                 2445 	inc	hl
   0637 77                 2446 	ld	(hl),a
                           2447 ;	genIpush
                           2448 ; _saveRegsForCall: sendSetSize: 0 deInUse: 0 bcInUse: 1 deSending: 0
   0638 C5                 2449 	push	bc
                           2450 ;	AOP_STK for _display_sprites_sloc1_1_0
   0639 2B                 2451 	dec	hl
   063A 7E                 2452 	ld	a,(hl)
   063B F5                 2453 	push	af
   063C 33                 2454 	inc	sp
                           2455 ;	genIpush
                           2456 ;	AOP_STK for _display_sprites_sloc0_1_0
   063D 23                 2457 	inc	hl
   063E 7E                 2458 	ld	a,(hl)
   063F F5                 2459 	push	af
   0640 33                 2460 	inc	sp
                           2461 ;	genIpush
   0641 3E 01              2462 	ld	a,#0x01
   0643 F5                 2463 	push	af
   0644 33                 2464 	inc	sp
                           2465 ;	genCall
   0645 CD 00 00           2466 	call	_move_sprite
   0648 E8 03              2467 	lda	sp,3(sp)
   064A C1                 2468 	pop	bc
                           2469 ;	lcdc.h 124
                           2470 ;	genIpush
                           2471 ; _saveRegsForCall: sendSetSize: 0 deInUse: 0 bcInUse: 1 deSending: 0
   064B C5                 2472 	push	bc
   064C 21 64 00           2473 	ld	hl,#0x0064
   064F E5                 2474 	push	hl
                           2475 ;	genCall
   0650 CD 00 00           2476 	call	_delay
   0653 E8 02              2477 	lda	sp,2(sp)
   0655 C1                 2478 	pop	bc
                           2479 ;	lcdc.h 126
                           2480 ;	genIpush
                           2481 ; _saveRegsForCall: sendSetSize: 0 deInUse: 0 bcInUse: 1 deSending: 0
   0656 C5                 2482 	push	bc
   0657 21 00 18           2483 	ld	hl,#0x1800
   065A E5                 2484 	push	hl
                           2485 ;	genCall
   065B CD 00 00           2486 	call	_set_sprite_tile
   065E E8 02              2487 	lda	sp,2(sp)
   0660 C1                 2488 	pop	bc
                           2489 ;	lcdc.h 127
                           2490 ;	genPointerGet
   0661 0A                 2491 	ld	a,(bc)
   0662 4F                 2492 	ld	c,a
                           2493 ;	genPointerGet
   0663 11 30 08           2494 	ld	de,#_player
   0666 1A                 2495 	ld	a,(de)
   0667 47                 2496 	ld	b,a
                           2497 ;	genIpush
                           2498 ; _saveRegsForCall: sendSetSize: 0 deInUse: 0 bcInUse: 0 deSending: 0
   0668 79                 2499 	ld	a,c
   0669 F5                 2500 	push	af
   066A 33                 2501 	inc	sp
                           2502 ;	genIpush
   066B 78                 2503 	ld	a,b
   066C F5                 2504 	push	af
   066D 33                 2505 	inc	sp
                           2506 ;	genIpush
   066E 3E 00              2507 	ld	a,#0x00
   0670 F5                 2508 	push	af
   0671 33                 2509 	inc	sp
                           2510 ;	genCall
   0672 CD 00 00           2511 	call	_move_sprite
   0675 E8 03              2512 	lda	sp,3(sp)
                           2513 ;	lcdc.h 128
                           2514 ;	genIpush
                           2515 ; _saveRegsForCall: sendSetSize: 0 deInUse: 0 bcInUse: 0 deSending: 0
   0677 21 01 1A           2516 	ld	hl,#0x1A01
   067A E5                 2517 	push	hl
                           2518 ;	genCall
   067B CD 00 00           2519 	call	_set_sprite_tile
   067E E8 02              2520 	lda	sp,2(sp)
                           2521 ;	lcdc.h 129
                           2522 ;	genPointerGet
                           2523 ;	AOP_STK for _display_sprites_sloc3_1_0
   0680 F8 00              2524 	lda	hl,0(sp)
   0682 5E                 2525 	ld	e,(hl)
   0683 23                 2526 	inc	hl
   0684 56                 2527 	ld	d,(hl)
   0685 1A                 2528 	ld	a,(de)
   0686 4F                 2529 	ld	c,a
                           2530 ;	genPointerGet
                           2531 ;	AOP_STK for _display_sprites_sloc2_1_0
   0687 23                 2532 	inc	hl
   0688 5E                 2533 	ld	e,(hl)
   0689 23                 2534 	inc	hl
   068A 56                 2535 	ld	d,(hl)
   068B 1A                 2536 	ld	a,(de)
   068C 47                 2537 	ld	b,a
                           2538 ;	genIpush
                           2539 ; _saveRegsForCall: sendSetSize: 0 deInUse: 0 bcInUse: 0 deSending: 0
   068D 79                 2540 	ld	a,c
   068E F5                 2541 	push	af
   068F 33                 2542 	inc	sp
                           2543 ;	genIpush
   0690 78                 2544 	ld	a,b
   0691 F5                 2545 	push	af
   0692 33                 2546 	inc	sp
                           2547 ;	genIpush
   0693 3E 01              2548 	ld	a,#0x01
   0695 F5                 2549 	push	af
   0696 33                 2550 	inc	sp
                           2551 ;	genCall
   0697 CD 00 00           2552 	call	_move_sprite
   069A E8 03              2553 	lda	sp,3(sp)
                           2554 ;	lcdc.h 130
                           2555 ;	genIpush
                           2556 ; _saveRegsForCall: sendSetSize: 0 deInUse: 0 bcInUse: 0 deSending: 0
   069C 21 64 00           2557 	ld	hl,#0x0064
   069F E5                 2558 	push	hl
                           2559 ;	genCall
   06A0 CD 00 00           2560 	call	_delay
   06A3 E8 02              2561 	lda	sp,2(sp)
                           2562 ;	genLabel
   06A5                    2563 00102$:
                           2564 ;	lcdc.h 133
                           2565 ;	genCmpEq
                           2566 ;	AOP_HL for _down
                           2567 ; genCmpEq: left 1, right 1, result 0
   06A5 21 80 10           2568 	ld	hl,#_down
   06A8 7E                 2569 	ld	a,(hl)
   06A9 FE 01              2570 	cp	a,#0x01
   06AB C2 7F 07           2571 	jp	nz,00104$
   06AE 18 03              2572 	jr	00118$
   06B0                    2573 00117$:
   06B0 C3 7F 07           2574 	jp	00104$
   06B3                    2575 00118$:
                           2576 ;	lcdc.h 135
                           2577 ;	genIpush
                           2578 ; _saveRegsForCall: sendSetSize: 0 deInUse: 0 bcInUse: 0 deSending: 0
   06B3 21 00 04           2579 	ld	hl,#0x0400
   06B6 E5                 2580 	push	hl
                           2581 ;	genCall
   06B7 CD 00 00           2582 	call	_set_sprite_tile
   06BA E8 02              2583 	lda	sp,2(sp)
                           2584 ;	lcdc.h 136
                           2585 ;	genPlus
                           2586 ;	genPlusIncr
   06BC 01 31 08           2587 	ld	bc,#_player + 1
                           2588 ;	genPointerGet
                           2589 ;	AOP_STK for _display_sprites_sloc3_1_0
   06BF 0A                 2590 	ld	a,(bc)
   06C0 F8 00              2591 	lda	hl,0(sp)
   06C2 77                 2592 	ld	(hl),a
                           2593 ;	genPointerGet
                           2594 ;	AOP_STK for _display_sprites_sloc2_1_0
   06C3 11 30 08           2595 	ld	de,#_player
   06C6 1A                 2596 	ld	a,(de)
   06C7 23                 2597 	inc	hl
   06C8 23                 2598 	inc	hl
   06C9 77                 2599 	ld	(hl),a
                           2600 ;	genIpush
                           2601 ; _saveRegsForCall: sendSetSize: 0 deInUse: 0 bcInUse: 1 deSending: 0
   06CA C5                 2602 	push	bc
                           2603 ;	AOP_STK for _display_sprites_sloc3_1_0
   06CB 2B                 2604 	dec	hl
   06CC 2B                 2605 	dec	hl
   06CD 7E                 2606 	ld	a,(hl)
   06CE F5                 2607 	push	af
   06CF 33                 2608 	inc	sp
                           2609 ;	genIpush
                           2610 ;	AOP_STK for _display_sprites_sloc2_1_0
   06D0 23                 2611 	inc	hl
   06D1 23                 2612 	inc	hl
   06D2 7E                 2613 	ld	a,(hl)
   06D3 F5                 2614 	push	af
   06D4 33                 2615 	inc	sp
                           2616 ;	genIpush
   06D5 3E 00              2617 	ld	a,#0x00
   06D7 F5                 2618 	push	af
   06D8 33                 2619 	inc	sp
                           2620 ;	genCall
   06D9 CD 00 00           2621 	call	_move_sprite
   06DC E8 03              2622 	lda	sp,3(sp)
   06DE C1                 2623 	pop	bc
                           2624 ;	lcdc.h 137
                           2625 ;	genIpush
                           2626 ; _saveRegsForCall: sendSetSize: 0 deInUse: 0 bcInUse: 1 deSending: 0
   06DF C5                 2627 	push	bc
   06E0 21 01 06           2628 	ld	hl,#0x0601
   06E3 E5                 2629 	push	hl
                           2630 ;	genCall
   06E4 CD 00 00           2631 	call	_set_sprite_tile
   06E7 E8 02              2632 	lda	sp,2(sp)
   06E9 C1                 2633 	pop	bc
                           2634 ;	lcdc.h 138
                           2635 ;	genPlus
                           2636 ;	AOP_STK for _display_sprites_sloc3_1_0
                           2637 ;	genPlusIncr
                           2638 ;	Can't optimise plus by inc, falling back to the normal way
   06EA 11 30 08           2639 	ld	de,#_player
   06ED 21 02 00           2640 	ld	hl,#0x0002
   06F0 19                 2641 	add	hl,de
   06F1 7D                 2642 	ld	a,l
   06F2 54                 2643 	ld	d,h
   06F3 F8 00              2644 	lda	hl,0(sp)
   06F5 22                 2645 	ld	(hl+),a
   06F6 72                 2646 	ld	(hl),d
                           2647 ;	genPlus
                           2648 ;	AOP_STK for _display_sprites_sloc2_1_0
                           2649 ;	genPlusIncr
                           2650 ;	Can't optimise plus by inc, falling back to the normal way
   06F7 11 30 08           2651 	ld	de,#_player
   06FA 21 03 00           2652 	ld	hl,#0x0003
   06FD 19                 2653 	add	hl,de
   06FE 7D                 2654 	ld	a,l
   06FF 54                 2655 	ld	d,h
   0700 F8 02              2656 	lda	hl,2(sp)
                           2657 ;	genPointerGet
                           2658 ;	AOP_STK for _display_sprites_sloc2_1_0
                           2659 ;	AOP_STK for _display_sprites_sloc1_1_0
   0702 22                 2660 	ld	(hl+),a
   0703 72                 2661 	ld	(hl),d
   0704 5F                 2662 	ld	e,a
   0705 1A                 2663 	ld	a,(de)
   0706 23                 2664 	inc	hl
   0707 77                 2665 	ld	(hl),a
                           2666 ;	genPointerGet
                           2667 ;	AOP_STK for _display_sprites_sloc3_1_0
                           2668 ;	AOP_STK for _display_sprites_sloc0_1_0
   0708 F8 00              2669 	lda	hl,0(sp)
   070A 5E                 2670 	ld	e,(hl)
   070B 23                 2671 	inc	hl
   070C 56                 2672 	ld	d,(hl)
   070D 1A                 2673 	ld	a,(de)
   070E F8 05              2674 	lda	hl,5(sp)
   0710 77                 2675 	ld	(hl),a
                           2676 ;	genIpush
                           2677 ; _saveRegsForCall: sendSetSize: 0 deInUse: 0 bcInUse: 1 deSending: 0
   0711 C5                 2678 	push	bc
                           2679 ;	AOP_STK for _display_sprites_sloc1_1_0
   0712 2B                 2680 	dec	hl
   0713 7E                 2681 	ld	a,(hl)
   0714 F5                 2682 	push	af
   0715 33                 2683 	inc	sp
                           2684 ;	genIpush
                           2685 ;	AOP_STK for _display_sprites_sloc0_1_0
   0716 23                 2686 	inc	hl
   0717 7E                 2687 	ld	a,(hl)
   0718 F5                 2688 	push	af
   0719 33                 2689 	inc	sp
                           2690 ;	genIpush
   071A 3E 01              2691 	ld	a,#0x01
   071C F5                 2692 	push	af
   071D 33                 2693 	inc	sp
                           2694 ;	genCall
   071E CD 00 00           2695 	call	_move_sprite
   0721 E8 03              2696 	lda	sp,3(sp)
   0723 C1                 2697 	pop	bc
                           2698 ;	lcdc.h 139
                           2699 ;	genIpush
                           2700 ; _saveRegsForCall: sendSetSize: 0 deInUse: 0 bcInUse: 1 deSending: 0
   0724 C5                 2701 	push	bc
   0725 21 64 00           2702 	ld	hl,#0x0064
   0728 E5                 2703 	push	hl
                           2704 ;	genCall
   0729 CD 00 00           2705 	call	_delay
   072C E8 02              2706 	lda	sp,2(sp)
   072E C1                 2707 	pop	bc
                           2708 ;	lcdc.h 141
                           2709 ;	genIpush
                           2710 ; _saveRegsForCall: sendSetSize: 0 deInUse: 0 bcInUse: 1 deSending: 0
   072F C5                 2711 	push	bc
   0730 21 00 00           2712 	ld	hl,#0x0000
   0733 E5                 2713 	push	hl
                           2714 ;	genCall
   0734 CD 00 00           2715 	call	_set_sprite_tile
   0737 E8 02              2716 	lda	sp,2(sp)
   0739 C1                 2717 	pop	bc
                           2718 ;	lcdc.h 142
                           2719 ;	genPointerGet
   073A 0A                 2720 	ld	a,(bc)
   073B 4F                 2721 	ld	c,a
                           2722 ;	genPointerGet
   073C 11 30 08           2723 	ld	de,#_player
   073F 1A                 2724 	ld	a,(de)
   0740 47                 2725 	ld	b,a
                           2726 ;	genIpush
                           2727 ; _saveRegsForCall: sendSetSize: 0 deInUse: 0 bcInUse: 0 deSending: 0
   0741 79                 2728 	ld	a,c
   0742 F5                 2729 	push	af
   0743 33                 2730 	inc	sp
                           2731 ;	genIpush
   0744 78                 2732 	ld	a,b
   0745 F5                 2733 	push	af
   0746 33                 2734 	inc	sp
                           2735 ;	genIpush
   0747 3E 00              2736 	ld	a,#0x00
   0749 F5                 2737 	push	af
   074A 33                 2738 	inc	sp
                           2739 ;	genCall
   074B CD 00 00           2740 	call	_move_sprite
   074E E8 03              2741 	lda	sp,3(sp)
                           2742 ;	lcdc.h 143
                           2743 ;	genIpush
                           2744 ; _saveRegsForCall: sendSetSize: 0 deInUse: 0 bcInUse: 0 deSending: 0
   0750 21 01 02           2745 	ld	hl,#0x0201
   0753 E5                 2746 	push	hl
                           2747 ;	genCall
   0754 CD 00 00           2748 	call	_set_sprite_tile
   0757 E8 02              2749 	lda	sp,2(sp)
                           2750 ;	lcdc.h 144
                           2751 ;	genPointerGet
                           2752 ;	AOP_STK for _display_sprites_sloc2_1_0
   0759 F8 02              2753 	lda	hl,2(sp)
   075B 5E                 2754 	ld	e,(hl)
   075C 23                 2755 	inc	hl
   075D 56                 2756 	ld	d,(hl)
   075E 1A                 2757 	ld	a,(de)
   075F 4F                 2758 	ld	c,a
                           2759 ;	genPointerGet
                           2760 ;	AOP_STK for _display_sprites_sloc3_1_0
   0760 F8 00              2761 	lda	hl,0(sp)
   0762 5E                 2762 	ld	e,(hl)
   0763 23                 2763 	inc	hl
   0764 56                 2764 	ld	d,(hl)
   0765 1A                 2765 	ld	a,(de)
   0766 47                 2766 	ld	b,a
                           2767 ;	genIpush
                           2768 ; _saveRegsForCall: sendSetSize: 0 deInUse: 0 bcInUse: 0 deSending: 0
   0767 79                 2769 	ld	a,c
   0768 F5                 2770 	push	af
   0769 33                 2771 	inc	sp
                           2772 ;	genIpush
   076A 78                 2773 	ld	a,b
   076B F5                 2774 	push	af
   076C 33                 2775 	inc	sp
                           2776 ;	genIpush
   076D 3E 01              2777 	ld	a,#0x01
   076F F5                 2778 	push	af
   0770 33                 2779 	inc	sp
                           2780 ;	genCall
   0771 CD 00 00           2781 	call	_move_sprite
   0774 E8 03              2782 	lda	sp,3(sp)
                           2783 ;	lcdc.h 145
                           2784 ;	genIpush
                           2785 ; _saveRegsForCall: sendSetSize: 0 deInUse: 0 bcInUse: 0 deSending: 0
   0776 21 64 00           2786 	ld	hl,#0x0064
   0779 E5                 2787 	push	hl
                           2788 ;	genCall
   077A CD 00 00           2789 	call	_delay
   077D E8 02              2790 	lda	sp,2(sp)
                           2791 ;	genLabel
   077F                    2792 00104$:
                           2793 ;	lcdc.h 148
                           2794 ;	genCmpEq
                           2795 ;	AOP_HL for _left
                           2796 ; genCmpEq: left 1, right 1, result 0
   077F 21 82 10           2797 	ld	hl,#_left
   0782 7E                 2798 	ld	a,(hl)
   0783 FE 01              2799 	cp	a,#0x01
   0785 C2 59 08           2800 	jp	nz,00106$
   0788 18 03              2801 	jr	00120$
   078A                    2802 00119$:
   078A C3 59 08           2803 	jp	00106$
   078D                    2804 00120$:
                           2805 ;	lcdc.h 150
                           2806 ;	genIpush
                           2807 ; _saveRegsForCall: sendSetSize: 0 deInUse: 0 bcInUse: 0 deSending: 0
   078D 21 00 0C           2808 	ld	hl,#0x0C00
   0790 E5                 2809 	push	hl
                           2810 ;	genCall
   0791 CD 00 00           2811 	call	_set_sprite_tile
   0794 E8 02              2812 	lda	sp,2(sp)
                           2813 ;	lcdc.h 151
                           2814 ;	genPlus
                           2815 ;	genPlusIncr
   0796 01 31 08           2816 	ld	bc,#_player + 1
                           2817 ;	genPointerGet
                           2818 ;	AOP_STK for _display_sprites_sloc3_1_0
   0799 0A                 2819 	ld	a,(bc)
   079A F8 00              2820 	lda	hl,0(sp)
   079C 77                 2821 	ld	(hl),a
                           2822 ;	genPointerGet
                           2823 ;	AOP_STK for _display_sprites_sloc2_1_0
   079D 11 30 08           2824 	ld	de,#_player
   07A0 1A                 2825 	ld	a,(de)
   07A1 23                 2826 	inc	hl
   07A2 23                 2827 	inc	hl
   07A3 77                 2828 	ld	(hl),a
                           2829 ;	genIpush
                           2830 ; _saveRegsForCall: sendSetSize: 0 deInUse: 0 bcInUse: 1 deSending: 0
   07A4 C5                 2831 	push	bc
                           2832 ;	AOP_STK for _display_sprites_sloc3_1_0
   07A5 2B                 2833 	dec	hl
   07A6 2B                 2834 	dec	hl
   07A7 7E                 2835 	ld	a,(hl)
   07A8 F5                 2836 	push	af
   07A9 33                 2837 	inc	sp
                           2838 ;	genIpush
                           2839 ;	AOP_STK for _display_sprites_sloc2_1_0
   07AA 23                 2840 	inc	hl
   07AB 23                 2841 	inc	hl
   07AC 7E                 2842 	ld	a,(hl)
   07AD F5                 2843 	push	af
   07AE 33                 2844 	inc	sp
                           2845 ;	genIpush
   07AF 3E 00              2846 	ld	a,#0x00
   07B1 F5                 2847 	push	af
   07B2 33                 2848 	inc	sp
                           2849 ;	genCall
   07B3 CD 00 00           2850 	call	_move_sprite
   07B6 E8 03              2851 	lda	sp,3(sp)
   07B8 C1                 2852 	pop	bc
                           2853 ;	lcdc.h 152
                           2854 ;	genIpush
                           2855 ; _saveRegsForCall: sendSetSize: 0 deInUse: 0 bcInUse: 1 deSending: 0
   07B9 C5                 2856 	push	bc
   07BA 21 01 0E           2857 	ld	hl,#0x0E01
   07BD E5                 2858 	push	hl
                           2859 ;	genCall
   07BE CD 00 00           2860 	call	_set_sprite_tile
   07C1 E8 02              2861 	lda	sp,2(sp)
   07C3 C1                 2862 	pop	bc
                           2863 ;	lcdc.h 153
                           2864 ;	genPlus
                           2865 ;	AOP_STK for _display_sprites_sloc3_1_0
                           2866 ;	genPlusIncr
                           2867 ;	Can't optimise plus by inc, falling back to the normal way
   07C4 11 30 08           2868 	ld	de,#_player
   07C7 21 02 00           2869 	ld	hl,#0x0002
   07CA 19                 2870 	add	hl,de
   07CB 7D                 2871 	ld	a,l
   07CC 54                 2872 	ld	d,h
   07CD F8 00              2873 	lda	hl,0(sp)
   07CF 22                 2874 	ld	(hl+),a
   07D0 72                 2875 	ld	(hl),d
                           2876 ;	genPlus
                           2877 ;	AOP_STK for _display_sprites_sloc2_1_0
                           2878 ;	genPlusIncr
                           2879 ;	Can't optimise plus by inc, falling back to the normal way
   07D1 11 30 08           2880 	ld	de,#_player
   07D4 21 03 00           2881 	ld	hl,#0x0003
   07D7 19                 2882 	add	hl,de
   07D8 7D                 2883 	ld	a,l
   07D9 54                 2884 	ld	d,h
   07DA F8 02              2885 	lda	hl,2(sp)
                           2886 ;	genPointerGet
                           2887 ;	AOP_STK for _display_sprites_sloc2_1_0
                           2888 ;	AOP_STK for _display_sprites_sloc1_1_0
   07DC 22                 2889 	ld	(hl+),a
   07DD 72                 2890 	ld	(hl),d
   07DE 5F                 2891 	ld	e,a
   07DF 1A                 2892 	ld	a,(de)
   07E0 23                 2893 	inc	hl
   07E1 77                 2894 	ld	(hl),a
                           2895 ;	genPointerGet
                           2896 ;	AOP_STK for _display_sprites_sloc3_1_0
                           2897 ;	AOP_STK for _display_sprites_sloc0_1_0
   07E2 F8 00              2898 	lda	hl,0(sp)
   07E4 5E                 2899 	ld	e,(hl)
   07E5 23                 2900 	inc	hl
   07E6 56                 2901 	ld	d,(hl)
   07E7 1A                 2902 	ld	a,(de)
   07E8 F8 05              2903 	lda	hl,5(sp)
   07EA 77                 2904 	ld	(hl),a
                           2905 ;	genIpush
                           2906 ; _saveRegsForCall: sendSetSize: 0 deInUse: 0 bcInUse: 1 deSending: 0
   07EB C5                 2907 	push	bc
                           2908 ;	AOP_STK for _display_sprites_sloc1_1_0
   07EC 2B                 2909 	dec	hl
   07ED 7E                 2910 	ld	a,(hl)
   07EE F5                 2911 	push	af
   07EF 33                 2912 	inc	sp
                           2913 ;	genIpush
                           2914 ;	AOP_STK for _display_sprites_sloc0_1_0
   07F0 23                 2915 	inc	hl
   07F1 7E                 2916 	ld	a,(hl)
   07F2 F5                 2917 	push	af
   07F3 33                 2918 	inc	sp
                           2919 ;	genIpush
   07F4 3E 01              2920 	ld	a,#0x01
   07F6 F5                 2921 	push	af
   07F7 33                 2922 	inc	sp
                           2923 ;	genCall
   07F8 CD 00 00           2924 	call	_move_sprite
   07FB E8 03              2925 	lda	sp,3(sp)
   07FD C1                 2926 	pop	bc
                           2927 ;	lcdc.h 154
                           2928 ;	genIpush
                           2929 ; _saveRegsForCall: sendSetSize: 0 deInUse: 0 bcInUse: 1 deSending: 0
   07FE C5                 2930 	push	bc
   07FF 21 64 00           2931 	ld	hl,#0x0064
   0802 E5                 2932 	push	hl
                           2933 ;	genCall
   0803 CD 00 00           2934 	call	_delay
   0806 E8 02              2935 	lda	sp,2(sp)
   0808 C1                 2936 	pop	bc
                           2937 ;	lcdc.h 156
                           2938 ;	genIpush
                           2939 ; _saveRegsForCall: sendSetSize: 0 deInUse: 0 bcInUse: 1 deSending: 0
   0809 C5                 2940 	push	bc
   080A 21 00 08           2941 	ld	hl,#0x0800
   080D E5                 2942 	push	hl
                           2943 ;	genCall
   080E CD 00 00           2944 	call	_set_sprite_tile
   0811 E8 02              2945 	lda	sp,2(sp)
   0813 C1                 2946 	pop	bc
                           2947 ;	lcdc.h 157
                           2948 ;	genPointerGet
   0814 0A                 2949 	ld	a,(bc)
   0815 4F                 2950 	ld	c,a
                           2951 ;	genPointerGet
   0816 11 30 08           2952 	ld	de,#_player
   0819 1A                 2953 	ld	a,(de)
   081A 47                 2954 	ld	b,a
                           2955 ;	genIpush
                           2956 ; _saveRegsForCall: sendSetSize: 0 deInUse: 0 bcInUse: 0 deSending: 0
   081B 79                 2957 	ld	a,c
   081C F5                 2958 	push	af
   081D 33                 2959 	inc	sp
                           2960 ;	genIpush
   081E 78                 2961 	ld	a,b
   081F F5                 2962 	push	af
   0820 33                 2963 	inc	sp
                           2964 ;	genIpush
   0821 3E 00              2965 	ld	a,#0x00
   0823 F5                 2966 	push	af
   0824 33                 2967 	inc	sp
                           2968 ;	genCall
   0825 CD 00 00           2969 	call	_move_sprite
   0828 E8 03              2970 	lda	sp,3(sp)
                           2971 ;	lcdc.h 158
                           2972 ;	genIpush
                           2973 ; _saveRegsForCall: sendSetSize: 0 deInUse: 0 bcInUse: 0 deSending: 0
   082A 21 01 0A           2974 	ld	hl,#0x0A01
   082D E5                 2975 	push	hl
                           2976 ;	genCall
   082E CD 00 00           2977 	call	_set_sprite_tile
   0831 E8 02              2978 	lda	sp,2(sp)
                           2979 ;	lcdc.h 159
                           2980 ;	genPointerGet
                           2981 ;	AOP_STK for _display_sprites_sloc2_1_0
   0833 F8 02              2982 	lda	hl,2(sp)
   0835 5E                 2983 	ld	e,(hl)
   0836 23                 2984 	inc	hl
   0837 56                 2985 	ld	d,(hl)
   0838 1A                 2986 	ld	a,(de)
   0839 4F                 2987 	ld	c,a
                           2988 ;	genPointerGet
                           2989 ;	AOP_STK for _display_sprites_sloc3_1_0
   083A F8 00              2990 	lda	hl,0(sp)
   083C 5E                 2991 	ld	e,(hl)
   083D 23                 2992 	inc	hl
   083E 56                 2993 	ld	d,(hl)
   083F 1A                 2994 	ld	a,(de)
   0840 47                 2995 	ld	b,a
                           2996 ;	genIpush
                           2997 ; _saveRegsForCall: sendSetSize: 0 deInUse: 0 bcInUse: 0 deSending: 0
   0841 79                 2998 	ld	a,c
   0842 F5                 2999 	push	af
   0843 33                 3000 	inc	sp
                           3001 ;	genIpush
   0844 78                 3002 	ld	a,b
   0845 F5                 3003 	push	af
   0846 33                 3004 	inc	sp
                           3005 ;	genIpush
   0847 3E 01              3006 	ld	a,#0x01
   0849 F5                 3007 	push	af
   084A 33                 3008 	inc	sp
                           3009 ;	genCall
   084B CD 00 00           3010 	call	_move_sprite
   084E E8 03              3011 	lda	sp,3(sp)
                           3012 ;	lcdc.h 160
                           3013 ;	genIpush
                           3014 ; _saveRegsForCall: sendSetSize: 0 deInUse: 0 bcInUse: 0 deSending: 0
   0850 21 64 00           3015 	ld	hl,#0x0064
   0853 E5                 3016 	push	hl
                           3017 ;	genCall
   0854 CD 00 00           3018 	call	_delay
   0857 E8 02              3019 	lda	sp,2(sp)
                           3020 ;	genLabel
   0859                    3021 00106$:
                           3022 ;	lcdc.h 163
                           3023 ;	genCmpEq
                           3024 ;	AOP_HL for _right
                           3025 ; genCmpEq: left 1, right 1, result 0
   0859 21 83 10           3026 	ld	hl,#_right
   085C 7E                 3027 	ld	a,(hl)
   085D FE 01              3028 	cp	a,#0x01
   085F C2 33 09           3029 	jp	nz,00109$
   0862 18 03              3030 	jr	00122$
   0864                    3031 00121$:
   0864 C3 33 09           3032 	jp	00109$
   0867                    3033 00122$:
                           3034 ;	lcdc.h 165
                           3035 ;	genIpush
                           3036 ; _saveRegsForCall: sendSetSize: 0 deInUse: 0 bcInUse: 0 deSending: 0
   0867 21 00 14           3037 	ld	hl,#0x1400
   086A E5                 3038 	push	hl
                           3039 ;	genCall
   086B CD 00 00           3040 	call	_set_sprite_tile
   086E E8 02              3041 	lda	sp,2(sp)
                           3042 ;	lcdc.h 166
                           3043 ;	genPlus
                           3044 ;	genPlusIncr
   0870 01 31 08           3045 	ld	bc,#_player + 1
                           3046 ;	genPointerGet
                           3047 ;	AOP_STK for _display_sprites_sloc3_1_0
   0873 0A                 3048 	ld	a,(bc)
   0874 F8 00              3049 	lda	hl,0(sp)
   0876 77                 3050 	ld	(hl),a
                           3051 ;	genPointerGet
                           3052 ;	AOP_STK for _display_sprites_sloc2_1_0
   0877 11 30 08           3053 	ld	de,#_player
   087A 1A                 3054 	ld	a,(de)
   087B 23                 3055 	inc	hl
   087C 23                 3056 	inc	hl
   087D 77                 3057 	ld	(hl),a
                           3058 ;	genIpush
                           3059 ; _saveRegsForCall: sendSetSize: 0 deInUse: 0 bcInUse: 1 deSending: 0
   087E C5                 3060 	push	bc
                           3061 ;	AOP_STK for _display_sprites_sloc3_1_0
   087F 2B                 3062 	dec	hl
   0880 2B                 3063 	dec	hl
   0881 7E                 3064 	ld	a,(hl)
   0882 F5                 3065 	push	af
   0883 33                 3066 	inc	sp
                           3067 ;	genIpush
                           3068 ;	AOP_STK for _display_sprites_sloc2_1_0
   0884 23                 3069 	inc	hl
   0885 23                 3070 	inc	hl
   0886 7E                 3071 	ld	a,(hl)
   0887 F5                 3072 	push	af
   0888 33                 3073 	inc	sp
                           3074 ;	genIpush
   0889 3E 00              3075 	ld	a,#0x00
   088B F5                 3076 	push	af
   088C 33                 3077 	inc	sp
                           3078 ;	genCall
   088D CD 00 00           3079 	call	_move_sprite
   0890 E8 03              3080 	lda	sp,3(sp)
   0892 C1                 3081 	pop	bc
                           3082 ;	lcdc.h 167
                           3083 ;	genIpush
                           3084 ; _saveRegsForCall: sendSetSize: 0 deInUse: 0 bcInUse: 1 deSending: 0
   0893 C5                 3085 	push	bc
   0894 21 01 16           3086 	ld	hl,#0x1601
   0897 E5                 3087 	push	hl
                           3088 ;	genCall
   0898 CD 00 00           3089 	call	_set_sprite_tile
   089B E8 02              3090 	lda	sp,2(sp)
   089D C1                 3091 	pop	bc
                           3092 ;	lcdc.h 168
                           3093 ;	genPlus
                           3094 ;	AOP_STK for _display_sprites_sloc3_1_0
                           3095 ;	genPlusIncr
                           3096 ;	Can't optimise plus by inc, falling back to the normal way
   089E 11 30 08           3097 	ld	de,#_player
   08A1 21 02 00           3098 	ld	hl,#0x0002
   08A4 19                 3099 	add	hl,de
   08A5 7D                 3100 	ld	a,l
   08A6 54                 3101 	ld	d,h
   08A7 F8 00              3102 	lda	hl,0(sp)
   08A9 22                 3103 	ld	(hl+),a
   08AA 72                 3104 	ld	(hl),d
                           3105 ;	genPlus
                           3106 ;	AOP_STK for _display_sprites_sloc2_1_0
                           3107 ;	genPlusIncr
                           3108 ;	Can't optimise plus by inc, falling back to the normal way
   08AB 11 30 08           3109 	ld	de,#_player
   08AE 21 03 00           3110 	ld	hl,#0x0003
   08B1 19                 3111 	add	hl,de
   08B2 7D                 3112 	ld	a,l
   08B3 54                 3113 	ld	d,h
   08B4 F8 02              3114 	lda	hl,2(sp)
                           3115 ;	genPointerGet
                           3116 ;	AOP_STK for _display_sprites_sloc2_1_0
                           3117 ;	AOP_STK for _display_sprites_sloc1_1_0
   08B6 22                 3118 	ld	(hl+),a
   08B7 72                 3119 	ld	(hl),d
   08B8 5F                 3120 	ld	e,a
   08B9 1A                 3121 	ld	a,(de)
   08BA 23                 3122 	inc	hl
   08BB 77                 3123 	ld	(hl),a
                           3124 ;	genPointerGet
                           3125 ;	AOP_STK for _display_sprites_sloc3_1_0
                           3126 ;	AOP_STK for _display_sprites_sloc0_1_0
   08BC F8 00              3127 	lda	hl,0(sp)
   08BE 5E                 3128 	ld	e,(hl)
   08BF 23                 3129 	inc	hl
   08C0 56                 3130 	ld	d,(hl)
   08C1 1A                 3131 	ld	a,(de)
   08C2 F8 05              3132 	lda	hl,5(sp)
   08C4 77                 3133 	ld	(hl),a
                           3134 ;	genIpush
                           3135 ; _saveRegsForCall: sendSetSize: 0 deInUse: 0 bcInUse: 1 deSending: 0
   08C5 C5                 3136 	push	bc
                           3137 ;	AOP_STK for _display_sprites_sloc1_1_0
   08C6 2B                 3138 	dec	hl
   08C7 7E                 3139 	ld	a,(hl)
   08C8 F5                 3140 	push	af
   08C9 33                 3141 	inc	sp
                           3142 ;	genIpush
                           3143 ;	AOP_STK for _display_sprites_sloc0_1_0
   08CA 23                 3144 	inc	hl
   08CB 7E                 3145 	ld	a,(hl)
   08CC F5                 3146 	push	af
   08CD 33                 3147 	inc	sp
                           3148 ;	genIpush
   08CE 3E 01              3149 	ld	a,#0x01
   08D0 F5                 3150 	push	af
   08D1 33                 3151 	inc	sp
                           3152 ;	genCall
   08D2 CD 00 00           3153 	call	_move_sprite
   08D5 E8 03              3154 	lda	sp,3(sp)
   08D7 C1                 3155 	pop	bc
                           3156 ;	lcdc.h 169
                           3157 ;	genIpush
                           3158 ; _saveRegsForCall: sendSetSize: 0 deInUse: 0 bcInUse: 1 deSending: 0
   08D8 C5                 3159 	push	bc
   08D9 21 64 00           3160 	ld	hl,#0x0064
   08DC E5                 3161 	push	hl
                           3162 ;	genCall
   08DD CD 00 00           3163 	call	_delay
   08E0 E8 02              3164 	lda	sp,2(sp)
   08E2 C1                 3165 	pop	bc
                           3166 ;	lcdc.h 171
                           3167 ;	genIpush
                           3168 ; _saveRegsForCall: sendSetSize: 0 deInUse: 0 bcInUse: 1 deSending: 0
   08E3 C5                 3169 	push	bc
   08E4 21 00 10           3170 	ld	hl,#0x1000
   08E7 E5                 3171 	push	hl
                           3172 ;	genCall
   08E8 CD 00 00           3173 	call	_set_sprite_tile
   08EB E8 02              3174 	lda	sp,2(sp)
   08ED C1                 3175 	pop	bc
                           3176 ;	lcdc.h 172
                           3177 ;	genPointerGet
   08EE 0A                 3178 	ld	a,(bc)
   08EF 4F                 3179 	ld	c,a
                           3180 ;	genPointerGet
   08F0 11 30 08           3181 	ld	de,#_player
   08F3 1A                 3182 	ld	a,(de)
   08F4 47                 3183 	ld	b,a
                           3184 ;	genIpush
                           3185 ; _saveRegsForCall: sendSetSize: 0 deInUse: 0 bcInUse: 0 deSending: 0
   08F5 79                 3186 	ld	a,c
   08F6 F5                 3187 	push	af
   08F7 33                 3188 	inc	sp
                           3189 ;	genIpush
   08F8 78                 3190 	ld	a,b
   08F9 F5                 3191 	push	af
   08FA 33                 3192 	inc	sp
                           3193 ;	genIpush
   08FB 3E 00              3194 	ld	a,#0x00
   08FD F5                 3195 	push	af
   08FE 33                 3196 	inc	sp
                           3197 ;	genCall
   08FF CD 00 00           3198 	call	_move_sprite
   0902 E8 03              3199 	lda	sp,3(sp)
                           3200 ;	lcdc.h 173
                           3201 ;	genIpush
                           3202 ; _saveRegsForCall: sendSetSize: 0 deInUse: 0 bcInUse: 0 deSending: 0
   0904 21 01 12           3203 	ld	hl,#0x1201
   0907 E5                 3204 	push	hl
                           3205 ;	genCall
   0908 CD 00 00           3206 	call	_set_sprite_tile
   090B E8 02              3207 	lda	sp,2(sp)
                           3208 ;	lcdc.h 174
                           3209 ;	genPointerGet
                           3210 ;	AOP_STK for _display_sprites_sloc2_1_0
   090D F8 02              3211 	lda	hl,2(sp)
   090F 5E                 3212 	ld	e,(hl)
   0910 23                 3213 	inc	hl
   0911 56                 3214 	ld	d,(hl)
   0912 1A                 3215 	ld	a,(de)
   0913 4F                 3216 	ld	c,a
                           3217 ;	genPointerGet
                           3218 ;	AOP_STK for _display_sprites_sloc3_1_0
   0914 F8 00              3219 	lda	hl,0(sp)
   0916 5E                 3220 	ld	e,(hl)
   0917 23                 3221 	inc	hl
   0918 56                 3222 	ld	d,(hl)
   0919 1A                 3223 	ld	a,(de)
   091A 47                 3224 	ld	b,a
                           3225 ;	genIpush
                           3226 ; _saveRegsForCall: sendSetSize: 0 deInUse: 0 bcInUse: 0 deSending: 0
   091B 79                 3227 	ld	a,c
   091C F5                 3228 	push	af
   091D 33                 3229 	inc	sp
                           3230 ;	genIpush
   091E 78                 3231 	ld	a,b
   091F F5                 3232 	push	af
   0920 33                 3233 	inc	sp
                           3234 ;	genIpush
   0921 3E 01              3235 	ld	a,#0x01
   0923 F5                 3236 	push	af
   0924 33                 3237 	inc	sp
                           3238 ;	genCall
   0925 CD 00 00           3239 	call	_move_sprite
   0928 E8 03              3240 	lda	sp,3(sp)
                           3241 ;	lcdc.h 175
                           3242 ;	genIpush
                           3243 ; _saveRegsForCall: sendSetSize: 0 deInUse: 0 bcInUse: 0 deSending: 0
   092A 21 64 00           3244 	ld	hl,#0x0064
   092D E5                 3245 	push	hl
                           3246 ;	genCall
   092E CD 00 00           3247 	call	_delay
   0931 E8 02              3248 	lda	sp,2(sp)
                           3249 ;	genLabel
   0933                    3250 00109$:
                           3251 ;	genEndFunction
   0933 E8 06              3252 	lda	sp,6(sp)
   0935 C9                 3253 	ret
   0936                    3254 ___display_sprites_end:
                           3255 ;	main.c 8
                           3256 ;	genLabel
                           3257 ;	genFunction
                           3258 ;	---------------------------------
                           3259 ; Function main
                           3260 ; ---------------------------------
   0936                    3261 ___main_start:
   0936                    3262 _main:
                           3263 	
                           3264 ;	main.c 10
                           3265 ;	genCall
                           3266 ; _saveRegsForCall: sendSetSize: 0 deInUse: 0 bcInUse: 0 deSending: 0
   0936 CD E9 03           3267 	call	_setup_sprites
                           3268 ;	main.c 11
                           3269 ;	genCall
                           3270 ; _saveRegsForCall: sendSetSize: 0 deInUse: 0 bcInUse: 0 deSending: 0
   0939 CD B0 03           3271 	call	_bkg
                           3272 ;	main.c 13
                           3273 ;	genLabel
   093C                    3274 00102$:
                           3275 ;	main.c 15
                           3276 ;	genCall
                           3277 ; _saveRegsForCall: sendSetSize: 0 deInUse: 0 bcInUse: 0 deSending: 0
   093C CD D9 04           3278 	call	_sprite_walk
                           3279 ;	main.c 16
                           3280 ;	genCall
                           3281 ; _saveRegsForCall: sendSetSize: 0 deInUse: 0 bcInUse: 0 deSending: 0
   093F CD CD 05           3282 	call	_display_sprites
                           3283 ;	main.c 17
                           3284 ;	genCall
                           3285 ; _saveRegsForCall: sendSetSize: 0 deInUse: 0 bcInUse: 0 deSending: 0
   0942 CD 00 00           3286 	call	_wait_vbl_done
                           3287 ;	genGoto
   0945 C3 3C 09           3288 	jp	00102$
                           3289 ;	genLabel
   0948                    3290 00104$:
                           3291 ;	genEndFunction
                           3292 	
   0948 C9                 3293 	ret
   0949                    3294 ___main_end:
                           3295 	.area _CODE
ASxxxx Assembler V01.75  (GameBoy Z80-like CPU), page 1.

Symbol Table

  0 ___bkg_end                         03E9 R
  0 ___bkg_start                       03B0 R
  0 ___display_sprites_end             0936 R
  0 ___display_sprites_start           05CD R
  0 ___door_collide_end                038D R
  0 ___door_collide_start              032D R
  0 ___enter_room_end                  03B0 R
  0 ___enter_room_start                038D R
  0 ___main_end                        0949 R
  0 ___main_start                      0936 R
  0 ___open_door_end                   0278 R
  0 ___open_door_start                 008E R
  0 ___scroll_doors_end                032D R
  0 ___scroll_doors_start              0278 R
  0 ___setup_doors_end                 008E R
  0 ___setup_doors_start               0000 R
  0 ___setup_sprites_end               04D9 R
  0 ___setup_sprites_start             03E9 R
  0 ___sprite_walk_end                 05CD R
  0 ___sprite_walk_start               04D9 R
    __initrleblock                     **** GX
  0 _bkg                               03B0 GR
  1 _black                             0ADC GR
  1 _castle_town                       0200 GR
    _delay                             **** GX
  0 _display_sprites                   05CD GR
  1 _door                              107C GR
  0 _door_collide                      032D GR
  1 _door_trig                         0834 GR
  1 _down                              1080 GR
  0 _enter_room                        038D GR
    _joypad                            **** GX
  1 _left                              1082 GR
  0 _main                              0936 GR
    _move_sprite                       **** GX
  0 _open_door                         008E GR
  1 _player                            0830 GR
  1 _right                             1083 GR
  1 _room1                             0974 GR
    _scroll_bkg                        **** GX
  0 _scroll_doors                      0278 GR
    _set_bkg_data                      **** GX
    _set_bkg_tiles                     **** GX
    _set_sprite_data                   **** GX
    _set_sprite_tile                   **** GX
  0 _setup_doors                       0000 GR
  0 _setup_sprites                     03E9 GR
  0 _sprite_walk                       04D9 GR
  1 _the_tiles                         07A0 GR
  1 _up                                1081 GR
    _wait_vbl_done                     **** GX
  1 _wizard                            0000 GR

ASxxxx Assembler V01.75  (GameBoy Z80-like CPU), page 2.

Area Table

   0 _CODE                              size  949   flags 0
   1 _DATA                              size 1084   flags 0
   2 _OVERLAY                           size    0   flags 0
   3 _ISEG                              size    0   flags 0
   4 _BSEG                              size    0   flags 0
   5 _XSEG                              size    0   flags 0
   6 _GSINIT                            size  825   flags 0
   7 _GSFINAL                           size    0   flags 0
   8 _HOME                              size    0   flags 0
