                              1 ;--------------------------------------------------------
                              2 ; File Created by SDCC : FreeWare ANSI-C Compiler
                              3 ; Version 2.3.1 Sun Apr 28 14:10:26 2019
                              4 
                              5 ;--------------------------------------------------------
                              6 	.module lcc26930
                              7 	
                              8 ;--------------------------------------------------------
                              9 ; Public variables in this module
                             10 ;--------------------------------------------------------
                             11 	.globl _e_hp
                             12 	.globl _h_hp
                             13 	.globl _a
                             14 	.globl _enemy_y
                             15 	.globl _y
                             16 	.globl _first_fighter
                             17 	.globl _hero_acc
                             18 	.globl _npc_acc
                             19 	.globl _npc_act
                             20 	.globl _seed
                             21 	.globl _enemy_choice
                             22 	.globl _CHOOSING
                             23 	.globl _CHOSEN_ITEM
                             24 	.globl _ITEMS
                             25 	.globl _BATTLE_NUM
                             26 	.globl _ENEMY
                             27 	.globl _BATTLE_WIN
                             28 	.globl _DEAD
                             29 	.globl _FIGHTING
                             30 	.globl _ITEM_CHOICE
                             31 	.globl _RUN_CHOICE
                             32 	.globl _FIGHT_CHOICE
                             33 	.globl _BATTLE_CHOICE
                             34 	.globl _PUNCH_LOC
                             35 	.globl _KING_CLAW
                             36 	.globl _CLAW
                             37 	.globl _SHOOT
                             38 	.globl _CLUB
                             39 	.globl _NET
                             40 	.globl _ITEM
                             41 	.globl _DEFEND
                             42 	.globl _PUNCH
                             43 	.globl _battle_nav
                             44 	.globl _run
                             45 	.globl _back
                             46 	.globl _fight_opt
                             47 	.globl _item_opt
                             48 	.globl _choose_item_toggle
                             49 	.globl _battle_menu
                             50 	.globl _battle_toggle_up
                             51 	.globl _battle_toggle_down
                             52 	.globl _battle_toggle_ctrl
                             53 	.globl _choice_handler
                             54 	.globl _hero_fight
                             55 	.globl _hero_defend_anim
                             56 	.globl _enemy_defend_anim
                             57 	.globl _hero_fight_anim
                             58 	.globl _enemy_fight_anim
                             59 	.globl _clear_screen
                             60 	.globl _sprite_setup
                             61 	.globl _npc_fight
                             62 	.globl _fight_config
                             63 	.globl _damage
                             64 	.globl _lower_hp
                             65 	.globl _enemy_damage
                             66 	.globl _fight
                             67 	.globl _show_fighter_stats
                             68 ;--------------------------------------------------------
                             69 ; special function registers
                             70 ;--------------------------------------------------------
                             71 ;--------------------------------------------------------
                             72 ; special function bits 
                             73 ;--------------------------------------------------------
                             74 ;--------------------------------------------------------
                             75 ; internal ram data
                             76 ;--------------------------------------------------------
                             77 	.area _DATA
   0000                      78 _PUNCH::
   0000                      79 	.ds 1
   0001                      80 _DEFEND::
   0001                      81 	.ds 1
   0002                      82 _ITEM::
   0002                      83 	.ds 1
   0003                      84 _NET::
   0003                      85 	.ds 1
   0004                      86 _CLUB::
   0004                      87 	.ds 1
   0005                      88 _SHOOT::
   0005                      89 	.ds 1
   0006                      90 _CLAW::
   0006                      91 	.ds 1
   0007                      92 _KING_CLAW::
   0007                      93 	.ds 1
   0008                      94 _PUNCH_LOC::
   0008                      95 	.ds 1
   0009                      96 _BATTLE_CHOICE::
   0009                      97 	.ds 1
   000A                      98 _FIGHT_CHOICE::
   000A                      99 	.ds 1
   000B                     100 _RUN_CHOICE::
   000B                     101 	.ds 1
   000C                     102 _ITEM_CHOICE::
   000C                     103 	.ds 1
   000D                     104 _FIGHTING::
   000D                     105 	.ds 1
   000E                     106 _DEAD::
   000E                     107 	.ds 1
   000F                     108 _BATTLE_WIN::
   000F                     109 	.ds 1
   0010                     110 _ENEMY::
   0010                     111 	.ds 1
   0011                     112 _BATTLE_NUM::
   0011                     113 	.ds 1
   0012                     114 _ITEMS::
   0012                     115 	.ds 1
   0013                     116 _CHOSEN_ITEM::
   0013                     117 	.ds 1
   0014                     118 _CHOOSING::
   0014                     119 	.ds 1
   0015                     120 _enemy_choice::
   0015                     121 	.ds 1
   0016                     122 _seed::
   0016                     123 	.ds 2
   0018                     124 _npc_act::
   0018                     125 	.ds 1
   0019                     126 _npc_acc::
   0019                     127 	.ds 1
   001A                     128 _hero_acc::
   001A                     129 	.ds 1
   001B                     130 _first_fighter::
   001B                     131 	.ds 1
   001C                     132 _y::
   001C                     133 	.ds 1
   001D                     134 _enemy_y::
   001D                     135 	.ds 1
   001E                     136 _a::
   001E                     137 	.ds 1
   001F                     138 _h_hp::
   001F                     139 	.ds 8
   0027                     140 _e_hp::
   0027                     141 	.ds 8
                            142 ;--------------------------------------------------------
                            143 ; overlayable items in internal ram 
                            144 ;--------------------------------------------------------
                            145 	.area _OVERLAY
                            146 ;--------------------------------------------------------
                            147 ; indirectly addressable internal ram data
                            148 ;--------------------------------------------------------
                            149 	.area _ISEG
                            150 ;--------------------------------------------------------
                            151 ; bit data
                            152 ;--------------------------------------------------------
                            153 	.area _BSEG
                            154 ;--------------------------------------------------------
                            155 ; external ram data
                            156 ;--------------------------------------------------------
                            157 	.area _XSEG
                            158 ;--------------------------------------------------------
                            159 ; global & static initialisations
                            160 ;--------------------------------------------------------
                            161 	.area _GSINIT
                            162 	.area _GSFINAL
                            163 	.area _GSINIT
                            164 ;	battle/battle.c 27
                            165 ;	genAssign
                            166 ;	AOP_HL for _PUNCH
   0000 21 00 00            167 	ld	hl,#_PUNCH
   0003 36 01               168 	ld	(hl),#0x01
                            169 ;	battle/battle.c 28
                            170 ;	genAssign
                            171 ;	AOP_HL for _DEFEND
   0005 21 01 00            172 	ld	hl,#_DEFEND
   0008 36 02               173 	ld	(hl),#0x02
                            174 ;	battle/battle.c 29
                            175 ;	genAssign
                            176 ;	AOP_HL for _ITEM
   000A 21 02 00            177 	ld	hl,#_ITEM
   000D 36 03               178 	ld	(hl),#0x03
                            179 ;	battle/battle.c 31
                            180 ;	genAssign
                            181 ;	AOP_HL for _NET
   000F 21 03 00            182 	ld	hl,#_NET
   0012 36 02               183 	ld	(hl),#0x02
                            184 ;	battle/battle.c 32
                            185 ;	genAssign
                            186 ;	AOP_HL for _CLUB
   0014 21 04 00            187 	ld	hl,#_CLUB
   0017 36 05               188 	ld	(hl),#0x05
                            189 ;	battle/battle.c 34
                            190 ;	genAssign
                            191 ;	AOP_HL for _SHOOT
   0019 21 05 00            192 	ld	hl,#_SHOOT
   001C 36 0A               193 	ld	(hl),#0x0A
                            194 ;	battle/battle.c 35
                            195 ;	genAssign
                            196 ;	AOP_HL for _CLAW
   001E 21 06 00            197 	ld	hl,#_CLAW
   0021 36 02               198 	ld	(hl),#0x02
                            199 ;	battle/battle.c 36
                            200 ;	genAssign
                            201 ;	AOP_HL for _KING_CLAW
   0023 21 07 00            202 	ld	hl,#_KING_CLAW
   0026 36 03               203 	ld	(hl),#0x03
                            204 ;	battle/battle.c 38
                            205 ;	genAssign
                            206 ;	AOP_HL for _PUNCH_LOC
   0028 21 08 00            207 	ld	hl,#_PUNCH_LOC
   002B 36 20               208 	ld	(hl),#0x20
                            209 ;	battle/battle.c 41
                            210 ;	genAssign
                            211 ;	AOP_HL for _BATTLE_CHOICE
   002D 21 09 00            212 	ld	hl,#_BATTLE_CHOICE
   0030 36 00               213 	ld	(hl),#0x00
                            214 ;	battle/battle.c 42
                            215 ;	genAssign
                            216 ;	AOP_HL for _FIGHT_CHOICE
   0032 21 0A 00            217 	ld	hl,#_FIGHT_CHOICE
   0035 36 01               218 	ld	(hl),#0x01
                            219 ;	battle/battle.c 43
                            220 ;	genAssign
                            221 ;	AOP_HL for _RUN_CHOICE
   0037 21 0B 00            222 	ld	hl,#_RUN_CHOICE
   003A 36 02               223 	ld	(hl),#0x02
                            224 ;	battle/battle.c 44
                            225 ;	genAssign
                            226 ;	AOP_HL for _ITEM_CHOICE
   003C 21 0C 00            227 	ld	hl,#_ITEM_CHOICE
   003F 36 03               228 	ld	(hl),#0x03
                            229 ;	battle/battle.c 45
                            230 ;	genAssign
                            231 ;	AOP_HL for _FIGHTING
   0041 21 0D 00            232 	ld	hl,#_FIGHTING
   0044 36 04               233 	ld	(hl),#0x04
                            234 ;	battle/battle.c 46
                            235 ;	genAssign
                            236 ;	AOP_HL for _DEAD
   0046 21 0E 00            237 	ld	hl,#_DEAD
   0049 36 05               238 	ld	(hl),#0x05
                            239 ;	battle/battle.c 47
                            240 ;	genAssign
                            241 ;	AOP_HL for _BATTLE_WIN
   004B 21 0F 00            242 	ld	hl,#_BATTLE_WIN
   004E 36 06               243 	ld	(hl),#0x06
                            244 ;	battle/battle.c 49
                            245 ;	genAssign
                            246 ;	AOP_HL for _ENEMY
   0050 21 10 00            247 	ld	hl,#_ENEMY
   0053 36 00               248 	ld	(hl),#0x00
                            249 ;	battle/battle.c 50
                            250 ;	genAssign
                            251 ;	AOP_HL for _BATTLE_NUM
   0055 21 11 00            252 	ld	hl,#_BATTLE_NUM
   0058 36 00               253 	ld	(hl),#0x00
                            254 ;	battle/battle.c 52
                            255 ;	genAssign
                            256 ;	AOP_HL for _ITEMS
   005A 21 12 00            257 	ld	hl,#_ITEMS
   005D 36 00               258 	ld	(hl),#0x00
                            259 ;	battle/battle.c 53
                            260 ;	genAssign
                            261 ;	AOP_HL for _CHOSEN_ITEM
   005F 21 13 00            262 	ld	hl,#_CHOSEN_ITEM
   0062 36 00               263 	ld	(hl),#0x00
                            264 ;	battle/battle.c 54
                            265 ;	genAssign
                            266 ;	AOP_HL for _CHOOSING
   0064 21 14 00            267 	ld	hl,#_CHOOSING
   0067 36 00               268 	ld	(hl),#0x00
                            269 ;	battle/battle.c 60
                            270 ;	genAssign
                            271 ;	AOP_HL for _first_fighter
   0069 21 1B 00            272 	ld	hl,#_first_fighter
   006C 36 00               273 	ld	(hl),#0x00
                            274 ;	battle/battle.c 63
                            275 ;	genAssign
                            276 ;	AOP_HL for _y
   006E 21 1C 00            277 	ld	hl,#_y
   0071 36 48               278 	ld	(hl),#0x48
                            279 ;	battle/battle.c 64
                            280 ;	genAssign
                            281 ;	AOP_HL for _enemy_y
   0073 21 1D 00            282 	ld	hl,#_enemy_y
   0076 36 28               283 	ld	(hl),#0x28
                            284 ;	battle/battle.c 66
                            285 ;	genAssign
                            286 ;	AOP_HL for _a
   0078 21 1E 00            287 	ld	hl,#_a
   007B 36 00               288 	ld	(hl),#0x00
                            289 ;--------------------------------------------------------
                            290 ; Home
                            291 ;--------------------------------------------------------
                            292 	.area _HOME
                            293 	.area _CODE
                            294 ;--------------------------------------------------------
                            295 ; code
                            296 ;--------------------------------------------------------
                            297 	.area _CODE
                            298 ;	battle/battle.c 71
                            299 ;	genLabel
                            300 ;	genFunction
                            301 ;	---------------------------------
                            302 ; Function battle_nav
                            303 ; ---------------------------------
   0000                     304 ___battle_nav_start:
   0000                     305 _battle_nav:
                            306 	
                            307 ;	battle/battle.c 73
                            308 ;	genCmpEq
                            309 ;	AOP_HL for _arrow_y
                            310 ; genCmpEq: left 1, right 1, result 0
   0000 21 00 00            311 	ld	hl,#_arrow_y
   0003 7E                  312 	ld	a,(hl)
   0004 FE 20               313 	cp	a,#0x20
   0006 C2 19 00            314 	jp	nz,00102$
   0009 18 03               315 	jr	00116$
   000B                     316 00115$:
   000B C3 19 00            317 	jp	00102$
   000E                     318 00116$:
                            319 ;	battle/battle.c 75
                            320 ;	genAssign
                            321 ;	AOP_HL for _FIGHT_CHOICE
                            322 ;	AOP_HL for _STATE
   000E 21 0A 00            323 	ld	hl,#_FIGHT_CHOICE
   0011 7E                  324 	ld	a,(hl)
   0012 21 00 00            325 	ld	hl,#_STATE
   0015 77                  326 	ld	(hl),a
                            327 ;	battle/battle.c 76
                            328 ;	genCall
                            329 ; _saveRegsForCall: sendSetSize: 0 deInUse: 0 bcInUse: 0 deSending: 0
   0016 CD DD 00            330 	call	_fight_opt
                            331 ;	genLabel
   0019                     332 00102$:
                            333 ;	battle/battle.c 78
                            334 ;	genCmpEq
                            335 ;	AOP_HL for _arrow_y
                            336 ; genCmpEq: left 1, right 1, result 0
   0019 21 00 00            337 	ld	hl,#_arrow_y
   001C 7E                  338 	ld	a,(hl)
   001D FE 30               339 	cp	a,#0x30
   001F C2 37 00            340 	jp	nz,00104$
   0022 18 03               341 	jr	00118$
   0024                     342 00117$:
   0024 C3 37 00            343 	jp	00104$
   0027                     344 00118$:
                            345 ;	battle/battle.c 80
                            346 ;	genAssign
                            347 ;	AOP_HL for _DEFEND
                            348 ;	AOP_HL for _choice
   0027 21 01 00            349 	ld	hl,#_DEFEND
   002A 7E                  350 	ld	a,(hl)
   002B 21 00 00            351 	ld	hl,#_choice
   002E 77                  352 	ld	(hl),a
                            353 ;	battle/battle.c 81
                            354 ;	genAssign
                            355 ;	AOP_HL for _FIGHTING
                            356 ;	AOP_HL for _STATE
   002F 21 0D 00            357 	ld	hl,#_FIGHTING
   0032 7E                  358 	ld	a,(hl)
   0033 21 00 00            359 	ld	hl,#_STATE
   0036 77                  360 	ld	(hl),a
                            361 ;	genLabel
   0037                     362 00104$:
                            363 ;	battle/battle.c 83
                            364 ;	genCmpEq
                            365 ;	AOP_HL for _arrow_y
                            366 ; genCmpEq: left 1, right 1, result 0
   0037 21 00 00            367 	ld	hl,#_arrow_y
   003A 7E                  368 	ld	a,(hl)
   003B FE 40               369 	cp	a,#0x40
   003D C2 50 00            370 	jp	nz,00106$
   0040 18 03               371 	jr	00120$
   0042                     372 00119$:
   0042 C3 50 00            373 	jp	00106$
   0045                     374 00120$:
                            375 ;	battle/battle.c 85
                            376 ;	genAssign
                            377 ;	AOP_HL for _RUN_CHOICE
                            378 ;	AOP_HL for _STATE
   0045 21 0B 00            379 	ld	hl,#_RUN_CHOICE
   0048 7E                  380 	ld	a,(hl)
   0049 21 00 00            381 	ld	hl,#_STATE
   004C 77                  382 	ld	(hl),a
                            383 ;	battle/battle.c 86
                            384 ;	genCall
                            385 ; _saveRegsForCall: sendSetSize: 0 deInUse: 0 bcInUse: 0 deSending: 0
   004D CD 6A 00            386 	call	_run
                            387 ;	genLabel
   0050                     388 00106$:
                            389 ;	battle/battle.c 88
                            390 ;	genCmpEq
                            391 ;	AOP_HL for _arrow_y
                            392 ; genCmpEq: left 1, right 1, result 0
   0050 21 00 00            393 	ld	hl,#_arrow_y
   0053 7E                  394 	ld	a,(hl)
   0054 FE 50               395 	cp	a,#0x50
   0056 C2 69 00            396 	jp	nz,00109$
   0059 18 03               397 	jr	00122$
   005B                     398 00121$:
   005B C3 69 00            399 	jp	00109$
   005E                     400 00122$:
                            401 ;	battle/battle.c 90
                            402 ;	genAssign
                            403 ;	AOP_HL for _ITEM_CHOICE
                            404 ;	AOP_HL for _STATE
   005E 21 0C 00            405 	ld	hl,#_ITEM_CHOICE
   0061 7E                  406 	ld	a,(hl)
   0062 21 00 00            407 	ld	hl,#_STATE
   0065 77                  408 	ld	(hl),a
                            409 ;	battle/battle.c 91
                            410 ;	genCall
                            411 ; _saveRegsForCall: sendSetSize: 0 deInUse: 0 bcInUse: 0 deSending: 0
   0066 CD 3F 01            412 	call	_item_opt
                            413 ;	genLabel
   0069                     414 00109$:
                            415 ;	genEndFunction
                            416 	
   0069 C9                  417 	ret
   006A                     418 ___battle_nav_end:
                            419 ;	battle/battle.c 95
                            420 ;	genLabel
                            421 ;	genFunction
                            422 ;	---------------------------------
                            423 ; Function run
                            424 ; ---------------------------------
   006A                     425 ___run_start:
   006A                     426 _run:
                            427 	
                            428 ;	battle/battle.c 97
                            429 ;	genIpush
                            430 ; _saveRegsForCall: sendSetSize: 0 deInUse: 0 bcInUse: 0 deSending: 0
   006A 3E 00               431 	ld	a,#0x00
   006C F5                  432 	push	af
   006D 33                  433 	inc	sp
                            434 ;	genCall
   006E CD 00 00            435 	call	_sprite_clean
   0071 E8 01               436 	lda	sp,1(sp)
                            437 ;	battle/battle.c 98
                            438 ;	genAssign
                            439 ;	AOP_HL for _LETTER_COUNT
   0073 21 00 00            440 	ld	hl,#_LETTER_COUNT
   0076 36 00               441 	ld	(hl),#0x00
                            442 ;	battle/battle.c 100
                            443 ;	genIpush
                            444 ; _saveRegsForCall: sendSetSize: 0 deInUse: 0 bcInUse: 0 deSending: 0
   0078 21 12 20            445 	ld	hl,#0x2012
   007B E5                  446 	push	hl
                            447 ;	genIpush
   007C 21 AF 00            448 	ld	hl,#__str_0
   007F E5                  449 	push	hl
                            450 ;	genCall
   0080 CD 00 00            451 	call	_battle_print
   0083 E8 04               452 	lda	sp,4(sp)
                            453 ;	battle/battle.c 101
                            454 ;	genIpush
                            455 ; _saveRegsForCall: sendSetSize: 0 deInUse: 0 bcInUse: 0 deSending: 0
   0085 21 12 30            456 	ld	hl,#0x3012
   0088 E5                  457 	push	hl
                            458 ;	genIpush
   0089 21 B3 00            459 	ld	hl,#__str_1
   008C E5                  460 	push	hl
                            461 ;	genCall
   008D CD 00 00            462 	call	_battle_print
   0090 E8 04               463 	lda	sp,4(sp)
                            464 ;	battle/battle.c 102
                            465 ;	genIpush
                            466 ; _saveRegsForCall: sendSetSize: 0 deInUse: 0 bcInUse: 0 deSending: 0
   0092 21 12 40            467 	ld	hl,#0x4012
   0095 E5                  468 	push	hl
                            469 ;	genIpush
   0096 21 B9 00            470 	ld	hl,#__str_2
   0099 E5                  471 	push	hl
                            472 ;	genCall
   009A CD 00 00            473 	call	_battle_print
   009D E8 04               474 	lda	sp,4(sp)
                            475 ;	battle/battle.c 103
                            476 ;	genCall
                            477 ; _saveRegsForCall: sendSetSize: 0 deInUse: 0 bcInUse: 0 deSending: 0
   009F CD A8 17            478 	call	_show_fighter_stats
                            479 ;	battle/battle.c 104
                            480 ;	genIpush
                            481 ; _saveRegsForCall: sendSetSize: 0 deInUse: 0 bcInUse: 0 deSending: 0
   00A2 21 E8 03            482 	ld	hl,#0x03E8
   00A5 E5                  483 	push	hl
                            484 ;	genCall
   00A6 CD 00 00            485 	call	_delay
   00A9 E8 02               486 	lda	sp,2(sp)
                            487 ;	battle/battle.c 105
                            488 ;	genCall
                            489 ; _saveRegsForCall: sendSetSize: 0 deInUse: 0 bcInUse: 0 deSending: 0
   00AB CD C1 00            490 	call	_back
                            491 ;	genLabel
   00AE                     492 00101$:
                            493 ;	genEndFunction
                            494 	
   00AE C9                  495 	ret
   00AF                     496 ___run_end:
   00AF                     497 __str_0:
   00AF 59 4F 55            498 	.ascii "YOU"
   00B2 00                  499 	.db 0x00
   00B3                     500 __str_1:
   00B3 43 41 4E 6B 54      501 	.ascii "CANkT"
   00B8 00                  502 	.db 0x00
   00B9                     503 __str_2:
   00B9 45 53 43 41 50 45   504 	.ascii "ESCAPEl"
        6C
   00C0 00                  505 	.db 0x00
                            506 ;	battle/battle.c 108
                            507 ;	genLabel
                            508 ;	genFunction
                            509 ;	---------------------------------
                            510 ; Function back
                            511 ; ---------------------------------
   00C1                     512 ___back_start:
   00C1                     513 _back:
                            514 	
                            515 ;	battle/battle.c 110
                            516 ;	genCmpLt
                            517 ;	AOP_HL for _STATE
                            518 ;	AOP_HL for _FIGHTING
   00C1 21 00 00            519 	ld	hl,#_STATE
   00C4 7E                  520 	ld	a,(hl)
   00C5 21 0D 00            521 	ld	hl,#_FIGHTING
   00C8 96                  522 	sub	a,(hl)
   00C9 D2 DC 00            523 	jp	nc,00103$
                            524 ;	battle/battle.c 112
                            525 ;	genCall
                            526 ; _saveRegsForCall: sendSetSize: 0 deInUse: 0 bcInUse: 0 deSending: 0
   00CC CD 03 03            527 	call	_battle_menu
                            528 ;	battle/battle.c 113
                            529 ;	genAssign
                            530 ;	AOP_HL for _BATTLE_CHOICE
                            531 ;	AOP_HL for _STATE
   00CF 21 09 00            532 	ld	hl,#_BATTLE_CHOICE
   00D2 7E                  533 	ld	a,(hl)
   00D3 21 00 00            534 	ld	hl,#_STATE
   00D6 77                  535 	ld	(hl),a
                            536 ;	battle/battle.c 114
                            537 ;	genAssign
                            538 ;	AOP_HL for _choice
   00D7 21 00 00            539 	ld	hl,#_choice
   00DA 36 00               540 	ld	(hl),#0x00
                            541 ;	genLabel
   00DC                     542 00103$:
                            543 ;	genEndFunction
                            544 	
   00DC C9                  545 	ret
   00DD                     546 ___back_end:
                            547 ;	battle/battle.c 118
                            548 ;	genLabel
                            549 ;	genFunction
                            550 ;	---------------------------------
                            551 ; Function fight_opt
                            552 ; ---------------------------------
   00DD                     553 ___fight_opt_start:
   00DD                     554 _fight_opt:
                            555 	
                            556 ;	battle/battle.c 120
                            557 ;	genIpush
                            558 ; _saveRegsForCall: sendSetSize: 0 deInUse: 0 bcInUse: 0 deSending: 0
   00DD 3E 00               559 	ld	a,#0x00
   00DF F5                  560 	push	af
   00E0 33                  561 	inc	sp
                            562 ;	genCall
   00E1 CD 00 00            563 	call	_sprite_clean
   00E4 E8 01               564 	lda	sp,1(sp)
                            565 ;	battle/battle.c 121
                            566 ;	genAssign
                            567 ;	AOP_HL for _LETTER_COUNT
   00E6 21 00 00            568 	ld	hl,#_LETTER_COUNT
   00E9 36 00               569 	ld	(hl),#0x00
                            570 ;	battle/battle.c 122
                            571 ;	genCall
                            572 ; _saveRegsForCall: sendSetSize: 0 deInUse: 0 bcInUse: 0 deSending: 0
   00EB CD 00 00            573 	call	_battle_bkg_clean
                            574 ;	battle/battle.c 123
                            575 ;	genIpush
                            576 ; _saveRegsForCall: sendSetSize: 0 deInUse: 0 bcInUse: 0 deSending: 0
   00EE 21 12 20            577 	ld	hl,#0x2012
   00F1 E5                  578 	push	hl
                            579 ;	genIpush
   00F2 21 26 01            580 	ld	hl,#__str_3
   00F5 E5                  581 	push	hl
                            582 ;	genCall
   00F6 CD 00 00            583 	call	_battle_print
   00F9 E8 04               584 	lda	sp,4(sp)
                            585 ;	battle/battle.c 124
                            586 ;	genIpush
                            587 ; _saveRegsForCall: sendSetSize: 0 deInUse: 0 bcInUse: 0 deSending: 0
   00FB 21 12 20            588 	ld	hl,#0x2012
   00FE E5                  589 	push	hl
                            590 ;	genIpush
   00FF 21 28 01            591 	ld	hl,#__str_4
   0102 E5                  592 	push	hl
                            593 ;	genCall
   0103 CD 00 00            594 	call	_battle_print
   0106 E8 04               595 	lda	sp,4(sp)
                            596 ;	battle/battle.c 125
                            597 ;	genIpush
                            598 ; _saveRegsForCall: sendSetSize: 0 deInUse: 0 bcInUse: 0 deSending: 0
   0108 21 10 82            599 	ld	hl,#0x8210
   010B E5                  600 	push	hl
                            601 ;	genIpush
   010C 21 2F 01            602 	ld	hl,#__str_5
   010F E5                  603 	push	hl
                            604 ;	genCall
   0110 CD 00 00            605 	call	_battle_print
   0113 E8 04               606 	lda	sp,4(sp)
                            607 ;	battle/battle.c 126
                            608 ;	genIpush
                            609 ; _saveRegsForCall: sendSetSize: 0 deInUse: 0 bcInUse: 0 deSending: 0
   0115 21 10 8E            610 	ld	hl,#0x8E10
   0118 E5                  611 	push	hl
                            612 ;	genIpush
   0119 21 38 01            613 	ld	hl,#__str_6
   011C E5                  614 	push	hl
                            615 ;	genCall
   011D CD 00 00            616 	call	_battle_print
   0120 E8 04               617 	lda	sp,4(sp)
                            618 ;	battle/battle.c 127
                            619 ;	genCall
                            620 ; _saveRegsForCall: sendSetSize: 0 deInUse: 0 bcInUse: 0 deSending: 0
   0122 CD A8 17            621 	call	_show_fighter_stats
                            622 ;	genLabel
   0125                     623 00101$:
                            624 ;	genEndFunction
                            625 	
   0125 C9                  626 	ret
   0126                     627 ___fight_opt_end:
   0126                     628 __str_3:
   0126 6A                  629 	.ascii "j"
   0127 00                  630 	.db 0x00
   0128                     631 __str_4:
   0128 69 50 55 4E 43 48   632 	.ascii "iPUNCH"
   012E 00                  633 	.db 0x00
   012F                     634 __str_5:
   012F 41 69 53 45 4C 45   635 	.ascii "AiSELECT"
        43 54
   0137 00                  636 	.db 0x00
   0138                     637 __str_6:
   0138 42 69 42 41 43 4B   638 	.ascii "BiBACK"
   013E 00                  639 	.db 0x00
                            640 ;	battle/battle.c 130
                            641 ;	genLabel
                            642 ;	genFunction
                            643 ;	---------------------------------
                            644 ; Function item_opt
                            645 ; ---------------------------------
   013F                     646 ___item_opt_start:
   013F                     647 _item_opt:
                            648 	
                            649 ;	battle/battle.c 132
                            650 ;	genIpush
                            651 ; _saveRegsForCall: sendSetSize: 0 deInUse: 0 bcInUse: 0 deSending: 0
   013F 3E 00               652 	ld	a,#0x00
   0141 F5                  653 	push	af
   0142 33                  654 	inc	sp
                            655 ;	genCall
   0143 CD 00 00            656 	call	_sprite_clean
   0146 E8 01               657 	lda	sp,1(sp)
                            658 ;	battle/battle.c 133
                            659 ;	genAssign
                            660 ;	AOP_HL for _LETTER_COUNT
   0148 21 00 00            661 	ld	hl,#_LETTER_COUNT
   014B 36 00               662 	ld	(hl),#0x00
                            663 ;	battle/battle.c 134
                            664 ;	genCall
                            665 ; _saveRegsForCall: sendSetSize: 0 deInUse: 0 bcInUse: 0 deSending: 0
   014D CD 00 00            666 	call	_battle_bkg_clean
                            667 ;	battle/battle.c 135
                            668 ;	genCmpEq
                            669 ;	AOP_HL for _ITEMS
                            670 ; genCmpEq: left 1, right 1, result 0
   0150 21 12 00            671 	ld	hl,#_ITEMS
   0153 7E                  672 	ld	a,(hl)
   0154 B7                  673 	or	a,a
   0155 C2 84 01            674 	jp	nz,00102$
   0158 18 03               675 	jr	00115$
   015A                     676 00114$:
   015A C3 84 01            677 	jp	00102$
   015D                     678 00115$:
                            679 ;	battle/battle.c 137
                            680 ;	genIpush
                            681 ; _saveRegsForCall: sendSetSize: 0 deInUse: 0 bcInUse: 0 deSending: 0
   015D 21 12 20            682 	ld	hl,#0x2012
   0160 E5                  683 	push	hl
                            684 ;	genIpush
   0161 21 F9 01            685 	ld	hl,#__str_7
   0164 E5                  686 	push	hl
                            687 ;	genCall
   0165 CD 00 00            688 	call	_battle_print
   0168 E8 04               689 	lda	sp,4(sp)
                            690 ;	battle/battle.c 138
                            691 ;	genIpush
                            692 ; _saveRegsForCall: sendSetSize: 0 deInUse: 0 bcInUse: 0 deSending: 0
   016A 21 10 82            693 	ld	hl,#0x8210
   016D E5                  694 	push	hl
                            695 ;	genIpush
   016E 21 00 02            696 	ld	hl,#__str_8
   0171 E5                  697 	push	hl
                            698 ;	genCall
   0172 CD 00 00            699 	call	_battle_print
   0175 E8 04               700 	lda	sp,4(sp)
                            701 ;	battle/battle.c 139
                            702 ;	genIpush
                            703 ; _saveRegsForCall: sendSetSize: 0 deInUse: 0 bcInUse: 0 deSending: 0
   0177 21 10 8E            704 	ld	hl,#0x8E10
   017A E5                  705 	push	hl
                            706 ;	genIpush
   017B 21 09 02            707 	ld	hl,#__str_9
   017E E5                  708 	push	hl
                            709 ;	genCall
   017F CD 00 00            710 	call	_battle_print
   0182 E8 04               711 	lda	sp,4(sp)
                            712 ;	genLabel
   0184                     713 00102$:
                            714 ;	battle/battle.c 141
                            715 ;	genCmpEq
                            716 ;	AOP_HL for _ITEMS
                            717 ; genCmpEq: left 1, right 1, result 0
   0184 21 12 00            718 	ld	hl,#_ITEMS
   0187 7E                  719 	ld	a,(hl)
   0188 FE 02               720 	cp	a,#0x02
   018A C2 F8 01            721 	jp	nz,00108$
   018D 18 03               722 	jr	00117$
   018F                     723 00116$:
   018F C3 F8 01            724 	jp	00108$
   0192                     725 00117$:
                            726 ;	battle/battle.c 143
                            727 ;	genAssign
                            728 ;	AOP_HL for _CHOOSING
   0192 21 14 00            729 	ld	hl,#_CHOOSING
   0195 36 01               730 	ld	(hl),#0x01
                            731 ;	battle/battle.c 144
                            732 ;	genAssign
                            733 ;	AOP_HL for _arrow_x
   0197 21 00 00            734 	ld	hl,#_arrow_x
   019A 36 18               735 	ld	(hl),#0x18
                            736 ;	battle/battle.c 145
                            737 ;	genAssign
                            738 ;	AOP_HL for _arrow_y
   019C 21 00 00            739 	ld	hl,#_arrow_y
   019F 36 18               740 	ld	(hl),#0x18
                            741 ;	battle/battle.c 146
                            742 ;	genIpush
                            743 ; _saveRegsForCall: sendSetSize: 0 deInUse: 0 bcInUse: 0 deSending: 0
   01A1 21 18 20            744 	ld	hl,#0x2018
   01A4 E5                  745 	push	hl
                            746 ;	genIpush
   01A5 21 10 02            747 	ld	hl,#__str_10
   01A8 E5                  748 	push	hl
                            749 ;	genCall
   01A9 CD 00 00            750 	call	_battle_print
   01AC E8 04               751 	lda	sp,4(sp)
                            752 ;	battle/battle.c 147
                            753 ;	genIpush
                            754 ; _saveRegsForCall: sendSetSize: 0 deInUse: 0 bcInUse: 0 deSending: 0
   01AE 21 18 20            755 	ld	hl,#0x2018
   01B1 E5                  756 	push	hl
                            757 ;	genIpush
   01B2 21 12 02            758 	ld	hl,#__str_11
   01B5 E5                  759 	push	hl
                            760 ;	genCall
   01B6 CD 00 00            761 	call	_battle_print
   01B9 E8 04               762 	lda	sp,4(sp)
                            763 ;	battle/battle.c 148
                            764 ;	genIpush
                            765 ; _saveRegsForCall: sendSetSize: 0 deInUse: 0 bcInUse: 0 deSending: 0
   01BB 21 18 30            766 	ld	hl,#0x3018
   01BE E5                  767 	push	hl
                            768 ;	genIpush
   01BF 21 18 02            769 	ld	hl,#__str_12
   01C2 E5                  770 	push	hl
                            771 ;	genCall
   01C3 CD 00 00            772 	call	_battle_print
   01C6 E8 04               773 	lda	sp,4(sp)
                            774 ;	battle/battle.c 149
                            775 ;	genIpush
                            776 ; _saveRegsForCall: sendSetSize: 0 deInUse: 0 bcInUse: 0 deSending: 0
   01C8 21 10 82            777 	ld	hl,#0x8210
   01CB E5                  778 	push	hl
                            779 ;	genIpush
   01CC 21 1D 02            780 	ld	hl,#__str_13
   01CF E5                  781 	push	hl
                            782 ;	genCall
   01D0 CD 00 00            783 	call	_battle_print
   01D3 E8 04               784 	lda	sp,4(sp)
                            785 ;	battle/battle.c 150
                            786 ;	genIpush
                            787 ; _saveRegsForCall: sendSetSize: 0 deInUse: 0 bcInUse: 0 deSending: 0
   01D5 21 10 8E            788 	ld	hl,#0x8E10
   01D8 E5                  789 	push	hl
                            790 ;	genIpush
   01D9 21 26 02            791 	ld	hl,#__str_14
   01DC E5                  792 	push	hl
                            793 ;	genCall
   01DD CD 00 00            794 	call	_battle_print
   01E0 E8 04               795 	lda	sp,4(sp)
                            796 ;	battle/battle.c 151
                            797 ;	genCall
                            798 ; _saveRegsForCall: sendSetSize: 0 deInUse: 0 bcInUse: 0 deSending: 0
   01E2 CD A8 17            799 	call	_show_fighter_stats
                            800 ;	battle/battle.c 152
                            801 ;	genAssign
                            802 ;	AOP_HL for _arrow_y
   01E5 21 00 00            803 	ld	hl,#_arrow_y
   01E8 36 20               804 	ld	(hl),#0x20
                            805 ;	battle/battle.c 153
                            806 ;	genLabel
   01EA                     807 00103$:
                            808 ;	genIfx
                            809 ;	AOP_HL for _CHOOSING
   01EA AF                  810 	xor	a,a
   01EB 21 14 00            811 	ld	hl,#_CHOOSING
   01EE B6                  812 	or	a,(hl)
   01EF CA F8 01            813 	jp	z,00108$
                            814 ;	battle/battle.c 154
                            815 ;	genCall
                            816 ; _saveRegsForCall: sendSetSize: 0 deInUse: 0 bcInUse: 0 deSending: 0
   01F2 CD 2D 02            817 	call	_choose_item_toggle
                            818 ;	genGoto
   01F5 C3 EA 01            819 	jp	00103$
                            820 ;	genLabel
   01F8                     821 00108$:
                            822 ;	genEndFunction
                            823 	
   01F8 C9                  824 	ret
   01F9                     825 ___item_opt_end:
   01F9                     826 __str_7:
   01F9 69 45 4D 50 54 59   827 	.ascii "iEMPTY"
   01FF 00                  828 	.db 0x00
   0200                     829 __str_8:
   0200 41 69 53 45 4C 45   830 	.ascii "AiSELECT"
        43 54
   0208 00                  831 	.db 0x00
   0209                     832 __str_9:
   0209 42 69 42 41 43 4B   833 	.ascii "BiBACK"
   020F 00                  834 	.db 0x00
   0210                     835 __str_10:
   0210 6A                  836 	.ascii "j"
   0211 00                  837 	.db 0x00
   0212                     838 __str_11:
   0212 69 43 4C 55 42      839 	.ascii "iCLUB"
   0217 00                  840 	.db 0x00
   0218                     841 __str_12:
   0218 69 4E 45 54         842 	.ascii "iNET"
   021C 00                  843 	.db 0x00
   021D                     844 __str_13:
   021D 41 69 53 45 4C 45   845 	.ascii "AiSELECT"
        43 54
   0225 00                  846 	.db 0x00
   0226                     847 __str_14:
   0226 42 69 42 41 43 4B   848 	.ascii "BiBACK"
   022C 00                  849 	.db 0x00
                            850 ;	battle/battle.c 158
                            851 ;	genLabel
                            852 ;	genFunction
                            853 ;	---------------------------------
                            854 ; Function choose_item_toggle
                            855 ; ---------------------------------
   022D                     856 ___choose_item_toggle_start:
   022D                     857 _choose_item_toggle:
                            858 	
                            859 ;	battle/battle.c 160
                            860 ;	genCall
                            861 ; _saveRegsForCall: sendSetSize: 0 deInUse: 0 bcInUse: 0 deSending: 0
   022D CD 00 00            862 	call	_joypad
   0230 4B                  863 	ld	c,e
                            864 ;	genAnd
   0231 79                  865 	ld	a,c
   0232 E6 04               866 	and	a,#0x04
   0234 20 03               867 	jr	nz,00127$
   0236 C3 67 02            868 	jp	00104$
   0239                     869 00127$:
                            870 ;	battle/battle.c 162
                            871 ;	genCmpGt
                            872 ;	AOP_HL for _arrow_y
   0239 3E 20               873 	ld	a,#0x20
   023B 21 00 00            874 	ld	hl,#_arrow_y
   023E 96                  875 	sub	a,(hl)
   023F DA 44 02            876 	jp	c,00102$
                            877 ;	battle/battle.c 163
                            878 ;	genAssign
                            879 ;	AOP_HL for _arrow_y
   0242 36 40               880 	ld	(hl),#0x40
                            881 ;	genLabel
   0244                     882 00102$:
                            883 ;	battle/battle.c 164
                            884 ;	genIpush
                            885 ; _saveRegsForCall: sendSetSize: 0 deInUse: 0 bcInUse: 0 deSending: 0
   0244 21 64 00            886 	ld	hl,#0x0064
   0247 E5                  887 	push	hl
                            888 ;	genCall
   0248 CD 00 00            889 	call	_delay
   024B E8 02               890 	lda	sp,2(sp)
                            891 ;	battle/battle.c 165
                            892 ;	genMinus
                            893 ;	AOP_HL for _arrow_y
   024D 21 00 00            894 	ld	hl,#_arrow_y
   0250 7E                  895 	ld	a,(hl)
   0251 C6 F0               896 	add	a,#0xF0
   0253 4F                  897 	ld	c,a
                            898 ;	genAssign
                            899 ;	AOP_HL for _arrow_y
   0254 71                  900 	ld	(hl),c
                            901 ;	genIpush
                            902 ; _saveRegsForCall: sendSetSize: 0 deInUse: 0 bcInUse: 0 deSending: 0
   0255 79                  903 	ld	a,c
   0256 F5                  904 	push	af
   0257 33                  905 	inc	sp
                            906 ;	genIpush
                            907 ;	AOP_HL for _arrow_x
   0258 21 00 00            908 	ld	hl,#_arrow_x
   025B 7E                  909 	ld	a,(hl)
   025C F5                  910 	push	af
   025D 33                  911 	inc	sp
                            912 ;	genIpush
   025E 3E 00               913 	ld	a,#0x00
   0260 F5                  914 	push	af
   0261 33                  915 	inc	sp
                            916 ;	genCall
   0262 CD 00 00            917 	call	_move_sprite
   0265 E8 03               918 	lda	sp,3(sp)
                            919 ;	genLabel
   0267                     920 00104$:
                            921 ;	battle/battle.c 167
                            922 ;	genCall
                            923 ; _saveRegsForCall: sendSetSize: 0 deInUse: 0 bcInUse: 0 deSending: 0
   0267 CD 00 00            924 	call	_joypad
   026A 4B                  925 	ld	c,e
                            926 ;	genAnd
   026B 79                  927 	ld	a,c
   026C E6 08               928 	and	a,#0x08
   026E 20 03               929 	jr	nz,00128$
   0270 C3 A1 02            930 	jp	00108$
   0273                     931 00128$:
                            932 ;	battle/battle.c 169
                            933 ;	genCmpLt
                            934 ;	AOP_HL for _arrow_y
   0273 21 00 00            935 	ld	hl,#_arrow_y
   0276 7E                  936 	ld	a,(hl)
   0277 FE 30               937 	cp	#0x30
   0279 DA 7E 02            938 	jp	c,00106$
                            939 ;	battle/battle.c 170
                            940 ;	genAssign
                            941 ;	AOP_HL for _arrow_y
   027C 36 10               942 	ld	(hl),#0x10
                            943 ;	genLabel
   027E                     944 00106$:
                            945 ;	battle/battle.c 171
                            946 ;	genIpush
                            947 ; _saveRegsForCall: sendSetSize: 0 deInUse: 0 bcInUse: 0 deSending: 0
   027E 21 64 00            948 	ld	hl,#0x0064
   0281 E5                  949 	push	hl
                            950 ;	genCall
   0282 CD 00 00            951 	call	_delay
   0285 E8 02               952 	lda	sp,2(sp)
                            953 ;	battle/battle.c 172
                            954 ;	genPlus
                            955 ;	AOP_HL for _arrow_y
                            956 ;	genPlusIncr
                            957 ;	Can't optimise plus by inc, falling back to the normal way
   0287 21 00 00            958 	ld	hl,#_arrow_y
   028A 7E                  959 	ld	a,(hl)
   028B C6 10               960 	add	a,#0x10
   028D 4F                  961 	ld	c,a
                            962 ;	genAssign
                            963 ;	AOP_HL for _arrow_y
   028E 71                  964 	ld	(hl),c
                            965 ;	genIpush
                            966 ; _saveRegsForCall: sendSetSize: 0 deInUse: 0 bcInUse: 0 deSending: 0
   028F 79                  967 	ld	a,c
   0290 F5                  968 	push	af
   0291 33                  969 	inc	sp
                            970 ;	genIpush
                            971 ;	AOP_HL for _arrow_x
   0292 21 00 00            972 	ld	hl,#_arrow_x
   0295 7E                  973 	ld	a,(hl)
   0296 F5                  974 	push	af
   0297 33                  975 	inc	sp
                            976 ;	genIpush
   0298 3E 00               977 	ld	a,#0x00
   029A F5                  978 	push	af
   029B 33                  979 	inc	sp
                            980 ;	genCall
   029C CD 00 00            981 	call	_move_sprite
   029F E8 03               982 	lda	sp,3(sp)
                            983 ;	genLabel
   02A1                     984 00108$:
                            985 ;	battle/battle.c 174
                            986 ;	genCall
                            987 ; _saveRegsForCall: sendSetSize: 0 deInUse: 0 bcInUse: 0 deSending: 0
   02A1 CD 00 00            988 	call	_joypad
   02A4 4B                  989 	ld	c,e
                            990 ;	genAnd
   02A5 79                  991 	ld	a,c
   02A6 E6 10               992 	and	a,#0x10
   02A8 20 03               993 	jr	nz,00129$
   02AA C3 EE 02            994 	jp	00114$
   02AD                     995 00129$:
                            996 ;	battle/battle.c 176
                            997 ;	genCmpEq
                            998 ;	AOP_HL for _arrow_y
                            999 ; genCmpEq: left 1, right 1, result 0
   02AD 21 00 00           1000 	ld	hl,#_arrow_y
   02B0 7E                 1001 	ld	a,(hl)
   02B1 FE 20              1002 	cp	a,#0x20
   02B3 C2 CB 02           1003 	jp	nz,00110$
   02B6 18 03              1004 	jr	00131$
   02B8                    1005 00130$:
   02B8 C3 CB 02           1006 	jp	00110$
   02BB                    1007 00131$:
                           1008 ;	battle/battle.c 178
                           1009 ;	genAssign
                           1010 ;	AOP_HL for _CLUB
                           1011 ;	AOP_HL for _CHOSEN_ITEM
   02BB 21 04 00           1012 	ld	hl,#_CLUB
   02BE 7E                 1013 	ld	a,(hl)
   02BF 21 13 00           1014 	ld	hl,#_CHOSEN_ITEM
   02C2 77                 1015 	ld	(hl),a
                           1016 ;	battle/battle.c 179
                           1017 ;	genAssign
                           1018 ;	AOP_HL for _FIGHTING
                           1019 ;	AOP_HL for _STATE
   02C3 21 0D 00           1020 	ld	hl,#_FIGHTING
   02C6 7E                 1021 	ld	a,(hl)
   02C7 21 00 00           1022 	ld	hl,#_STATE
   02CA 77                 1023 	ld	(hl),a
                           1024 ;	genLabel
   02CB                    1025 00110$:
                           1026 ;	battle/battle.c 181
                           1027 ;	genCmpEq
                           1028 ;	AOP_HL for _arrow_y
                           1029 ; genCmpEq: left 1, right 1, result 0
   02CB 21 00 00           1030 	ld	hl,#_arrow_y
   02CE 7E                 1031 	ld	a,(hl)
   02CF FE 30              1032 	cp	a,#0x30
   02D1 C2 E9 02           1033 	jp	nz,00112$
   02D4 18 03              1034 	jr	00133$
   02D6                    1035 00132$:
   02D6 C3 E9 02           1036 	jp	00112$
   02D9                    1037 00133$:
                           1038 ;	battle/battle.c 183
                           1039 ;	genAssign
                           1040 ;	AOP_HL for _NET
                           1041 ;	AOP_HL for _CHOSEN_ITEM
   02D9 21 03 00           1042 	ld	hl,#_NET
   02DC 7E                 1043 	ld	a,(hl)
   02DD 21 13 00           1044 	ld	hl,#_CHOSEN_ITEM
   02E0 77                 1045 	ld	(hl),a
                           1046 ;	battle/battle.c 184
                           1047 ;	genAssign
                           1048 ;	AOP_HL for _FIGHTING
                           1049 ;	AOP_HL for _STATE
   02E1 21 0D 00           1050 	ld	hl,#_FIGHTING
   02E4 7E                 1051 	ld	a,(hl)
   02E5 21 00 00           1052 	ld	hl,#_STATE
   02E8 77                 1053 	ld	(hl),a
                           1054 ;	genLabel
   02E9                    1055 00112$:
                           1056 ;	battle/battle.c 186
                           1057 ;	genAssign
                           1058 ;	AOP_HL for _CHOOSING
   02E9 21 14 00           1059 	ld	hl,#_CHOOSING
   02EC 36 00              1060 	ld	(hl),#0x00
                           1061 ;	genLabel
   02EE                    1062 00114$:
                           1063 ;	battle/battle.c 188
                           1064 ;	genCall
                           1065 ; _saveRegsForCall: sendSetSize: 0 deInUse: 0 bcInUse: 0 deSending: 0
   02EE CD 00 00           1066 	call	_joypad
   02F1 4B                 1067 	ld	c,e
                           1068 ;	genAnd
   02F2 79                 1069 	ld	a,c
   02F3 E6 20              1070 	and	a,#0x20
   02F5 20 03              1071 	jr	nz,00134$
   02F7 C3 02 03           1072 	jp	00117$
   02FA                    1073 00134$:
                           1074 ;	battle/battle.c 190
                           1075 ;	genAssign
                           1076 ;	AOP_HL for _CHOOSING
   02FA 21 14 00           1077 	ld	hl,#_CHOOSING
   02FD 36 00              1078 	ld	(hl),#0x00
                           1079 ;	battle/battle.c 191
                           1080 ;	genCall
                           1081 ; _saveRegsForCall: sendSetSize: 0 deInUse: 0 bcInUse: 0 deSending: 0
   02FF CD C1 00           1082 	call	_back
                           1083 ;	genLabel
   0302                    1084 00117$:
                           1085 ;	genEndFunction
                           1086 	
   0302 C9                 1087 	ret
   0303                    1088 ___choose_item_toggle_end:
                           1089 ;	battle/battle.c 195
                           1090 ;	genLabel
                           1091 ;	genFunction
                           1092 ;	---------------------------------
                           1093 ; Function battle_menu
                           1094 ; ---------------------------------
   0303                    1095 ___battle_menu_start:
   0303                    1096 _battle_menu:
                           1097 	
                           1098 ;	battle/battle.c 198
                           1099 ;	genIpush
                           1100 ; _saveRegsForCall: sendSetSize: 0 deInUse: 0 bcInUse: 0 deSending: 0
   0303 3E 00              1101 	ld	a,#0x00
   0305 F5                 1102 	push	af
   0306 33                 1103 	inc	sp
                           1104 ;	genCall
   0307 CD 00 00           1105 	call	_sprite_clean
   030A E8 01              1106 	lda	sp,1(sp)
                           1107 ;	battle/battle.c 199
                           1108 ;	genAssign
                           1109 ;	AOP_HL for _LETTER_COUNT
   030C 21 00 00           1110 	ld	hl,#_LETTER_COUNT
   030F 36 00              1111 	ld	(hl),#0x00
                           1112 ;	battle/battle.c 201
                           1113 ;	genAssign
                           1114 ;	AOP_HL for _arrow_x
   0311 21 00 00           1115 	ld	hl,#_arrow_x
   0314 36 14              1116 	ld	(hl),#0x14
                           1117 ;	battle/battle.c 202
                           1118 ;	genAssign
                           1119 ;	AOP_HL for _arrow_y
   0316 21 00 00           1120 	ld	hl,#_arrow_y
   0319 36 20              1121 	ld	(hl),#0x20
                           1122 ;	battle/battle.c 204
                           1123 ;	genIpush
                           1124 ; _saveRegsForCall: sendSetSize: 0 deInUse: 0 bcInUse: 0 deSending: 0
   031B 21 00 00           1125 	ld	hl,#_chain_border_tiles
   031E E5                 1126 	push	hl
                           1127 ;	genIpush
   031F 21 00 0A           1128 	ld	hl,#0x0A00
   0322 E5                 1129 	push	hl
                           1130 ;	genCall
   0323 CD 00 00           1131 	call	_set_bkg_data
   0326 E8 04              1132 	lda	sp,4(sp)
                           1133 ;	battle/battle.c 205
                           1134 ;	genIpush
                           1135 ; _saveRegsForCall: sendSetSize: 0 deInUse: 0 bcInUse: 0 deSending: 0
   0328 21 00 00           1136 	ld	hl,#_small_chain_border
   032B E5                 1137 	push	hl
                           1138 ;	genIpush
   032C 21 14 12           1139 	ld	hl,#0x1214
   032F E5                 1140 	push	hl
                           1141 ;	genIpush
   0330 21 00 00           1142 	ld	hl,#0x0000
   0333 E5                 1143 	push	hl
                           1144 ;	genCall
   0334 CD 00 00           1145 	call	_set_bkg_tiles
   0337 E8 06              1146 	lda	sp,6(sp)
                           1147 ;	battle/battle.c 207
                           1148 ;	genCall
                           1149 ; _saveRegsForCall: sendSetSize: 0 deInUse: 0 bcInUse: 0 deSending: 0
   0339 CD 00 00           1150 	call	_hide_sprites
                           1151 ;	battle/battle.c 209
                           1152 ;	genIpush
                           1153 ; _saveRegsForCall: sendSetSize: 0 deInUse: 0 bcInUse: 0 deSending: 0
                           1154 ;	AOP_HL for _arrow_y
   033C 21 00 00           1155 	ld	hl,#_arrow_y
   033F 7E                 1156 	ld	a,(hl)
   0340 F5                 1157 	push	af
   0341 33                 1158 	inc	sp
                           1159 ;	genIpush
                           1160 ;	AOP_HL for _arrow_x
   0342 21 00 00           1161 	ld	hl,#_arrow_x
   0345 7E                 1162 	ld	a,(hl)
   0346 F5                 1163 	push	af
   0347 33                 1164 	inc	sp
                           1165 ;	genIpush
   0348 21 89 03           1166 	ld	hl,#__str_15
   034B E5                 1167 	push	hl
                           1168 ;	genCall
   034C CD 00 00           1169 	call	_battle_print
   034F E8 04              1170 	lda	sp,4(sp)
                           1171 ;	battle/battle.c 210
                           1172 ;	genIpush
                           1173 ; _saveRegsForCall: sendSetSize: 0 deInUse: 0 bcInUse: 0 deSending: 0
   0351 21 12 20           1174 	ld	hl,#0x2012
   0354 E5                 1175 	push	hl
                           1176 ;	genIpush
   0355 21 8B 03           1177 	ld	hl,#__str_16
   0358 E5                 1178 	push	hl
                           1179 ;	genCall
   0359 CD 00 00           1180 	call	_battle_print
   035C E8 04              1181 	lda	sp,4(sp)
                           1182 ;	battle/battle.c 211
                           1183 ;	genIpush
                           1184 ; _saveRegsForCall: sendSetSize: 0 deInUse: 0 bcInUse: 0 deSending: 0
   035E 21 12 30           1185 	ld	hl,#0x3012
   0361 E5                 1186 	push	hl
                           1187 ;	genIpush
   0362 21 92 03           1188 	ld	hl,#__str_17
   0365 E5                 1189 	push	hl
                           1190 ;	genCall
   0366 CD 00 00           1191 	call	_battle_print
   0369 E8 04              1192 	lda	sp,4(sp)
                           1193 ;	battle/battle.c 212
                           1194 ;	genIpush
                           1195 ; _saveRegsForCall: sendSetSize: 0 deInUse: 0 bcInUse: 0 deSending: 0
   036B 21 12 40           1196 	ld	hl,#0x4012
   036E E5                 1197 	push	hl
                           1198 ;	genIpush
   036F 21 9A 03           1199 	ld	hl,#__str_18
   0372 E5                 1200 	push	hl
                           1201 ;	genCall
   0373 CD 00 00           1202 	call	_battle_print
   0376 E8 04              1203 	lda	sp,4(sp)
                           1204 ;	battle/battle.c 213
                           1205 ;	genIpush
                           1206 ; _saveRegsForCall: sendSetSize: 0 deInUse: 0 bcInUse: 0 deSending: 0
   0378 21 12 50           1207 	ld	hl,#0x5012
   037B E5                 1208 	push	hl
                           1209 ;	genIpush
   037C 21 9F 03           1210 	ld	hl,#__str_19
   037F E5                 1211 	push	hl
                           1212 ;	genCall
   0380 CD 00 00           1213 	call	_battle_print
   0383 E8 04              1214 	lda	sp,4(sp)
                           1215 ;	battle/battle.c 214
                           1216 ;	genCall
                           1217 ; _saveRegsForCall: sendSetSize: 0 deInUse: 0 bcInUse: 0 deSending: 0
   0385 CD A8 17           1218 	call	_show_fighter_stats
                           1219 ;	genLabel
   0388                    1220 00101$:
                           1221 ;	genEndFunction
                           1222 	
   0388 C9                 1223 	ret
   0389                    1224 ___battle_menu_end:
   0389                    1225 __str_15:
   0389 6A                 1226 	.ascii "j"
   038A 00                 1227 	.db 0x00
   038B                    1228 __str_16:
   038B 69 46 49 47 48 54  1229 	.ascii "iFIGHT"
   0391 00                 1230 	.db 0x00
   0392                    1231 __str_17:
   0392 69 44 45 46 45 4E  1232 	.ascii "iDEFEND"
        44
   0399 00                 1233 	.db 0x00
   039A                    1234 __str_18:
   039A 69 52 55 4E        1235 	.ascii "iRUN"
   039E 00                 1236 	.db 0x00
   039F                    1237 __str_19:
   039F 69 49 54 45 4D     1238 	.ascii "iITEM"
   03A4 00                 1239 	.db 0x00
                           1240 ;	battle/battle.c 217
                           1241 ;	genLabel
                           1242 ;	genFunction
                           1243 ;	---------------------------------
                           1244 ; Function battle_toggle_up
                           1245 ; ---------------------------------
   03A5                    1246 ___battle_toggle_up_start:
   03A5                    1247 _battle_toggle_up:
                           1248 	
                           1249 ;	battle/battle.c 220
                           1250 ;	genCmpEq
                           1251 ;	AOP_HL for _arrow_y
                           1252 ; genCmpEq: left 1, right 1, result 0
   03A5 21 00 00           1253 	ld	hl,#_arrow_y
   03A8 7E                 1254 	ld	a,(hl)
   03A9 FE 20              1255 	cp	a,#0x20
   03AB C2 E7 03           1256 	jp	nz,00102$
   03AE 18 03              1257 	jr	00108$
   03B0                    1258 00107$:
   03B0 C3 E7 03           1259 	jp	00102$
   03B3                    1260 00108$:
                           1261 ;	battle/battle.c 222
                           1262 ;	genAssign
                           1263 ;	AOP_HL for _arrow_y
   03B3 21 00 00           1264 	ld	hl,#_arrow_y
   03B6 36 60              1265 	ld	(hl),#0x60
                           1266 ;	battle/battle.c 223
                           1267 ;	genIpush
                           1268 ; _saveRegsForCall: sendSetSize: 0 deInUse: 0 bcInUse: 0 deSending: 0
   03B8 21 64 00           1269 	ld	hl,#0x0064
   03BB E5                 1270 	push	hl
                           1271 ;	genCall
   03BC CD 00 00           1272 	call	_delay
   03BF E8 02              1273 	lda	sp,2(sp)
                           1274 ;	battle/battle.c 224
                           1275 ;	genMinus
                           1276 ;	AOP_HL for _arrow_y
   03C1 21 00 00           1277 	ld	hl,#_arrow_y
   03C4 7E                 1278 	ld	a,(hl)
   03C5 C6 F0              1279 	add	a,#0xF0
   03C7 4F                 1280 	ld	c,a
                           1281 ;	genAssign
                           1282 ;	AOP_HL for _arrow_y
   03C8 71                 1283 	ld	(hl),c
                           1284 ;	genIpush
                           1285 ; _saveRegsForCall: sendSetSize: 0 deInUse: 0 bcInUse: 0 deSending: 0
   03C9 79                 1286 	ld	a,c
   03CA F5                 1287 	push	af
   03CB 33                 1288 	inc	sp
                           1289 ;	genIpush
                           1290 ;	AOP_HL for _arrow_x
   03CC 21 00 00           1291 	ld	hl,#_arrow_x
   03CF 7E                 1292 	ld	a,(hl)
   03D0 F5                 1293 	push	af
   03D1 33                 1294 	inc	sp
                           1295 ;	genIpush
   03D2 3E 00              1296 	ld	a,#0x00
   03D4 F5                 1297 	push	af
   03D5 33                 1298 	inc	sp
                           1299 ;	genCall
   03D6 CD 00 00           1300 	call	_move_sprite
   03D9 E8 03              1301 	lda	sp,3(sp)
                           1302 ;	battle/battle.c 225
                           1303 ;	genIpush
                           1304 ; _saveRegsForCall: sendSetSize: 0 deInUse: 0 bcInUse: 0 deSending: 0
   03DB 21 64 00           1305 	ld	hl,#0x0064
   03DE E5                 1306 	push	hl
                           1307 ;	genCall
   03DF CD 00 00           1308 	call	_delay
   03E2 E8 02              1309 	lda	sp,2(sp)
                           1310 ;	genGoto
   03E4 C3 13 04           1311 	jp	00104$
                           1312 ;	genLabel
   03E7                    1313 00102$:
                           1314 ;	battle/battle.c 229
                           1315 ;	genIpush
                           1316 ; _saveRegsForCall: sendSetSize: 0 deInUse: 0 bcInUse: 0 deSending: 0
   03E7 21 64 00           1317 	ld	hl,#0x0064
   03EA E5                 1318 	push	hl
                           1319 ;	genCall
   03EB CD 00 00           1320 	call	_delay
   03EE E8 02              1321 	lda	sp,2(sp)
                           1322 ;	battle/battle.c 230
                           1323 ;	genMinus
                           1324 ;	AOP_HL for _arrow_y
   03F0 21 00 00           1325 	ld	hl,#_arrow_y
   03F3 7E                 1326 	ld	a,(hl)
   03F4 C6 F0              1327 	add	a,#0xF0
   03F6 4F                 1328 	ld	c,a
                           1329 ;	genAssign
                           1330 ;	AOP_HL for _arrow_y
   03F7 71                 1331 	ld	(hl),c
                           1332 ;	genIpush
                           1333 ; _saveRegsForCall: sendSetSize: 0 deInUse: 0 bcInUse: 0 deSending: 0
   03F8 79                 1334 	ld	a,c
   03F9 F5                 1335 	push	af
   03FA 33                 1336 	inc	sp
                           1337 ;	genIpush
                           1338 ;	AOP_HL for _arrow_x
   03FB 21 00 00           1339 	ld	hl,#_arrow_x
   03FE 7E                 1340 	ld	a,(hl)
   03FF F5                 1341 	push	af
   0400 33                 1342 	inc	sp
                           1343 ;	genIpush
   0401 3E 00              1344 	ld	a,#0x00
   0403 F5                 1345 	push	af
   0404 33                 1346 	inc	sp
                           1347 ;	genCall
   0405 CD 00 00           1348 	call	_move_sprite
   0408 E8 03              1349 	lda	sp,3(sp)
                           1350 ;	battle/battle.c 231
                           1351 ;	genIpush
                           1352 ; _saveRegsForCall: sendSetSize: 0 deInUse: 0 bcInUse: 0 deSending: 0
   040A 21 64 00           1353 	ld	hl,#0x0064
   040D E5                 1354 	push	hl
                           1355 ;	genCall
   040E CD 00 00           1356 	call	_delay
   0411 E8 02              1357 	lda	sp,2(sp)
                           1358 ;	genLabel
   0413                    1359 00104$:
                           1360 ;	genEndFunction
                           1361 	
   0413 C9                 1362 	ret
   0414                    1363 ___battle_toggle_up_end:
                           1364 ;	battle/battle.c 235
                           1365 ;	genLabel
                           1366 ;	genFunction
                           1367 ;	---------------------------------
                           1368 ; Function battle_toggle_down
                           1369 ; ---------------------------------
   0414                    1370 ___battle_toggle_down_start:
   0414                    1371 _battle_toggle_down:
                           1372 	
                           1373 ;	battle/battle.c 238
                           1374 ;	genCmpEq
                           1375 ;	AOP_HL for _arrow_y
                           1376 ; genCmpEq: left 1, right 1, result 0
   0414 21 00 00           1377 	ld	hl,#_arrow_y
   0417 7E                 1378 	ld	a,(hl)
   0418 FE 50              1379 	cp	a,#0x50
   041A C2 51 04           1380 	jp	nz,00102$
   041D 18 03              1381 	jr	00108$
   041F                    1382 00107$:
   041F C3 51 04           1383 	jp	00102$
   0422                    1384 00108$:
                           1385 ;	battle/battle.c 240
                           1386 ;	genAssign
                           1387 ;	AOP_HL for _arrow_y
   0422 21 00 00           1388 	ld	hl,#_arrow_y
   0425 36 20              1389 	ld	(hl),#0x20
                           1390 ;	battle/battle.c 241
                           1391 ;	genIpush
                           1392 ; _saveRegsForCall: sendSetSize: 0 deInUse: 0 bcInUse: 0 deSending: 0
   0427 21 64 00           1393 	ld	hl,#0x0064
   042A E5                 1394 	push	hl
                           1395 ;	genCall
   042B CD 00 00           1396 	call	_delay
   042E E8 02              1397 	lda	sp,2(sp)
                           1398 ;	battle/battle.c 242
                           1399 ;	genIpush
                           1400 ; _saveRegsForCall: sendSetSize: 0 deInUse: 0 bcInUse: 0 deSending: 0
                           1401 ;	AOP_HL for _arrow_y
   0430 21 00 00           1402 	ld	hl,#_arrow_y
   0433 7E                 1403 	ld	a,(hl)
   0434 F5                 1404 	push	af
   0435 33                 1405 	inc	sp
                           1406 ;	genIpush
                           1407 ;	AOP_HL for _arrow_x
   0436 21 00 00           1408 	ld	hl,#_arrow_x
   0439 7E                 1409 	ld	a,(hl)
   043A F5                 1410 	push	af
   043B 33                 1411 	inc	sp
                           1412 ;	genIpush
   043C 3E 00              1413 	ld	a,#0x00
   043E F5                 1414 	push	af
   043F 33                 1415 	inc	sp
                           1416 ;	genCall
   0440 CD 00 00           1417 	call	_move_sprite
   0443 E8 03              1418 	lda	sp,3(sp)
                           1419 ;	battle/battle.c 243
                           1420 ;	genIpush
                           1421 ; _saveRegsForCall: sendSetSize: 0 deInUse: 0 bcInUse: 0 deSending: 0
   0445 21 64 00           1422 	ld	hl,#0x0064
   0448 E5                 1423 	push	hl
                           1424 ;	genCall
   0449 CD 00 00           1425 	call	_delay
   044C E8 02              1426 	lda	sp,2(sp)
                           1427 ;	genGoto
   044E C3 7D 04           1428 	jp	00104$
                           1429 ;	genLabel
   0451                    1430 00102$:
                           1431 ;	battle/battle.c 247
                           1432 ;	genIpush
                           1433 ; _saveRegsForCall: sendSetSize: 0 deInUse: 0 bcInUse: 0 deSending: 0
   0451 21 64 00           1434 	ld	hl,#0x0064
   0454 E5                 1435 	push	hl
                           1436 ;	genCall
   0455 CD 00 00           1437 	call	_delay
   0458 E8 02              1438 	lda	sp,2(sp)
                           1439 ;	battle/battle.c 248
                           1440 ;	genPlus
                           1441 ;	AOP_HL for _arrow_y
                           1442 ;	genPlusIncr
                           1443 ;	Can't optimise plus by inc, falling back to the normal way
   045A 21 00 00           1444 	ld	hl,#_arrow_y
   045D 7E                 1445 	ld	a,(hl)
   045E C6 10              1446 	add	a,#0x10
   0460 4F                 1447 	ld	c,a
                           1448 ;	genAssign
                           1449 ;	AOP_HL for _arrow_y
   0461 71                 1450 	ld	(hl),c
                           1451 ;	genIpush
                           1452 ; _saveRegsForCall: sendSetSize: 0 deInUse: 0 bcInUse: 0 deSending: 0
   0462 79                 1453 	ld	a,c
   0463 F5                 1454 	push	af
   0464 33                 1455 	inc	sp
                           1456 ;	genIpush
                           1457 ;	AOP_HL for _arrow_x
   0465 21 00 00           1458 	ld	hl,#_arrow_x
   0468 7E                 1459 	ld	a,(hl)
   0469 F5                 1460 	push	af
   046A 33                 1461 	inc	sp
                           1462 ;	genIpush
   046B 3E 00              1463 	ld	a,#0x00
   046D F5                 1464 	push	af
   046E 33                 1465 	inc	sp
                           1466 ;	genCall
   046F CD 00 00           1467 	call	_move_sprite
   0472 E8 03              1468 	lda	sp,3(sp)
                           1469 ;	battle/battle.c 249
                           1470 ;	genIpush
                           1471 ; _saveRegsForCall: sendSetSize: 0 deInUse: 0 bcInUse: 0 deSending: 0
   0474 21 64 00           1472 	ld	hl,#0x0064
   0477 E5                 1473 	push	hl
                           1474 ;	genCall
   0478 CD 00 00           1475 	call	_delay
   047B E8 02              1476 	lda	sp,2(sp)
                           1477 ;	genLabel
   047D                    1478 00104$:
                           1479 ;	genEndFunction
                           1480 	
   047D C9                 1481 	ret
   047E                    1482 ___battle_toggle_down_end:
                           1483 ;	battle/battle.c 253
                           1484 ;	genLabel
                           1485 ;	genFunction
                           1486 ;	---------------------------------
                           1487 ; Function battle_toggle_ctrl
                           1488 ; ---------------------------------
   047E                    1489 ___battle_toggle_ctrl_start:
   047E                    1490 _battle_toggle_ctrl:
   047E E8 FD              1491 	lda	sp,-3(sp)
                           1492 ;	battle/battle.c 255
                           1493 ;	genAssign
   0480 01 40 FF           1494 	ld	bc,#0xFF40
                           1495 ;	genAssign
                           1496 ;	AOP_STK for _battle_toggle_ctrl_sloc0_1_0
   0483 F8 01              1497 	lda	hl,1(sp)
   0485 36 40              1498 	ld	(hl),#0x40
   0487 23                 1499 	inc	hl
   0488 36 FF              1500 	ld	(hl),#0xFF
                           1501 ;	genPointerGet
                           1502 ;	AOP_STK for _battle_toggle_ctrl_sloc0_1_0
                           1503 ;	AOP_STK for _battle_toggle_ctrl_sloc1_1_0
   048A 2B                 1504 	dec	hl
   048B 5E                 1505 	ld	e,(hl)
   048C 23                 1506 	inc	hl
   048D 56                 1507 	ld	d,(hl)
   048E 1A                 1508 	ld	a,(de)
   048F 2B                 1509 	dec	hl
   0490 2B                 1510 	dec	hl
                           1511 ;	genAnd
                           1512 ;	AOP_STK for _battle_toggle_ctrl_sloc1_1_0
   0491 77                 1513 	ld      (hl),a
   0492 7F                 1514 	ld      a,a
   0493 E6 FB              1515 	and	a,#0xFB
                           1516 ;	genAssign (pointer)
   0495 02                 1517 	ld	(bc),a
                           1518 ;	battle/battle.c 257
                           1519 ;	genCall
                           1520 ; _saveRegsForCall: sendSetSize: 0 deInUse: 0 bcInUse: 0 deSending: 0
   0496 CD 00 00           1521 	call	_joypad
   0499 4B                 1522 	ld	c,e
                           1523 ;	genAnd
   049A 79                 1524 	ld	a,c
   049B E6 10              1525 	and	a,#0x10
   049D 20 03              1526 	jr	nz,00123$
   049F C3 BF 04           1527 	jp	00105$
   04A2                    1528 00123$:
                           1529 ;	battle/battle.c 259
                           1530 ;	genCmpEq
                           1531 ;	AOP_HL for _STATE
                           1532 ;	AOP_HL for _FIGHT_CHOICE
                           1533 ; genCmpEq: left 1, right 1, result 0
   04A2 21 0A 00           1534 	ld	hl,#_FIGHT_CHOICE
   04A5 7E                 1535 	ld	a,(hl)
   04A6 21 00 00           1536 	ld	hl,#_STATE
   04A9 BE                 1537 	cp	(hl)
   04AA 20 02              1538 	jr	nz,00124$
   04AC 18 03              1539 	jr	00125$
   04AE                    1540 00124$:
   04AE C3 BC 04           1541 	jp	00102$
   04B1                    1542 00125$:
                           1543 ;	battle/battle.c 260
                           1544 ;	genAssign
                           1545 ;	AOP_HL for _FIGHTING
                           1546 ;	AOP_HL for _STATE
   04B1 21 0D 00           1547 	ld	hl,#_FIGHTING
   04B4 7E                 1548 	ld	a,(hl)
   04B5 21 00 00           1549 	ld	hl,#_STATE
   04B8 77                 1550 	ld	(hl),a
                           1551 ;	genGoto
   04B9 C3 BF 04           1552 	jp	00105$
                           1553 ;	genLabel
   04BC                    1554 00102$:
                           1555 ;	battle/battle.c 262
                           1556 ;	genCall
                           1557 ; _saveRegsForCall: sendSetSize: 0 deInUse: 0 bcInUse: 0 deSending: 0
   04BC CD 00 00           1558 	call	_battle_nav
                           1559 ;	genLabel
   04BF                    1560 00105$:
                           1561 ;	battle/battle.c 265
                           1562 ;	genCall
                           1563 ; _saveRegsForCall: sendSetSize: 0 deInUse: 0 bcInUse: 0 deSending: 0
   04BF CD 00 00           1564 	call	_joypad
   04C2 4B                 1565 	ld	c,e
                           1566 ;	genAnd
   04C3 79                 1567 	ld	a,c
   04C4 E6 20              1568 	and	a,#0x20
   04C6 20 03              1569 	jr	nz,00126$
   04C8 C3 CE 04           1570 	jp	00107$
   04CB                    1571 00126$:
                           1572 ;	battle/battle.c 266
                           1573 ;	genCall
                           1574 ; _saveRegsForCall: sendSetSize: 0 deInUse: 0 bcInUse: 0 deSending: 0
   04CB CD C1 00           1575 	call	_back
                           1576 ;	genLabel
   04CE                    1577 00107$:
                           1578 ;	battle/battle.c 269
                           1579 ;	genCall
                           1580 ; _saveRegsForCall: sendSetSize: 0 deInUse: 0 bcInUse: 0 deSending: 0
   04CE CD 00 00           1581 	call	_joypad
   04D1 4B                 1582 	ld	c,e
                           1583 ;	genAnd
   04D2 79                 1584 	ld	a,c
   04D3 E6 08              1585 	and	a,#0x08
   04D5 20 03              1586 	jr	nz,00127$
   04D7 C3 EC 04           1587 	jp	00109$
   04DA                    1588 00127$:
                           1589 ;	genCmpEq
                           1590 ;	AOP_HL for _STATE
                           1591 ;	AOP_HL for _BATTLE_CHOICE
                           1592 ; genCmpEq: left 1, right 1, result 0
   04DA 21 09 00           1593 	ld	hl,#_BATTLE_CHOICE
   04DD 7E                 1594 	ld	a,(hl)
   04DE 21 00 00           1595 	ld	hl,#_STATE
   04E1 BE                 1596 	cp	(hl)
   04E2 20 02              1597 	jr	nz,00128$
   04E4 18 03              1598 	jr	00129$
   04E6                    1599 00128$:
   04E6 C3 EC 04           1600 	jp	00109$
   04E9                    1601 00129$:
                           1602 ;	battle/battle.c 270
                           1603 ;	genCall
                           1604 ; _saveRegsForCall: sendSetSize: 0 deInUse: 0 bcInUse: 0 deSending: 0
   04E9 CD 14 04           1605 	call	_battle_toggle_down
                           1606 ;	genLabel
   04EC                    1607 00109$:
                           1608 ;	battle/battle.c 273
                           1609 ;	genCall
                           1610 ; _saveRegsForCall: sendSetSize: 0 deInUse: 0 bcInUse: 0 deSending: 0
   04EC CD 00 00           1611 	call	_joypad
   04EF 4B                 1612 	ld	c,e
                           1613 ;	genAnd
   04F0 79                 1614 	ld	a,c
   04F1 E6 04              1615 	and	a,#0x04
   04F3 20 03              1616 	jr	nz,00130$
   04F5 C3 0A 05           1617 	jp	00114$
   04F8                    1618 00130$:
                           1619 ;	genCmpEq
                           1620 ;	AOP_HL for _STATE
                           1621 ;	AOP_HL for _BATTLE_CHOICE
                           1622 ; genCmpEq: left 1, right 1, result 0
   04F8 21 09 00           1623 	ld	hl,#_BATTLE_CHOICE
   04FB 7E                 1624 	ld	a,(hl)
   04FC 21 00 00           1625 	ld	hl,#_STATE
   04FF BE                 1626 	cp	(hl)
   0500 20 02              1627 	jr	nz,00131$
   0502 18 03              1628 	jr	00132$
   0504                    1629 00131$:
   0504 C3 0A 05           1630 	jp	00114$
   0507                    1631 00132$:
                           1632 ;	battle/battle.c 274
                           1633 ;	genCall
                           1634 ; _saveRegsForCall: sendSetSize: 0 deInUse: 0 bcInUse: 0 deSending: 0
   0507 CD A5 03           1635 	call	_battle_toggle_up
                           1636 ;	genLabel
   050A                    1637 00114$:
                           1638 ;	genEndFunction
   050A E8 03              1639 	lda	sp,3(sp)
   050C C9                 1640 	ret
   050D                    1641 ___battle_toggle_ctrl_end:
                           1642 ;	battle/battle.c 277
                           1643 ;	genLabel
                           1644 ;	genFunction
                           1645 ;	---------------------------------
                           1646 ; Function choice_handler
                           1647 ; ---------------------------------
   050D                    1648 ___choice_handler_start:
   050D                    1649 _choice_handler:
                           1650 	
                           1651 ;	battle/battle.c 279
                           1652 ;	genCmpEq
                           1653 ;	AOP_STK for 
                           1654 ;	AOP_HL for _PUNCH_LOC
                           1655 ; genCmpEq: left 1, right 1, result 0
   050D 21 08 00           1656 	ld	hl,#_PUNCH_LOC
   0510 7E                 1657 	ld	a,(hl)
   0511 F8 02              1658 	lda	hl,2(sp)
   0513 BE                 1659 	cp	(hl)
   0514 20 02              1660 	jr	nz,00114$
   0516 18 03              1661 	jr	00115$
   0518                    1662 00114$:
   0518 C3 30 05           1663 	jp	00102$
   051B                    1664 00115$:
                           1665 ;	genCmpEq
                           1666 ;	AOP_HL for _choice
                           1667 ;	AOP_HL for _ITEM
                           1668 ; genCmpEq: left 1, right 1, result 0
   051B 21 02 00           1669 	ld	hl,#_ITEM
   051E 7E                 1670 	ld	a,(hl)
   051F 21 00 00           1671 	ld	hl,#_choice
   0522 BE                 1672 	cp	(hl)
   0523 20 03              1673 	jr	nz,00116$
   0525 C3 30 05           1674 	jp	00102$
   0528                    1675 00116$:
                           1676 ;	battle/battle.c 280
                           1677 ;	genAssign
                           1678 ;	AOP_HL for _PUNCH
                           1679 ;	AOP_HL for _choice
   0528 21 00 00           1680 	ld	hl,#_PUNCH
   052B 7E                 1681 	ld	a,(hl)
   052C 21 00 00           1682 	ld	hl,#_choice
   052F 77                 1683 	ld	(hl),a
                           1684 ;	genLabel
   0530                    1685 00102$:
                           1686 ;	battle/battle.c 281
                           1687 ;	genCmpEq
                           1688 ;	AOP_HL for _CHOSEN_ITEM
                           1689 ;	AOP_HL for _CLUB
                           1690 ; genCmpEq: left 1, right 1, result 0
   0530 21 04 00           1691 	ld	hl,#_CLUB
   0533 7E                 1692 	ld	a,(hl)
   0534 21 13 00           1693 	ld	hl,#_CHOSEN_ITEM
   0537 BE                 1694 	cp	(hl)
   0538 20 02              1695 	jr	nz,00117$
   053A 18 03              1696 	jr	00118$
   053C                    1697 00117$:
   053C C3 47 05           1698 	jp	00105$
   053F                    1699 00118$:
                           1700 ;	battle/battle.c 282
                           1701 ;	genAssign
                           1702 ;	AOP_HL for _ITEM
                           1703 ;	AOP_HL for _choice
   053F 21 02 00           1704 	ld	hl,#_ITEM
   0542 7E                 1705 	ld	a,(hl)
   0543 21 00 00           1706 	ld	hl,#_choice
   0546 77                 1707 	ld	(hl),a
                           1708 ;	genLabel
   0547                    1709 00105$:
                           1710 ;	battle/battle.c 283
                           1711 ;	genCmpEq
                           1712 ;	AOP_HL for _CHOSEN_ITEM
                           1713 ;	AOP_HL for _NET
                           1714 ; genCmpEq: left 1, right 1, result 0
   0547 21 03 00           1715 	ld	hl,#_NET
   054A 7E                 1716 	ld	a,(hl)
   054B 21 13 00           1717 	ld	hl,#_CHOSEN_ITEM
   054E BE                 1718 	cp	(hl)
   054F 20 02              1719 	jr	nz,00119$
   0551 18 03              1720 	jr	00120$
   0553                    1721 00119$:
   0553 C3 5E 05           1722 	jp	00108$
   0556                    1723 00120$:
                           1724 ;	battle/battle.c 284
                           1725 ;	genAssign
                           1726 ;	AOP_HL for _ITEM
                           1727 ;	AOP_HL for _choice
   0556 21 02 00           1728 	ld	hl,#_ITEM
   0559 7E                 1729 	ld	a,(hl)
   055A 21 00 00           1730 	ld	hl,#_choice
   055D 77                 1731 	ld	(hl),a
                           1732 ;	genLabel
   055E                    1733 00108$:
                           1734 ;	genEndFunction
                           1735 	
   055E C9                 1736 	ret
   055F                    1737 ___choice_handler_end:
                           1738 ;	battle/battle.c 290
                           1739 ;	genLabel
                           1740 ;	genFunction
                           1741 ;	---------------------------------
                           1742 ; Function hero_fight
                           1743 ; ---------------------------------
   055F                    1744 ___hero_fight_start:
   055F                    1745 _hero_fight:
   055F E8 FC              1746 	lda	sp,-4(sp)
                           1747 ;	battle/battle.c 293
                           1748 ;	genCmpEq
                           1749 ;	AOP_HL for _choice
                           1750 ;	AOP_HL for _PUNCH
                           1751 ; genCmpEq: left 1, right 1, result 1
   0561 21 00 00           1752 	ld	hl,#_PUNCH
   0564 7E                 1753 	ld	a,(hl)
   0565 21 00 00           1754 	ld	hl,#_choice
   0568 BE                 1755 	cp	(hl)
   0569 20 04              1756 	jr	nz,00158$
   056B 3E 01              1757 	ld	a,#0x01
   056D 18 01              1758 	jr	00159$
   056F                    1759 00158$:
   056F AF                 1760 	xor	a,a
   0570                    1761 00159$:
   0570 4F                 1762 	ld	c,a
                           1763 ;	genIfx
   0571 AF                 1764 	xor	a,a
   0572 B1                 1765 	or	a,c
   0573 C2 85 05           1766 	jp	nz,00129$
                           1767 ;	genCmpEq
                           1768 ;	AOP_HL for _choice
                           1769 ;	AOP_HL for _ITEM
                           1770 ; genCmpEq: left 1, right 1, result 0
   0576 21 02 00           1771 	ld	hl,#_ITEM
   0579 7E                 1772 	ld	a,(hl)
   057A 21 00 00           1773 	ld	hl,#_choice
   057D BE                 1774 	cp	(hl)
   057E 20 02              1775 	jr	nz,00160$
   0580 18 03              1776 	jr	00161$
   0582                    1777 00160$:
   0582 C3 3B 07           1778 	jp	00130$
   0585                    1779 00161$:
                           1780 ;	genLabel
   0585                    1781 00129$:
                           1782 ;	battle/battle.c 296
                           1783 ;	genCall
                           1784 ; _saveRegsForCall: sendSetSize: 0 deInUse: 0 bcInUse: 1 deSending: 0
   0585 C5                 1785 	push	bc
   0586 CD 02 0A           1786 	call	_hero_fight_anim
   0589 E1                 1787 	pop	hl
   058A 4D                 1788 	ld	c,l
                           1789 ;	battle/battle.c 297
                           1790 ;	genAssign
                           1791 ;	AOP_HL for _a
   058B 21 1E 00           1792 	ld	hl,#_a
   058E 36 00              1793 	ld	(hl),#0x00
                           1794 ;	genLabel
   0590                    1795 00134$:
                           1796 ;	genCmpLt
                           1797 ;	AOP_HL for _a
   0590 21 1E 00           1798 	ld	hl,#_a
   0593 7E                 1799 	ld	a,(hl)
   0594 FE 06              1800 	cp	#0x06
   0596 D2 D9 05           1801 	jp	nc,00137$
                           1802 ;	battle/battle.c 299
                           1803 ;	genIpush
                           1804 ; _saveRegsForCall: sendSetSize: 0 deInUse: 0 bcInUse: 1 deSending: 0
   0599 C5                 1805 	push	bc
   059A 21 64 00           1806 	ld	hl,#0x0064
   059D E5                 1807 	push	hl
                           1808 ;	genCall
   059E CD 00 00           1809 	call	_delay
   05A1 E8 02              1810 	lda	sp,2(sp)
   05A3 E1                 1811 	pop	hl
   05A4 4D                 1812 	ld	c,l
                           1813 ;	battle/battle.c 300
                           1814 ;	genCall
                           1815 ; _saveRegsForCall: sendSetSize: 0 deInUse: 0 bcInUse: 1 deSending: 0
   05A5 C5                 1816 	push	bc
   05A6 CD 00 00           1817 	call	_display_off
   05A9 E1                 1818 	pop	hl
   05AA 4D                 1819 	ld	c,l
                           1820 ;	battle/battle.c 301
                           1821 ;	genIpush
                           1822 ; _saveRegsForCall: sendSetSize: 0 deInUse: 0 bcInUse: 1 deSending: 0
   05AB C5                 1823 	push	bc
   05AC 21 64 00           1824 	ld	hl,#0x0064
   05AF E5                 1825 	push	hl
                           1826 ;	genCall
   05B0 CD 00 00           1827 	call	_delay
   05B3 E8 02              1828 	lda	sp,2(sp)
   05B5 E1                 1829 	pop	hl
   05B6 4D                 1830 	ld	c,l
                           1831 ;	battle/battle.c 302
                           1832 ;	genAssign
                           1833 ;	AOP_STK for _hero_fight_sloc0_1_0
   05B7 F8 02              1834 	lda	hl,2(sp)
   05B9 36 40              1835 	ld	(hl),#0x40
   05BB 23                 1836 	inc	hl
   05BC 36 FF              1837 	ld	(hl),#0xFF
                           1838 ;	genAssign
                           1839 ;	AOP_STK for _hero_fight_sloc1_1_0
   05BE F8 00              1840 	lda	hl,0(sp)
   05C0 36 40              1841 	ld	(hl),#0x40
   05C2 23                 1842 	inc	hl
   05C3 36 FF              1843 	ld	(hl),#0xFF
                           1844 ;	genPointerGet
                           1845 ;	AOP_STK for _hero_fight_sloc1_1_0
   05C5 2B                 1846 	dec	hl
   05C6 5E                 1847 	ld	e,(hl)
   05C7 23                 1848 	inc	hl
   05C8 56                 1849 	ld	d,(hl)
   05C9 1A                 1850 	ld	a,(de)
                           1851 ;	genOr
   05CA 47                 1852 	ld	b,a
   05CB F6 80              1853 	or	a,#0x80
                           1854 ;	genAssign (pointer)
                           1855 ;	AOP_STK for _hero_fight_sloc0_1_0
   05CD 23                 1856 	inc	hl
   05CE 5E                 1857 	ld	e,(hl)
   05CF 23                 1858 	inc	hl
   05D0 56                 1859 	ld	d,(hl)
   05D1 12                 1860 	ld	(de),a
                           1861 ;	battle/battle.c 297
                           1862 ;	genPlus
                           1863 ;	AOP_HL for _a
                           1864 ;	genPlusIncr
   05D2 21 1E 00           1865 	ld	hl,#_a
   05D5 34                 1866 	inc	(hl)
                           1867 ;	genGoto
   05D6 C3 90 05           1868 	jp	00134$
                           1869 ;	genLabel
   05D9                    1870 00137$:
                           1871 ;	battle/battle.c 304
                           1872 ;	genIpush
                           1873 ; _saveRegsForCall: sendSetSize: 0 deInUse: 0 bcInUse: 1 deSending: 0
   05D9 C5                 1874 	push	bc
   05DA 3E 00              1875 	ld	a,#0x00
   05DC F5                 1876 	push	af
   05DD 33                 1877 	inc	sp
                           1878 ;	genCall
   05DE CD 00 00           1879 	call	_sprite_clean
   05E1 E8 01              1880 	lda	sp,1(sp)
   05E3 E1                 1881 	pop	hl
   05E4 4D                 1882 	ld	c,l
                           1883 ;	battle/battle.c 305
                           1884 ;	genAssign
                           1885 ;	AOP_HL for _LETTER_COUNT
   05E5 21 00 00           1886 	ld	hl,#_LETTER_COUNT
   05E8 36 00              1887 	ld	(hl),#0x00
                           1888 ;	battle/battle.c 306
                           1889 ;	genCmpEq
                           1890 ;	AOP_HL for _choice
                           1891 ;	AOP_HL for _ITEM
                           1892 ; genCmpEq: left 1, right 1, result 1
   05EA 21 02 00           1893 	ld	hl,#_ITEM
   05ED 7E                 1894 	ld	a,(hl)
   05EE 21 00 00           1895 	ld	hl,#_choice
   05F1 BE                 1896 	cp	(hl)
   05F2 20 04              1897 	jr	nz,00162$
   05F4 3E 01              1898 	ld	a,#0x01
   05F6 18 01              1899 	jr	00163$
   05F8                    1900 00162$:
   05F8 AF                 1901 	xor	a,a
   05F9                    1902 00163$:
   05F9 47                 1903 	ld	b,a
                           1904 ;	genIfx
   05FA AF                 1905 	xor	a,a
   05FB B0                 1906 	or	a,b
   05FC CA 31 06           1907 	jp	z,00124$
                           1908 ;	genCmpEq
                           1909 ;	AOP_HL for _CHOSEN_ITEM
                           1910 ;	AOP_HL for _CLUB
                           1911 ; genCmpEq: left 1, right 1, result 0
   05FF 21 04 00           1912 	ld	hl,#_CLUB
   0602 7E                 1913 	ld	a,(hl)
   0603 21 13 00           1914 	ld	hl,#_CHOSEN_ITEM
   0606 BE                 1915 	cp	(hl)
   0607 20 02              1916 	jr	nz,00164$
   0609 18 03              1917 	jr	00165$
   060B                    1918 00164$:
   060B C3 31 06           1919 	jp	00124$
   060E                    1920 00165$:
                           1921 ;	battle/battle.c 307
                           1922 ;	genCmpGt
                           1923 ;	AOP_HL for _ENEMY
   060E 3E 00              1924 	ld	a,#0x00
   0610 21 10 00           1925 	ld	hl,#_ENEMY
   0613 96                 1926 	sub	a,(hl)
   0614 D2 31 06           1927 	jp	nc,00124$
                           1928 ;	genIfx
                           1929 ;	AOP_HL for _CRAB_CAUGHT
   0617 AF                 1930 	xor	a,a
   0618 21 00 00           1931 	ld	hl,#_CRAB_CAUGHT
   061B B6                 1932 	or	a,(hl)
   061C C2 31 06           1933 	jp	nz,00124$
                           1934 ;	battle/battle.c 308
                           1935 ;	genIpush
                           1936 ; _saveRegsForCall: sendSetSize: 0 deInUse: 0 bcInUse: 1 deSending: 0
   061F C5                 1937 	push	bc
   0620 21 48 40           1938 	ld	hl,#0x4048
   0623 E5                 1939 	push	hl
                           1940 ;	genIpush
   0624 21 50 07           1941 	ld	hl,#__str_20
   0627 E5                 1942 	push	hl
                           1943 ;	genCall
   0628 CD 00 00           1944 	call	_print
   062B E8 04              1945 	lda	sp,4(sp)
   062D C1                 1946 	pop	bc
                           1947 ;	genGoto
   062E C3 3B 07           1948 	jp	00130$
                           1949 ;	genLabel
   0631                    1950 00124$:
                           1951 ;	battle/battle.c 309
                           1952 ;	genIfx
   0631 AF                 1953 	xor	a,a
   0632 B0                 1954 	or	a,b
   0633 CA 65 06           1955 	jp	z,00119$
                           1956 ;	genCmpEq
                           1957 ;	AOP_HL for _CHOSEN_ITEM
                           1958 ;	AOP_HL for _NET
                           1959 ; genCmpEq: left 1, right 1, result 0
   0636 21 03 00           1960 	ld	hl,#_NET
   0639 7E                 1961 	ld	a,(hl)
   063A 21 13 00           1962 	ld	hl,#_CHOSEN_ITEM
   063D BE                 1963 	cp	(hl)
   063E 20 02              1964 	jr	nz,00166$
   0640 18 03              1965 	jr	00167$
   0642                    1966 00166$:
   0642 C3 65 06           1967 	jp	00119$
   0645                    1968 00167$:
                           1969 ;	battle/battle.c 310
                           1970 ;	genCmpGt
                           1971 ;	AOP_HL for _hero_acc
   0645 3E 00              1972 	ld	a,#0x00
   0647 21 1A 00           1973 	ld	hl,#_hero_acc
   064A 96                 1974 	sub	a,(hl)
   064B D2 65 06           1975 	jp	nc,00119$
                           1976 ;	battle/battle.c 312
                           1977 ;	genIpush
                           1978 ; _saveRegsForCall: sendSetSize: 0 deInUse: 0 bcInUse: 1 deSending: 0
   064E C5                 1979 	push	bc
   064F 21 48 50           1980 	ld	hl,#0x5048
   0652 E5                 1981 	push	hl
                           1982 ;	genIpush
   0653 21 6C 07           1983 	ld	hl,#__str_21
   0656 E5                 1984 	push	hl
                           1985 ;	genCall
   0657 CD 00 00           1986 	call	_print
   065A E8 04              1987 	lda	sp,4(sp)
   065C C1                 1988 	pop	bc
                           1989 ;	battle/battle.c 313
                           1990 ;	genAssign
                           1991 ;	AOP_HL for _CRAB_CAUGHT
   065D 21 00 00           1992 	ld	hl,#_CRAB_CAUGHT
   0660 36 01              1993 	ld	(hl),#0x01
                           1994 ;	genGoto
   0662 C3 3B 07           1995 	jp	00130$
                           1996 ;	genLabel
   0665                    1997 00119$:
                           1998 ;	battle/battle.c 315
                           1999 ;	genIfx
   0665 AF                 2000 	xor	a,a
   0666 B1                 2001 	or	a,c
   0667 CA 73 06           2002 	jp	z,00117$
                           2003 ;	genCmpLt
                           2004 ;	AOP_HL for _hero_acc
   066A 21 1A 00           2005 	ld	hl,#_hero_acc
   066D 7E                 2006 	ld	a,(hl)
   066E FE 03              2007 	cp	#0x03
   0670 D2 81 06           2008 	jp	nc,00112$
                           2009 ;	genLabel
   0673                    2010 00117$:
                           2011 ;	battle/battle.c 316
                           2012 ;	genIfx
   0673 AF                 2013 	xor	a,a
   0674 B0                 2014 	or	a,b
   0675 CA F4 06           2015 	jp	z,00113$
                           2016 ;	genCmpGt
                           2017 ;	AOP_HL for _hero_acc
   0678 3E 00              2018 	ld	a,#0x00
   067A 21 1A 00           2019 	ld	hl,#_hero_acc
   067D 96                 2020 	sub	a,(hl)
   067E D2 F4 06           2021 	jp	nc,00113$
                           2022 ;	genLabel
   0681                    2023 00112$:
                           2024 ;	battle/battle.c 318
                           2025 ;	genIpush
                           2026 ; _saveRegsForCall: sendSetSize: 0 deInUse: 0 bcInUse: 1 deSending: 0
   0681 C5                 2027 	push	bc
   0682 21 38 48           2028 	ld	hl,#0x4838
   0685 E5                 2029 	push	hl
                           2030 ;	genIpush
   0686 21 74 07           2031 	ld	hl,#__str_22
   0689 E5                 2032 	push	hl
                           2033 ;	genCall
   068A CD 00 00           2034 	call	_print
   068D E8 04              2035 	lda	sp,4(sp)
   068F C1                 2036 	pop	bc
                           2037 ;	battle/battle.c 319
                           2038 ;	genCmpEq
                           2039 ;	AOP_HL for _ENEMY
                           2040 ; genCmpEq: left 1, right 1, result 0
   0690 21 10 00           2041 	ld	hl,#_ENEMY
   0693 7E                 2042 	ld	a,(hl)
   0694 B7                 2043 	or	a,a
   0695 C2 AC 06           2044 	jp	nz,00102$
   0698 18 03              2045 	jr	00169$
   069A                    2046 00168$:
   069A C3 AC 06           2047 	jp	00102$
   069D                    2048 00169$:
                           2049 ;	battle/battle.c 320
                           2050 ;	genIpush
                           2051 ; _saveRegsForCall: sendSetSize: 0 deInUse: 0 bcInUse: 1 deSending: 0
   069D C5                 2052 	push	bc
   069E 21 38 58           2053 	ld	hl,#0x5838
   06A1 E5                 2054 	push	hl
                           2055 ;	genIpush
   06A2 21 7C 07           2056 	ld	hl,#__str_23
   06A5 E5                 2057 	push	hl
                           2058 ;	genCall
   06A6 CD 00 00           2059 	call	_print
   06A9 E8 04              2060 	lda	sp,4(sp)
   06AB C1                 2061 	pop	bc
                           2062 ;	genLabel
   06AC                    2063 00102$:
                           2064 ;	battle/battle.c 321
                           2065 ;	genCmpEq
                           2066 ;	AOP_HL for _ENEMY
                           2067 ; genCmpEq: left 1, right 1, result 0
   06AC 21 10 00           2068 	ld	hl,#_ENEMY
   06AF 7E                 2069 	ld	a,(hl)
   06B0 FE 01              2070 	cp	a,#0x01
   06B2 C2 C9 06           2071 	jp	nz,00104$
   06B5 18 03              2072 	jr	00171$
   06B7                    2073 00170$:
   06B7 C3 C9 06           2074 	jp	00104$
   06BA                    2075 00171$:
                           2076 ;	battle/battle.c 322
                           2077 ;	genIpush
                           2078 ; _saveRegsForCall: sendSetSize: 0 deInUse: 0 bcInUse: 1 deSending: 0
   06BA C5                 2079 	push	bc
   06BB 21 38 58           2080 	ld	hl,#0x5838
   06BE E5                 2081 	push	hl
                           2082 ;	genIpush
   06BF 21 84 07           2083 	ld	hl,#__str_24
   06C2 E5                 2084 	push	hl
                           2085 ;	genCall
   06C3 CD 00 00           2086 	call	_print
   06C6 E8 04              2087 	lda	sp,4(sp)
   06C8 C1                 2088 	pop	bc
                           2089 ;	genLabel
   06C9                    2090 00104$:
                           2091 ;	battle/battle.c 323
                           2092 ;	genCmpEq
                           2093 ;	AOP_HL for _ENEMY
                           2094 ; genCmpEq: left 1, right 1, result 0
   06C9 21 10 00           2095 	ld	hl,#_ENEMY
   06CC 7E                 2096 	ld	a,(hl)
   06CD FE 02              2097 	cp	a,#0x02
   06CF C2 E6 06           2098 	jp	nz,00106$
   06D2 18 03              2099 	jr	00173$
   06D4                    2100 00172$:
   06D4 C3 E6 06           2101 	jp	00106$
   06D7                    2102 00173$:
                           2103 ;	battle/battle.c 324
                           2104 ;	genIpush
                           2105 ; _saveRegsForCall: sendSetSize: 0 deInUse: 0 bcInUse: 1 deSending: 0
   06D7 C5                 2106 	push	bc
   06D8 21 38 58           2107 	ld	hl,#0x5838
   06DB E5                 2108 	push	hl
                           2109 ;	genIpush
   06DC 21 8B 07           2110 	ld	hl,#__str_25
   06DF E5                 2111 	push	hl
                           2112 ;	genCall
   06E0 CD 00 00           2113 	call	_print
   06E3 E8 04              2114 	lda	sp,4(sp)
   06E5 C1                 2115 	pop	bc
                           2116 ;	genLabel
   06E6                    2117 00106$:
                           2118 ;	battle/battle.c 325
                           2119 ;	genIpush
                           2120 ; _saveRegsForCall: sendSetSize: 0 deInUse: 0 bcInUse: 1 deSending: 0
   06E6 C5                 2121 	push	bc
   06E7 21 F4 01           2122 	ld	hl,#0x01F4
   06EA E5                 2123 	push	hl
                           2124 ;	genCall
   06EB CD 00 00           2125 	call	_delay
   06EE E8 02              2126 	lda	sp,2(sp)
   06F0 C1                 2127 	pop	bc
                           2128 ;	genGoto
   06F1 C3 3B 07           2129 	jp	00130$
                           2130 ;	genLabel
   06F4                    2131 00113$:
                           2132 ;	battle/battle.c 328
                           2133 ;	genIfx
   06F4 AF                 2134 	xor	a,a
   06F5 B1                 2135 	or	a,c
   06F6 CA 02 07           2136 	jp	z,00111$
                           2137 ;	genCmpLt
                           2138 ;	AOP_HL for _hero_acc
   06F9 21 1A 00           2139 	ld	hl,#_hero_acc
   06FC 7E                 2140 	ld	a,(hl)
   06FD FE 03              2141 	cp	#0x03
   06FF DA 14 07           2142 	jp	c,00107$
                           2143 ;	genLabel
   0702                    2144 00111$:
                           2145 ;	battle/battle.c 329
                           2146 ;	genIfx
   0702 AF                 2147 	xor	a,a
   0703 B0                 2148 	or	a,b
   0704 CA 3B 07           2149 	jp	z,00130$
                           2150 ;	genCmpEq
                           2151 ;	AOP_HL for _hero_acc
                           2152 ; genCmpEq: left 1, right 1, result 0
   0707 21 1A 00           2153 	ld	hl,#_hero_acc
   070A 7E                 2154 	ld	a,(hl)
   070B B7                 2155 	or	a,a
   070C C2 3B 07           2156 	jp	nz,00130$
   070F 18 03              2157 	jr	00175$
   0711                    2158 00174$:
   0711 C3 3B 07           2159 	jp	00130$
   0714                    2160 00175$:
                           2161 ;	genLabel
   0714                    2162 00107$:
                           2163 ;	battle/battle.c 331
                           2164 ;	genIpush
                           2165 ; _saveRegsForCall: sendSetSize: 0 deInUse: 0 bcInUse: 0 deSending: 0
   0714 3E 00              2166 	ld	a,#0x00
   0716 F5                 2167 	push	af
   0717 33                 2168 	inc	sp
                           2169 ;	genCall
   0718 CD 00 00           2170 	call	_sprite_clean
   071B E8 01              2171 	lda	sp,1(sp)
                           2172 ;	battle/battle.c 332
                           2173 ;	genAssign
                           2174 ;	AOP_HL for _LETTER_COUNT
   071D 21 00 00           2175 	ld	hl,#_LETTER_COUNT
   0720 36 00              2176 	ld	(hl),#0x00
                           2177 ;	battle/battle.c 333
                           2178 ;	genIpush
                           2179 ; _saveRegsForCall: sendSetSize: 0 deInUse: 0 bcInUse: 0 deSending: 0
   0722 21 40 50           2180 	ld	hl,#0x5040
   0725 E5                 2181 	push	hl
                           2182 ;	genIpush
   0726 21 95 07           2183 	ld	hl,#__str_26
   0729 E5                 2184 	push	hl
                           2185 ;	genCall
   072A CD 00 00           2186 	call	_print
   072D E8 04              2187 	lda	sp,4(sp)
                           2188 ;	battle/battle.c 334
                           2189 ;	genIpush
                           2190 ; _saveRegsForCall: sendSetSize: 0 deInUse: 0 bcInUse: 0 deSending: 0
   072F 21 F4 01           2191 	ld	hl,#0x01F4
   0732 E5                 2192 	push	hl
                           2193 ;	genCall
   0733 CD 00 00           2194 	call	_delay
   0736 E8 02              2195 	lda	sp,2(sp)
                           2196 ;	battle/battle.c 335
                           2197 ;	genCall
                           2198 ; _saveRegsForCall: sendSetSize: 0 deInUse: 0 bcInUse: 0 deSending: 0
   0738 CD 7E 0C           2199 	call	_clear_screen
                           2200 ;	genLabel
   073B                    2201 00130$:
                           2202 ;	battle/battle.c 339
                           2203 ;	genCmpEq
                           2204 ;	AOP_HL for _choice
                           2205 ;	AOP_HL for _DEFEND
                           2206 ; genCmpEq: left 1, right 1, result 0
   073B 21 01 00           2207 	ld	hl,#_DEFEND
   073E 7E                 2208 	ld	a,(hl)
   073F 21 00 00           2209 	ld	hl,#_choice
   0742 BE                 2210 	cp	(hl)
   0743 20 02              2211 	jr	nz,00176$
   0745 18 03              2212 	jr	00177$
   0747                    2213 00176$:
   0747 C3 4D 07           2214 	jp	00138$
   074A                    2215 00177$:
                           2216 ;	battle/battle.c 340
                           2217 ;	genCall
                           2218 ; _saveRegsForCall: sendSetSize: 0 deInUse: 0 bcInUse: 0 deSending: 0
   074A CD 9F 07           2219 	call	_hero_defend_anim
                           2220 ;	genLabel
   074D                    2221 00138$:
                           2222 ;	genEndFunction
   074D E8 04              2223 	lda	sp,4(sp)
   074F C9                 2224 	ret
   0750                    2225 ___hero_fight_end:
   0750                    2226 __str_20:
   0750 59 4F 55 69 4E 45  2227 	.ascii "YOUiNEED"
        45 44
   0758 0A                 2228 	.db 0x0A
   0759 54 4F 69 43 41 54  2229 	.ascii "TOiCATCH"
        43 48
   0761 0A                 2230 	.db 0x0A
   0762 54 48 45 69 43 52  2231 	.ascii "THEiCRABl"
        41 42 6C
   076B 00                 2232 	.db 0x00
   076C                    2233 __str_21:
   076C 43 41 55 47 48 54  2234 	.ascii "CAUGHTl"
        6C
   0773 00                 2235 	.db 0x00
   0774                    2236 __str_22:
   0774 59 4F 55 69 48 49  2237 	.ascii "YOUiHIT"
        54
   077B 00                 2238 	.db 0x00
   077C                    2239 __str_23:
   077C 41 53 41 4B 41 57  2240 	.ascii "ASAKAWA"
        41
   0783 00                 2241 	.db 0x00
   0784                    2242 __str_24:
   0784 41 69 43 52 41 42  2243 	.ascii "AiCRAB"
   078A 00                 2244 	.db 0x00
   078B                    2245 __str_25:
   078B 4B 49 4E 47 69 43  2246 	.ascii "KINGiCRAB"
        52 41 42
   0794 00                 2247 	.db 0x00
   0795                    2248 __str_26:
   0795 59 4F 55 69 4D 49  2249 	.ascii "YOUiMISSl"
        53 53 6C
   079E 00                 2250 	.db 0x00
                           2251 ;	battle/battle.c 343
                           2252 ;	genLabel
                           2253 ;	genFunction
                           2254 ;	---------------------------------
                           2255 ; Function hero_defend_anim
                           2256 ; ---------------------------------
   079F                    2257 ___hero_defend_anim_start:
   079F                    2258 _hero_defend_anim:
   079F E8 FF              2259 	lda	sp,-1(sp)
                           2260 ;	battle/battle.c 345
                           2261 ;	genCmpEq
                           2262 ;	AOP_HL for _ENEMY
                           2263 ; genCmpEq: left 1, right 1, result 0
   07A1 21 10 00           2264 	ld	hl,#_ENEMY
   07A4 7E                 2265 	ld	a,(hl)
   07A5 B7                 2266 	or	a,a
   07A6 C2 C3 07           2267 	jp	nz,00102$
   07A9 18 03              2268 	jr	00119$
   07AB                    2269 00118$:
   07AB C3 C3 07           2270 	jp	00102$
   07AE                    2271 00119$:
                           2272 ;	battle/battle.c 346
                           2273 ;	genIpush
                           2274 ; _saveRegsForCall: sendSetSize: 0 deInUse: 0 bcInUse: 0 deSending: 0
   07AE 21 00 00           2275 	ld	hl,#_asakawa_front_idle
   07B1 E5                 2276 	push	hl
                           2277 ;	genIpush
   07B2 3E 08              2278 	ld	a,#0x08
   07B4 F5                 2279 	push	af
   07B5 33                 2280 	inc	sp
                           2281 ;	genIpush
   07B6 21 00 00           2282 	ld	hl,#_hero_back_idle
   07B9 E5                 2283 	push	hl
                           2284 ;	genIpush
   07BA 3E 08              2285 	ld	a,#0x08
   07BC F5                 2286 	push	af
   07BD 33                 2287 	inc	sp
                           2288 ;	genCall
   07BE CD 9D 0C           2289 	call	_sprite_setup
   07C1 E8 06              2290 	lda	sp,6(sp)
                           2291 ;	genLabel
   07C3                    2292 00102$:
                           2293 ;	battle/battle.c 347
                           2294 ;	genCmpEq
                           2295 ;	AOP_HL for _ENEMY
                           2296 ; genCmpEq: left 1, right 1, result 0
   07C3 21 10 00           2297 	ld	hl,#_ENEMY
   07C6 7E                 2298 	ld	a,(hl)
   07C7 FE 01              2299 	cp	a,#0x01
   07C9 C2 E6 07           2300 	jp	nz,00104$
   07CC 18 03              2301 	jr	00121$
   07CE                    2302 00120$:
   07CE C3 E6 07           2303 	jp	00104$
   07D1                    2304 00121$:
                           2305 ;	battle/battle.c 348
                           2306 ;	genIpush
                           2307 ; _saveRegsForCall: sendSetSize: 0 deInUse: 0 bcInUse: 0 deSending: 0
   07D1 21 00 00           2308 	ld	hl,#_norm_crab
   07D4 E5                 2309 	push	hl
                           2310 ;	genIpush
   07D5 3E 08              2311 	ld	a,#0x08
   07D7 F5                 2312 	push	af
   07D8 33                 2313 	inc	sp
                           2314 ;	genIpush
   07D9 21 00 00           2315 	ld	hl,#_hero_back_idle
   07DC E5                 2316 	push	hl
                           2317 ;	genIpush
   07DD 3E 08              2318 	ld	a,#0x08
   07DF F5                 2319 	push	af
   07E0 33                 2320 	inc	sp
                           2321 ;	genCall
   07E1 CD 9D 0C           2322 	call	_sprite_setup
   07E4 E8 06              2323 	lda	sp,6(sp)
                           2324 ;	genLabel
   07E6                    2325 00104$:
                           2326 ;	battle/battle.c 349
                           2327 ;	genCmpEq
                           2328 ;	AOP_HL for _ENEMY
                           2329 ; genCmpEq: left 1, right 1, result 0
   07E6 21 10 00           2330 	ld	hl,#_ENEMY
   07E9 7E                 2331 	ld	a,(hl)
   07EA FE 02              2332 	cp	a,#0x02
   07EC C2 09 08           2333 	jp	nz,00106$
   07EF 18 03              2334 	jr	00123$
   07F1                    2335 00122$:
   07F1 C3 09 08           2336 	jp	00106$
   07F4                    2337 00123$:
                           2338 ;	battle/battle.c 350
                           2339 ;	genIpush
                           2340 ; _saveRegsForCall: sendSetSize: 0 deInUse: 0 bcInUse: 0 deSending: 0
   07F4 21 00 00           2341 	ld	hl,#_king_crab
   07F7 E5                 2342 	push	hl
                           2343 ;	genIpush
   07F8 3E 08              2344 	ld	a,#0x08
   07FA F5                 2345 	push	af
   07FB 33                 2346 	inc	sp
                           2347 ;	genIpush
   07FC 21 00 00           2348 	ld	hl,#_hero_back_idle
   07FF E5                 2349 	push	hl
                           2350 ;	genIpush
   0800 3E 08              2351 	ld	a,#0x08
   0802 F5                 2352 	push	af
   0803 33                 2353 	inc	sp
                           2354 ;	genCall
   0804 CD 9D 0C           2355 	call	_sprite_setup
   0807 E8 06              2356 	lda	sp,6(sp)
                           2357 ;	genLabel
   0809                    2358 00106$:
                           2359 ;	battle/battle.c 351
                           2360 ;	genAssign
                           2361 ;	AOP_HL for _a
   0809 21 1E 00           2362 	ld	hl,#_a
   080C 36 00              2363 	ld	(hl),#0x00
                           2364 ;	genLabel
   080E                    2365 00107$:
                           2366 ;	genCmpLt
                           2367 ;	AOP_HL for _a
   080E 21 1E 00           2368 	ld	hl,#_a
   0811 7E                 2369 	ld	a,(hl)
   0812 FE 15              2370 	cp	#0x15
   0814 D2 C9 08           2371 	jp	nc,00110$
                           2372 ;	battle/battle.c 353
                           2373 ;	genIpush
                           2374 ; _saveRegsForCall: sendSetSize: 0 deInUse: 0 bcInUse: 0 deSending: 0
   0817 21 64 00           2375 	ld	hl,#0x0064
   081A E5                 2376 	push	hl
                           2377 ;	genCall
   081B CD 00 00           2378 	call	_delay
   081E E8 02              2379 	lda	sp,2(sp)
                           2380 ;	battle/battle.c 354
                           2381 ;	genAnd
                           2382 ;	AOP_HL for _a
   0820 21 1E 00           2383 	ld	hl,#_a
   0823 7E                 2384 	ld	a,(hl)
   0824 E6 04              2385 	and	a,#0x04
                           2386 ;	genPlus
                           2387 ;	genPlusIncr
                           2388 ;	Can't optimise plus by inc, falling back to the normal way
   0826 4F                 2389 	ld	c,a
   0827 C6 08              2390 	add	a,#0x08
   0829 47                 2391 	ld	b,a
                           2392 ;	genIpush
                           2393 ; _saveRegsForCall: sendSetSize: 0 deInUse: 0 bcInUse: 1 deSending: 0
   082A C5                 2394 	push	bc
   082B 78                 2395 	ld	a,b
   082C F5                 2396 	push	af
   082D 33                 2397 	inc	sp
                           2398 ;	genIpush
   082E 3E 04              2399 	ld	a,#0x04
   0830 F5                 2400 	push	af
   0831 33                 2401 	inc	sp
                           2402 ;	genCall
   0832 CD 00 00           2403 	call	_set_sprite_tile
   0835 E8 02              2404 	lda	sp,2(sp)
   0837 E1                 2405 	pop	hl
   0838 4D                 2406 	ld	c,l
                           2407 ;	battle/battle.c 355
                           2408 ;	genIpush
                           2409 ; _saveRegsForCall: sendSetSize: 0 deInUse: 0 bcInUse: 1 deSending: 0
   0839 C5                 2410 	push	bc
                           2411 ;	AOP_HL for _y
   083A 21 1C 00           2412 	ld	hl,#_y
   083D 7E                 2413 	ld	a,(hl)
   083E F5                 2414 	push	af
   083F 33                 2415 	inc	sp
                           2416 ;	genIpush
   0840 21 04 4D           2417 	ld	hl,#0x4D04
   0843 E5                 2418 	push	hl
                           2419 ;	genCall
   0844 CD 00 00           2420 	call	_move_sprite
   0847 E8 03              2421 	lda	sp,3(sp)
   0849 E1                 2422 	pop	hl
   084A 4D                 2423 	ld	c,l
                           2424 ;	battle/battle.c 356
                           2425 ;	genPlus
                           2426 ;	genPlusIncr
                           2427 ;	Can't optimise plus by inc, falling back to the normal way
   084B 79                 2428 	ld	a,c
   084C C6 09              2429 	add	a,#0x09
   084E 47                 2430 	ld	b,a
                           2431 ;	genIpush
                           2432 ; _saveRegsForCall: sendSetSize: 0 deInUse: 0 bcInUse: 1 deSending: 0
   084F C5                 2433 	push	bc
   0850 78                 2434 	ld	a,b
   0851 F5                 2435 	push	af
   0852 33                 2436 	inc	sp
                           2437 ;	genIpush
   0853 3E 05              2438 	ld	a,#0x05
   0855 F5                 2439 	push	af
   0856 33                 2440 	inc	sp
                           2441 ;	genCall
   0857 CD 00 00           2442 	call	_set_sprite_tile
   085A E8 02              2443 	lda	sp,2(sp)
   085C E1                 2444 	pop	hl
   085D 4D                 2445 	ld	c,l
                           2446 ;	battle/battle.c 357
                           2447 ;	genPlus
                           2448 ;	AOP_HL for _y
                           2449 ;	genPlusIncr
                           2450 ;	Can't optimise plus by inc, falling back to the normal way
   085E 21 1C 00           2451 	ld	hl,#_y
   0861 7E                 2452 	ld	a,(hl)
   0862 C6 08              2453 	add	a,#0x08
   0864 47                 2454 	ld	b,a
                           2455 ;	genIpush
                           2456 ; _saveRegsForCall: sendSetSize: 0 deInUse: 0 bcInUse: 1 deSending: 0
   0865 C5                 2457 	push	bc
   0866 78                 2458 	ld	a,b
   0867 F5                 2459 	push	af
   0868 33                 2460 	inc	sp
                           2461 ;	genIpush
   0869 21 05 4D           2462 	ld	hl,#0x4D05
   086C E5                 2463 	push	hl
                           2464 ;	genCall
   086D CD 00 00           2465 	call	_move_sprite
   0870 E8 03              2466 	lda	sp,3(sp)
   0872 C1                 2467 	pop	bc
                           2468 ;	battle/battle.c 358
                           2469 ;	genPlus
                           2470 ;	AOP_STK for _hero_defend_anim_sloc0_1_0
                           2471 ;	genPlusIncr
                           2472 ;	Can't optimise plus by inc, falling back to the normal way
   0873 79                 2473 	ld	a,c
   0874 C6 0A              2474 	add	a,#0x0A
   0876 F8 00              2475 	lda	hl,0(sp)
   0878 77                 2476 	ld	(hl),a
                           2477 ;	genIpush
                           2478 ; _saveRegsForCall: sendSetSize: 0 deInUse: 0 bcInUse: 1 deSending: 0
   0879 C5                 2479 	push	bc
                           2480 ;	AOP_STK for _hero_defend_anim_sloc0_1_0
   087A 7E                 2481 	ld	a,(hl)
   087B F5                 2482 	push	af
   087C 33                 2483 	inc	sp
                           2484 ;	genIpush
   087D 3E 06              2485 	ld	a,#0x06
   087F F5                 2486 	push	af
   0880 33                 2487 	inc	sp
                           2488 ;	genCall
   0881 CD 00 00           2489 	call	_set_sprite_tile
   0884 E8 02              2490 	lda	sp,2(sp)
   0886 C1                 2491 	pop	bc
                           2492 ;	battle/battle.c 359
                           2493 ;	genIpush
                           2494 ; _saveRegsForCall: sendSetSize: 0 deInUse: 0 bcInUse: 1 deSending: 0
   0887 C5                 2495 	push	bc
                           2496 ;	AOP_HL for _y
   0888 21 1C 00           2497 	ld	hl,#_y
   088B 7E                 2498 	ld	a,(hl)
   088C F5                 2499 	push	af
   088D 33                 2500 	inc	sp
                           2501 ;	genIpush
   088E 21 06 54           2502 	ld	hl,#0x5406
   0891 E5                 2503 	push	hl
                           2504 ;	genCall
   0892 CD 00 00           2505 	call	_move_sprite
   0895 E8 03              2506 	lda	sp,3(sp)
   0897 C1                 2507 	pop	bc
                           2508 ;	battle/battle.c 360
                           2509 ;	genPlus
                           2510 ;	genPlusIncr
                           2511 ;	Can't optimise plus by inc, falling back to the normal way
   0898 79                 2512 	ld	a,c
   0899 C6 0B              2513 	add	a,#0x0B
   089B 4F                 2514 	ld	c,a
                           2515 ;	genIpush
                           2516 ; _saveRegsForCall: sendSetSize: 0 deInUse: 0 bcInUse: 1 deSending: 0
   089C C5                 2517 	push	bc
   089D 79                 2518 	ld	a,c
   089E F5                 2519 	push	af
   089F 33                 2520 	inc	sp
                           2521 ;	genIpush
   08A0 3E 07              2522 	ld	a,#0x07
   08A2 F5                 2523 	push	af
   08A3 33                 2524 	inc	sp
                           2525 ;	genCall
   08A4 CD 00 00           2526 	call	_set_sprite_tile
   08A7 E8 02              2527 	lda	sp,2(sp)
   08A9 E1                 2528 	pop	hl
   08AA 44                 2529 	ld	b,h
                           2530 ;	battle/battle.c 361
                           2531 ;	genIpush
                           2532 ; _saveRegsForCall: sendSetSize: 0 deInUse: 0 bcInUse: 0 deSending: 0
   08AB 78                 2533 	ld	a,b
   08AC F5                 2534 	push	af
   08AD 33                 2535 	inc	sp
                           2536 ;	genIpush
   08AE 21 07 54           2537 	ld	hl,#0x5407
   08B1 E5                 2538 	push	hl
                           2539 ;	genCall
   08B2 CD 00 00           2540 	call	_move_sprite
   08B5 E8 03              2541 	lda	sp,3(sp)
                           2542 ;	battle/battle.c 362
                           2543 ;	genIpush
                           2544 ; _saveRegsForCall: sendSetSize: 0 deInUse: 0 bcInUse: 0 deSending: 0
   08B7 21 64 00           2545 	ld	hl,#0x0064
   08BA E5                 2546 	push	hl
                           2547 ;	genCall
   08BB CD 00 00           2548 	call	_delay
   08BE E8 02              2549 	lda	sp,2(sp)
                           2550 ;	battle/battle.c 351
                           2551 ;	genPlus
                           2552 ;	AOP_HL for _a
                           2553 ;	genPlusIncr
   08C0 21 1E 00           2554 	ld	hl,#_a
   08C3 34                 2555 	inc	(hl)
   08C4 34                 2556 	inc	(hl)
   08C5 34                 2557 	inc	(hl)
                           2558 ;	genGoto
   08C6 C3 0E 08           2559 	jp	00107$
                           2560 ;	genLabel
   08C9                    2561 00110$:
                           2562 ;	battle/battle.c 364
                           2563 ;	genAssign
                           2564 ;	AOP_HL for _y
   08C9 21 1C 00           2565 	ld	hl,#_y
   08CC 36 48              2566 	ld	(hl),#0x48
                           2567 ;	genLabel
   08CE                    2568 00111$:
                           2569 ;	genEndFunction
   08CE E8 01              2570 	lda	sp,1(sp)
   08D0 C9                 2571 	ret
   08D1                    2572 ___hero_defend_anim_end:
                           2573 ;	battle/battle.c 367
                           2574 ;	genLabel
                           2575 ;	genFunction
                           2576 ;	---------------------------------
                           2577 ; Function enemy_defend_anim
                           2578 ; ---------------------------------
   08D1                    2579 ___enemy_defend_anim_start:
   08D1                    2580 _enemy_defend_anim:
   08D1 E8 FF              2581 	lda	sp,-1(sp)
                           2582 ;	battle/battle.c 370
                           2583 ;	genIpush
                           2584 ; _saveRegsForCall: sendSetSize: 0 deInUse: 0 bcInUse: 0 deSending: 0
   08D3 21 00 00           2585 	ld	hl,#0x0000
   08D6 E5                 2586 	push	hl
                           2587 ;	genCall
   08D7 CD 00 00           2588 	call	_set_sprite_tile
   08DA E8 02              2589 	lda	sp,2(sp)
                           2590 ;	battle/battle.c 371
                           2591 ;	genIpush
                           2592 ; _saveRegsForCall: sendSetSize: 0 deInUse: 0 bcInUse: 0 deSending: 0
   08DC 21 01 01           2593 	ld	hl,#0x0101
   08DF E5                 2594 	push	hl
                           2595 ;	genCall
   08E0 CD 00 00           2596 	call	_set_sprite_tile
   08E3 E8 02              2597 	lda	sp,2(sp)
                           2598 ;	battle/battle.c 372
                           2599 ;	genIpush
                           2600 ; _saveRegsForCall: sendSetSize: 0 deInUse: 0 bcInUse: 0 deSending: 0
   08E5 21 02 02           2601 	ld	hl,#0x0202
   08E8 E5                 2602 	push	hl
                           2603 ;	genCall
   08E9 CD 00 00           2604 	call	_set_sprite_tile
   08EC E8 02              2605 	lda	sp,2(sp)
                           2606 ;	battle/battle.c 373
                           2607 ;	genIpush
                           2608 ; _saveRegsForCall: sendSetSize: 0 deInUse: 0 bcInUse: 0 deSending: 0
   08EE 21 03 03           2609 	ld	hl,#0x0303
   08F1 E5                 2610 	push	hl
                           2611 ;	genCall
   08F2 CD 00 00           2612 	call	_set_sprite_tile
   08F5 E8 02              2613 	lda	sp,2(sp)
                           2614 ;	battle/battle.c 375
                           2615 ;	genIpush
                           2616 ; _saveRegsForCall: sendSetSize: 0 deInUse: 0 bcInUse: 0 deSending: 0
   08F7 21 4D 28           2617 	ld	hl,#0x284D
   08FA E5                 2618 	push	hl
                           2619 ;	genIpush
   08FB 3E 00              2620 	ld	a,#0x00
   08FD F5                 2621 	push	af
   08FE 33                 2622 	inc	sp
                           2623 ;	genCall
   08FF CD 00 00           2624 	call	_move_sprite
   0902 E8 03              2625 	lda	sp,3(sp)
                           2626 ;	battle/battle.c 376
                           2627 ;	genIpush
                           2628 ; _saveRegsForCall: sendSetSize: 0 deInUse: 0 bcInUse: 0 deSending: 0
   0904 21 4D 30           2629 	ld	hl,#0x304D
   0907 E5                 2630 	push	hl
                           2631 ;	genIpush
   0908 3E 01              2632 	ld	a,#0x01
   090A F5                 2633 	push	af
   090B 33                 2634 	inc	sp
                           2635 ;	genCall
   090C CD 00 00           2636 	call	_move_sprite
   090F E8 03              2637 	lda	sp,3(sp)
                           2638 ;	battle/battle.c 377
                           2639 ;	genIpush
                           2640 ; _saveRegsForCall: sendSetSize: 0 deInUse: 0 bcInUse: 0 deSending: 0
   0911 21 54 28           2641 	ld	hl,#0x2854
   0914 E5                 2642 	push	hl
                           2643 ;	genIpush
   0915 3E 02              2644 	ld	a,#0x02
   0917 F5                 2645 	push	af
   0918 33                 2646 	inc	sp
                           2647 ;	genCall
   0919 CD 00 00           2648 	call	_move_sprite
   091C E8 03              2649 	lda	sp,3(sp)
                           2650 ;	battle/battle.c 378
                           2651 ;	genIpush
                           2652 ; _saveRegsForCall: sendSetSize: 0 deInUse: 0 bcInUse: 0 deSending: 0
   091E 21 54 30           2653 	ld	hl,#0x3054
   0921 E5                 2654 	push	hl
                           2655 ;	genIpush
   0922 3E 03              2656 	ld	a,#0x03
   0924 F5                 2657 	push	af
   0925 33                 2658 	inc	sp
                           2659 ;	genCall
   0926 CD 00 00           2660 	call	_move_sprite
   0929 E8 03              2661 	lda	sp,3(sp)
                           2662 ;	battle/battle.c 379
                           2663 ;	genIpush
                           2664 ; _saveRegsForCall: sendSetSize: 0 deInUse: 0 bcInUse: 0 deSending: 0
   092B 21 00 00           2665 	ld	hl,#_asakawa_front_idle
   092E E5                 2666 	push	hl
                           2667 ;	genIpush
   092F 3E 08              2668 	ld	a,#0x08
   0931 F5                 2669 	push	af
   0932 33                 2670 	inc	sp
                           2671 ;	genIpush
   0933 21 00 00           2672 	ld	hl,#_hero_back_idle
   0936 E5                 2673 	push	hl
                           2674 ;	genIpush
   0937 3E 08              2675 	ld	a,#0x08
   0939 F5                 2676 	push	af
   093A 33                 2677 	inc	sp
                           2678 ;	genCall
   093B CD 9D 0C           2679 	call	_sprite_setup
   093E E8 06              2680 	lda	sp,6(sp)
                           2681 ;	battle/battle.c 380
                           2682 ;	genAssign
                           2683 ;	AOP_HL for _a
   0940 21 1E 00           2684 	ld	hl,#_a
   0943 36 00              2685 	ld	(hl),#0x00
                           2686 ;	genLabel
   0945                    2687 00101$:
                           2688 ;	genCmpLt
                           2689 ;	AOP_HL for _a
   0945 21 1E 00           2690 	ld	hl,#_a
   0948 7E                 2691 	ld	a,(hl)
   0949 FE 15              2692 	cp	#0x15
   094B D2 FA 09           2693 	jp	nc,00104$
                           2694 ;	battle/battle.c 382
                           2695 ;	genIpush
                           2696 ; _saveRegsForCall: sendSetSize: 0 deInUse: 0 bcInUse: 0 deSending: 0
   094E 21 64 00           2697 	ld	hl,#0x0064
   0951 E5                 2698 	push	hl
                           2699 ;	genCall
   0952 CD 00 00           2700 	call	_delay
   0955 E8 02              2701 	lda	sp,2(sp)
                           2702 ;	battle/battle.c 383
                           2703 ;	genAnd
                           2704 ;	AOP_HL for _a
   0957 21 1E 00           2705 	ld	hl,#_a
   095A 7E                 2706 	ld	a,(hl)
   095B E6 04              2707 	and	a,#0x04
   095D 4F                 2708 	ld	c,a
                           2709 ;	genIpush
                           2710 ; _saveRegsForCall: sendSetSize: 0 deInUse: 0 bcInUse: 1 deSending: 0
   095E C5                 2711 	push	bc
   095F 79                 2712 	ld	a,c
   0960 F5                 2713 	push	af
   0961 33                 2714 	inc	sp
                           2715 ;	genIpush
   0962 3E 00              2716 	ld	a,#0x00
   0964 F5                 2717 	push	af
   0965 33                 2718 	inc	sp
                           2719 ;	genCall
   0966 CD 00 00           2720 	call	_set_sprite_tile
   0969 E8 02              2721 	lda	sp,2(sp)
   096B E1                 2722 	pop	hl
   096C 4D                 2723 	ld	c,l
                           2724 ;	battle/battle.c 384
                           2725 ;	genIpush
                           2726 ; _saveRegsForCall: sendSetSize: 0 deInUse: 0 bcInUse: 1 deSending: 0
   096D C5                 2727 	push	bc
                           2728 ;	AOP_HL for _y
   096E 21 1C 00           2729 	ld	hl,#_y
   0971 7E                 2730 	ld	a,(hl)
   0972 F5                 2731 	push	af
   0973 33                 2732 	inc	sp
                           2733 ;	genIpush
   0974 21 00 4D           2734 	ld	hl,#0x4D00
   0977 E5                 2735 	push	hl
                           2736 ;	genCall
   0978 CD 00 00           2737 	call	_move_sprite
   097B E8 03              2738 	lda	sp,3(sp)
   097D E1                 2739 	pop	hl
   097E 4D                 2740 	ld	c,l
                           2741 ;	battle/battle.c 385
                           2742 ;	genPlus
                           2743 ;	genPlusIncr
   097F 41                 2744 	ld	b,c
   0980 04                 2745 	inc	b
                           2746 ;	genIpush
                           2747 ; _saveRegsForCall: sendSetSize: 0 deInUse: 0 bcInUse: 1 deSending: 0
   0981 C5                 2748 	push	bc
   0982 78                 2749 	ld	a,b
   0983 F5                 2750 	push	af
   0984 33                 2751 	inc	sp
                           2752 ;	genIpush
   0985 3E 01              2753 	ld	a,#0x01
   0987 F5                 2754 	push	af
   0988 33                 2755 	inc	sp
                           2756 ;	genCall
   0989 CD 00 00           2757 	call	_set_sprite_tile
   098C E8 02              2758 	lda	sp,2(sp)
   098E E1                 2759 	pop	hl
   098F 4D                 2760 	ld	c,l
                           2761 ;	battle/battle.c 386
                           2762 ;	genPlus
                           2763 ;	AOP_HL for _y
                           2764 ;	genPlusIncr
                           2765 ;	Can't optimise plus by inc, falling back to the normal way
   0990 21 1C 00           2766 	ld	hl,#_y
   0993 7E                 2767 	ld	a,(hl)
   0994 C6 08              2768 	add	a,#0x08
   0996 47                 2769 	ld	b,a
                           2770 ;	genIpush
                           2771 ; _saveRegsForCall: sendSetSize: 0 deInUse: 0 bcInUse: 1 deSending: 0
   0997 C5                 2772 	push	bc
   0998 78                 2773 	ld	a,b
   0999 F5                 2774 	push	af
   099A 33                 2775 	inc	sp
                           2776 ;	genIpush
   099B 21 01 4D           2777 	ld	hl,#0x4D01
   099E E5                 2778 	push	hl
                           2779 ;	genCall
   099F CD 00 00           2780 	call	_move_sprite
   09A2 E8 03              2781 	lda	sp,3(sp)
   09A4 C1                 2782 	pop	bc
                           2783 ;	battle/battle.c 387
                           2784 ;	genPlus
                           2785 ;	AOP_STK for _enemy_defend_anim_sloc0_1_0
                           2786 ;	genPlusIncr
                           2787 ;	Can't optimise plus by inc, falling back to the normal way
   09A5 79                 2788 	ld	a,c
   09A6 C6 02              2789 	add	a,#0x02
   09A8 F8 00              2790 	lda	hl,0(sp)
   09AA 77                 2791 	ld	(hl),a
                           2792 ;	genIpush
                           2793 ; _saveRegsForCall: sendSetSize: 0 deInUse: 0 bcInUse: 1 deSending: 0
   09AB C5                 2794 	push	bc
                           2795 ;	AOP_STK for _enemy_defend_anim_sloc0_1_0
   09AC 7E                 2796 	ld	a,(hl)
   09AD F5                 2797 	push	af
   09AE 33                 2798 	inc	sp
                           2799 ;	genIpush
   09AF 3E 02              2800 	ld	a,#0x02
   09B1 F5                 2801 	push	af
   09B2 33                 2802 	inc	sp
                           2803 ;	genCall
   09B3 CD 00 00           2804 	call	_set_sprite_tile
   09B6 E8 02              2805 	lda	sp,2(sp)
   09B8 C1                 2806 	pop	bc
                           2807 ;	battle/battle.c 388
                           2808 ;	genIpush
                           2809 ; _saveRegsForCall: sendSetSize: 0 deInUse: 0 bcInUse: 1 deSending: 0
   09B9 C5                 2810 	push	bc
                           2811 ;	AOP_HL for _y
   09BA 21 1C 00           2812 	ld	hl,#_y
   09BD 7E                 2813 	ld	a,(hl)
   09BE F5                 2814 	push	af
   09BF 33                 2815 	inc	sp
                           2816 ;	genIpush
   09C0 21 02 54           2817 	ld	hl,#0x5402
   09C3 E5                 2818 	push	hl
                           2819 ;	genCall
   09C4 CD 00 00           2820 	call	_move_sprite
   09C7 E8 03              2821 	lda	sp,3(sp)
   09C9 C1                 2822 	pop	bc
                           2823 ;	battle/battle.c 389
                           2824 ;	genPlus
                           2825 ;	genPlusIncr
                           2826 ; Removed redundent load
   09CA 0C                 2827 	inc	c
   09CB 0C                 2828 	inc	c
   09CC 0C                 2829 	inc	c
                           2830 ;	genIpush
                           2831 ; _saveRegsForCall: sendSetSize: 0 deInUse: 0 bcInUse: 1 deSending: 0
   09CD C5                 2832 	push	bc
   09CE 79                 2833 	ld	a,c
   09CF F5                 2834 	push	af
   09D0 33                 2835 	inc	sp
                           2836 ;	genIpush
   09D1 3E 03              2837 	ld	a,#0x03
   09D3 F5                 2838 	push	af
   09D4 33                 2839 	inc	sp
                           2840 ;	genCall
   09D5 CD 00 00           2841 	call	_set_sprite_tile
   09D8 E8 02              2842 	lda	sp,2(sp)
   09DA E1                 2843 	pop	hl
   09DB 44                 2844 	ld	b,h
                           2845 ;	battle/battle.c 390
                           2846 ;	genIpush
                           2847 ; _saveRegsForCall: sendSetSize: 0 deInUse: 0 bcInUse: 0 deSending: 0
   09DC 78                 2848 	ld	a,b
   09DD F5                 2849 	push	af
   09DE 33                 2850 	inc	sp
                           2851 ;	genIpush
   09DF 21 03 54           2852 	ld	hl,#0x5403
   09E2 E5                 2853 	push	hl
                           2854 ;	genCall
   09E3 CD 00 00           2855 	call	_move_sprite
   09E6 E8 03              2856 	lda	sp,3(sp)
                           2857 ;	battle/battle.c 391
                           2858 ;	genIpush
                           2859 ; _saveRegsForCall: sendSetSize: 0 deInUse: 0 bcInUse: 0 deSending: 0
   09E8 21 64 00           2860 	ld	hl,#0x0064
   09EB E5                 2861 	push	hl
                           2862 ;	genCall
   09EC CD 00 00           2863 	call	_delay
   09EF E8 02              2864 	lda	sp,2(sp)
                           2865 ;	battle/battle.c 380
                           2866 ;	genPlus
                           2867 ;	AOP_HL for _a
                           2868 ;	genPlusIncr
   09F1 21 1E 00           2869 	ld	hl,#_a
   09F4 34                 2870 	inc	(hl)
   09F5 34                 2871 	inc	(hl)
   09F6 34                 2872 	inc	(hl)
                           2873 ;	genGoto
   09F7 C3 45 09           2874 	jp	00101$
                           2875 ;	genLabel
   09FA                    2876 00104$:
                           2877 ;	battle/battle.c 393
                           2878 ;	genAssign
                           2879 ;	AOP_HL for _enemy_y
   09FA 21 1D 00           2880 	ld	hl,#_enemy_y
   09FD 36 28              2881 	ld	(hl),#0x28
                           2882 ;	genLabel
   09FF                    2883 00105$:
                           2884 ;	genEndFunction
   09FF E8 01              2885 	lda	sp,1(sp)
   0A01 C9                 2886 	ret
   0A02                    2887 ___enemy_defend_anim_end:
                           2888 ;	battle/battle.c 396
                           2889 ;	genLabel
                           2890 ;	genFunction
                           2891 ;	---------------------------------
                           2892 ; Function hero_fight_anim
                           2893 ; ---------------------------------
   0A02                    2894 ___hero_fight_anim_start:
   0A02                    2895 _hero_fight_anim:
                           2896 	
                           2897 ;	battle/battle.c 398
                           2898 ;	genCmpEq
                           2899 ;	AOP_HL for _ENEMY
                           2900 ; genCmpEq: left 1, right 1, result 0
   0A02 21 10 00           2901 	ld	hl,#_ENEMY
   0A05 7E                 2902 	ld	a,(hl)
   0A06 B7                 2903 	or	a,a
   0A07 C2 24 0A           2904 	jp	nz,00102$
   0A0A 18 03              2905 	jr	00125$
   0A0C                    2906 00124$:
   0A0C C3 24 0A           2907 	jp	00102$
   0A0F                    2908 00125$:
                           2909 ;	battle/battle.c 399
                           2910 ;	genIpush
                           2911 ; _saveRegsForCall: sendSetSize: 0 deInUse: 0 bcInUse: 0 deSending: 0
   0A0F 21 00 00           2912 	ld	hl,#_asakawa_front_idle
   0A12 E5                 2913 	push	hl
                           2914 ;	genIpush
   0A13 3E 08              2915 	ld	a,#0x08
   0A15 F5                 2916 	push	af
   0A16 33                 2917 	inc	sp
                           2918 ;	genIpush
   0A17 21 00 00           2919 	ld	hl,#_hero_back_idle
   0A1A E5                 2920 	push	hl
                           2921 ;	genIpush
   0A1B 3E 08              2922 	ld	a,#0x08
   0A1D F5                 2923 	push	af
   0A1E 33                 2924 	inc	sp
                           2925 ;	genCall
   0A1F CD 9D 0C           2926 	call	_sprite_setup
   0A22 E8 06              2927 	lda	sp,6(sp)
                           2928 ;	genLabel
   0A24                    2929 00102$:
                           2930 ;	battle/battle.c 400
                           2931 ;	genCmpEq
                           2932 ;	AOP_HL for _ENEMY
                           2933 ; genCmpEq: left 1, right 1, result 0
   0A24 21 10 00           2934 	ld	hl,#_ENEMY
   0A27 7E                 2935 	ld	a,(hl)
   0A28 FE 01              2936 	cp	a,#0x01
   0A2A C2 47 0A           2937 	jp	nz,00104$
   0A2D 18 03              2938 	jr	00127$
   0A2F                    2939 00126$:
   0A2F C3 47 0A           2940 	jp	00104$
   0A32                    2941 00127$:
                           2942 ;	battle/battle.c 401
                           2943 ;	genIpush
                           2944 ; _saveRegsForCall: sendSetSize: 0 deInUse: 0 bcInUse: 0 deSending: 0
   0A32 21 00 00           2945 	ld	hl,#_norm_crab
   0A35 E5                 2946 	push	hl
                           2947 ;	genIpush
   0A36 3E 08              2948 	ld	a,#0x08
   0A38 F5                 2949 	push	af
   0A39 33                 2950 	inc	sp
                           2951 ;	genIpush
   0A3A 21 00 00           2952 	ld	hl,#_hero_back_idle
   0A3D E5                 2953 	push	hl
                           2954 ;	genIpush
   0A3E 3E 08              2955 	ld	a,#0x08
   0A40 F5                 2956 	push	af
   0A41 33                 2957 	inc	sp
                           2958 ;	genCall
   0A42 CD 9D 0C           2959 	call	_sprite_setup
   0A45 E8 06              2960 	lda	sp,6(sp)
                           2961 ;	genLabel
   0A47                    2962 00104$:
                           2963 ;	battle/battle.c 402
                           2964 ;	genCmpEq
                           2965 ;	AOP_HL for _ENEMY
                           2966 ; genCmpEq: left 1, right 1, result 0
   0A47 21 10 00           2967 	ld	hl,#_ENEMY
   0A4A 7E                 2968 	ld	a,(hl)
   0A4B FE 02              2969 	cp	a,#0x02
   0A4D C2 6A 0A           2970 	jp	nz,00106$
   0A50 18 03              2971 	jr	00129$
   0A52                    2972 00128$:
   0A52 C3 6A 0A           2973 	jp	00106$
   0A55                    2974 00129$:
                           2975 ;	battle/battle.c 403
                           2976 ;	genIpush
                           2977 ; _saveRegsForCall: sendSetSize: 0 deInUse: 0 bcInUse: 0 deSending: 0
   0A55 21 00 00           2978 	ld	hl,#_king_crab
   0A58 E5                 2979 	push	hl
                           2980 ;	genIpush
   0A59 3E 08              2981 	ld	a,#0x08
   0A5B F5                 2982 	push	af
   0A5C 33                 2983 	inc	sp
                           2984 ;	genIpush
   0A5D 21 00 00           2985 	ld	hl,#_hero_back_idle
   0A60 E5                 2986 	push	hl
                           2987 ;	genIpush
   0A61 3E 08              2988 	ld	a,#0x08
   0A63 F5                 2989 	push	af
   0A64 33                 2990 	inc	sp
                           2991 ;	genCall
   0A65 CD 9D 0C           2992 	call	_sprite_setup
   0A68 E8 06              2993 	lda	sp,6(sp)
                           2994 ;	genLabel
   0A6A                    2995 00106$:
                           2996 ;	battle/battle.c 404
                           2997 ;	genIpush
                           2998 ; _saveRegsForCall: sendSetSize: 0 deInUse: 0 bcInUse: 0 deSending: 0
   0A6A 21 2C 01           2999 	ld	hl,#0x012C
   0A6D E5                 3000 	push	hl
                           3001 ;	genCall
   0A6E CD 00 00           3002 	call	_delay
   0A71 E8 02              3003 	lda	sp,2(sp)
                           3004 ;	battle/battle.c 406
                           3005 ;	genAssign
                           3006 ;	AOP_HL for _i
   0A73 21 00 00           3007 	ld	hl,#_i
   0A76 36 04              3008 	ld	(hl),#0x04
                           3009 ;	genLabel
   0A78                    3010 00107$:
                           3011 ;	genCmpLt
                           3012 ;	AOP_HL for _i
   0A78 21 00 00           3013 	ld	hl,#_i
   0A7B 7E                 3014 	ld	a,(hl)
   0A7C FE 08              3015 	cp	#0x08
   0A7E D2 97 0A           3016 	jp	nc,00110$
                           3017 ;	battle/battle.c 407
                           3018 ;	genIpush
                           3019 ; _saveRegsForCall: sendSetSize: 0 deInUse: 0 bcInUse: 0 deSending: 0
   0A81 21 C8 C8           3020 	ld	hl,#0xC8C8
   0A84 E5                 3021 	push	hl
                           3022 ;	genIpush
                           3023 ;	AOP_HL for _i
   0A85 21 00 00           3024 	ld	hl,#_i
   0A88 7E                 3025 	ld	a,(hl)
   0A89 F5                 3026 	push	af
   0A8A 33                 3027 	inc	sp
                           3028 ;	genCall
   0A8B CD 00 00           3029 	call	_move_sprite
   0A8E E8 03              3030 	lda	sp,3(sp)
                           3031 ;	battle/battle.c 406
                           3032 ;	genPlus
                           3033 ;	AOP_HL for _i
                           3034 ;	genPlusIncr
   0A90 21 00 00           3035 	ld	hl,#_i
   0A93 34                 3036 	inc	(hl)
                           3037 ;	genGoto
   0A94 C3 78 0A           3038 	jp	00107$
                           3039 ;	genLabel
   0A97                    3040 00110$:
                           3041 ;	battle/battle.c 409
                           3042 ;	genIpush
                           3043 ; _saveRegsForCall: sendSetSize: 0 deInUse: 0 bcInUse: 0 deSending: 0
   0A97 21 2C 01           3044 	ld	hl,#0x012C
   0A9A E5                 3045 	push	hl
                           3046 ;	genCall
   0A9B CD 00 00           3047 	call	_delay
   0A9E E8 02              3048 	lda	sp,2(sp)
                           3049 ;	battle/battle.c 410
                           3050 ;	genIpush
                           3051 ; _saveRegsForCall: sendSetSize: 0 deInUse: 0 bcInUse: 0 deSending: 0
   0AA0 21 4D 3A           3052 	ld	hl,#0x3A4D
   0AA3 E5                 3053 	push	hl
                           3054 ;	genIpush
   0AA4 3E 04              3055 	ld	a,#0x04
   0AA6 F5                 3056 	push	af
   0AA7 33                 3057 	inc	sp
                           3058 ;	genCall
   0AA8 CD 00 00           3059 	call	_move_sprite
   0AAB E8 03              3060 	lda	sp,3(sp)
                           3061 ;	battle/battle.c 411
                           3062 ;	genIpush
                           3063 ; _saveRegsForCall: sendSetSize: 0 deInUse: 0 bcInUse: 0 deSending: 0
   0AAD 21 4D 42           3064 	ld	hl,#0x424D
   0AB0 E5                 3065 	push	hl
                           3066 ;	genIpush
   0AB1 3E 05              3067 	ld	a,#0x05
   0AB3 F5                 3068 	push	af
   0AB4 33                 3069 	inc	sp
                           3070 ;	genCall
   0AB5 CD 00 00           3071 	call	_move_sprite
   0AB8 E8 03              3072 	lda	sp,3(sp)
                           3073 ;	battle/battle.c 412
                           3074 ;	genIpush
                           3075 ; _saveRegsForCall: sendSetSize: 0 deInUse: 0 bcInUse: 0 deSending: 0
   0ABA 21 54 3A           3076 	ld	hl,#0x3A54
   0ABD E5                 3077 	push	hl
                           3078 ;	genIpush
   0ABE 3E 06              3079 	ld	a,#0x06
   0AC0 F5                 3080 	push	af
   0AC1 33                 3081 	inc	sp
                           3082 ;	genCall
   0AC2 CD 00 00           3083 	call	_move_sprite
   0AC5 E8 03              3084 	lda	sp,3(sp)
                           3085 ;	battle/battle.c 413
                           3086 ;	genIpush
                           3087 ; _saveRegsForCall: sendSetSize: 0 deInUse: 0 bcInUse: 0 deSending: 0
   0AC7 21 54 42           3088 	ld	hl,#0x4254
   0ACA E5                 3089 	push	hl
                           3090 ;	genIpush
   0ACB 3E 07              3091 	ld	a,#0x07
   0ACD F5                 3092 	push	af
   0ACE 33                 3093 	inc	sp
                           3094 ;	genCall
   0ACF CD 00 00           3095 	call	_move_sprite
   0AD2 E8 03              3096 	lda	sp,3(sp)
                           3097 ;	battle/battle.c 414
                           3098 ;	genAssign
                           3099 ;	AOP_HL for _a
   0AD4 21 1E 00           3100 	ld	hl,#_a
   0AD7 36 00              3101 	ld	(hl),#0x00
                           3102 ;	genLabel
   0AD9                    3103 00111$:
                           3104 ;	genCmpLt
                           3105 ;	AOP_HL for _a
   0AD9 21 1E 00           3106 	ld	hl,#_a
   0ADC 7E                 3107 	ld	a,(hl)
   0ADD FE 15              3108 	cp	#0x15
   0ADF D2 42 0B           3109 	jp	nc,00115$
                           3110 ;	battle/battle.c 416
                           3111 ;	genIpush
                           3112 ; _saveRegsForCall: sendSetSize: 0 deInUse: 0 bcInUse: 0 deSending: 0
   0AE2 21 64 00           3113 	ld	hl,#0x0064
   0AE5 E5                 3114 	push	hl
                           3115 ;	genCall
   0AE6 CD 00 00           3116 	call	_delay
   0AE9 E8 02              3117 	lda	sp,2(sp)
                           3118 ;	battle/battle.c 417
                           3119 ;	genAnd
                           3120 ;	AOP_HL for _a
   0AEB 21 1E 00           3121 	ld	hl,#_a
   0AEE 7E                 3122 	ld	a,(hl)
   0AEF E6 04              3123 	and	a,#0x04
                           3124 ;	genPlus
                           3125 ;	genPlusIncr
                           3126 ;	Can't optimise plus by inc, falling back to the normal way
   0AF1 4F                 3127 	ld	c,a
   0AF2 C6 08              3128 	add	a,#0x08
   0AF4 47                 3129 	ld	b,a
                           3130 ;	genIpush
                           3131 ; _saveRegsForCall: sendSetSize: 0 deInUse: 0 bcInUse: 1 deSending: 0
   0AF5 C5                 3132 	push	bc
   0AF6 78                 3133 	ld	a,b
   0AF7 F5                 3134 	push	af
   0AF8 33                 3135 	inc	sp
                           3136 ;	genIpush
   0AF9 3E 04              3137 	ld	a,#0x04
   0AFB F5                 3138 	push	af
   0AFC 33                 3139 	inc	sp
                           3140 ;	genCall
   0AFD CD 00 00           3141 	call	_set_sprite_tile
   0B00 E8 02              3142 	lda	sp,2(sp)
   0B02 E1                 3143 	pop	hl
   0B03 4D                 3144 	ld	c,l
                           3145 ;	battle/battle.c 418
                           3146 ;	genPlus
                           3147 ;	genPlusIncr
                           3148 ;	Can't optimise plus by inc, falling back to the normal way
   0B04 79                 3149 	ld	a,c
   0B05 C6 09              3150 	add	a,#0x09
   0B07 47                 3151 	ld	b,a
                           3152 ;	genIpush
                           3153 ; _saveRegsForCall: sendSetSize: 0 deInUse: 0 bcInUse: 1 deSending: 0
   0B08 C5                 3154 	push	bc
   0B09 78                 3155 	ld	a,b
   0B0A F5                 3156 	push	af
   0B0B 33                 3157 	inc	sp
                           3158 ;	genIpush
   0B0C 3E 05              3159 	ld	a,#0x05
   0B0E F5                 3160 	push	af
   0B0F 33                 3161 	inc	sp
                           3162 ;	genCall
   0B10 CD 00 00           3163 	call	_set_sprite_tile
   0B13 E8 02              3164 	lda	sp,2(sp)
   0B15 E1                 3165 	pop	hl
   0B16 4D                 3166 	ld	c,l
                           3167 ;	battle/battle.c 419
                           3168 ;	genPlus
                           3169 ;	genPlusIncr
                           3170 ;	Can't optimise plus by inc, falling back to the normal way
   0B17 79                 3171 	ld	a,c
   0B18 C6 0A              3172 	add	a,#0x0A
   0B1A 47                 3173 	ld	b,a
                           3174 ;	genIpush
                           3175 ; _saveRegsForCall: sendSetSize: 0 deInUse: 0 bcInUse: 1 deSending: 0
   0B1B C5                 3176 	push	bc
   0B1C 78                 3177 	ld	a,b
   0B1D F5                 3178 	push	af
   0B1E 33                 3179 	inc	sp
                           3180 ;	genIpush
   0B1F 3E 06              3181 	ld	a,#0x06
   0B21 F5                 3182 	push	af
   0B22 33                 3183 	inc	sp
                           3184 ;	genCall
   0B23 CD 00 00           3185 	call	_set_sprite_tile
   0B26 E8 02              3186 	lda	sp,2(sp)
   0B28 E1                 3187 	pop	hl
   0B29 4D                 3188 	ld	c,l
                           3189 ;	battle/battle.c 420
                           3190 ;	genPlus
                           3191 ;	genPlusIncr
                           3192 ;	Can't optimise plus by inc, falling back to the normal way
   0B2A 79                 3193 	ld	a,c
   0B2B C6 0B              3194 	add	a,#0x0B
                           3195 ;	genIpush
                           3196 ; _saveRegsForCall: sendSetSize: 0 deInUse: 0 bcInUse: 0 deSending: 0
   0B2D 4F                 3197 	ld	c,a
   0B2E F5                 3198 	push	af
   0B2F 33                 3199 	inc	sp
                           3200 ;	genIpush
   0B30 3E 07              3201 	ld	a,#0x07
   0B32 F5                 3202 	push	af
   0B33 33                 3203 	inc	sp
                           3204 ;	genCall
   0B34 CD 00 00           3205 	call	_set_sprite_tile
   0B37 E8 02              3206 	lda	sp,2(sp)
                           3207 ;	battle/battle.c 414
                           3208 ;	genPlus
                           3209 ;	AOP_HL for _a
                           3210 ;	genPlusIncr
   0B39 21 1E 00           3211 	ld	hl,#_a
   0B3C 34                 3212 	inc	(hl)
   0B3D 34                 3213 	inc	(hl)
   0B3E 34                 3214 	inc	(hl)
                           3215 ;	genGoto
   0B3F C3 D9 0A           3216 	jp	00111$
                           3217 ;	genLabel
   0B42                    3218 00115$:
                           3219 ;	genEndFunction
                           3220 	
   0B42 C9                 3221 	ret
   0B43                    3222 ___hero_fight_anim_end:
                           3223 ;	battle/battle.c 424
                           3224 ;	genLabel
                           3225 ;	genFunction
                           3226 ;	---------------------------------
                           3227 ; Function enemy_fight_anim
                           3228 ; ---------------------------------
   0B43                    3229 ___enemy_fight_anim_start:
   0B43                    3230 _enemy_fight_anim:
                           3231 	
                           3232 ;	battle/battle.c 426
                           3233 ;	genCmpEq
                           3234 ;	AOP_HL for _ENEMY
                           3235 ; genCmpEq: left 1, right 1, result 0
   0B43 21 10 00           3236 	ld	hl,#_ENEMY
   0B46 7E                 3237 	ld	a,(hl)
   0B47 B7                 3238 	or	a,a
   0B48 C2 65 0B           3239 	jp	nz,00102$
   0B4B 18 03              3240 	jr	00125$
   0B4D                    3241 00124$:
   0B4D C3 65 0B           3242 	jp	00102$
   0B50                    3243 00125$:
                           3244 ;	battle/battle.c 427
                           3245 ;	genIpush
                           3246 ; _saveRegsForCall: sendSetSize: 0 deInUse: 0 bcInUse: 0 deSending: 0
   0B50 21 00 00           3247 	ld	hl,#_asakawa_front_idle
   0B53 E5                 3248 	push	hl
                           3249 ;	genIpush
   0B54 3E 08              3250 	ld	a,#0x08
   0B56 F5                 3251 	push	af
   0B57 33                 3252 	inc	sp
                           3253 ;	genIpush
   0B58 21 00 00           3254 	ld	hl,#_hero_back_idle
   0B5B E5                 3255 	push	hl
                           3256 ;	genIpush
   0B5C 3E 08              3257 	ld	a,#0x08
   0B5E F5                 3258 	push	af
   0B5F 33                 3259 	inc	sp
                           3260 ;	genCall
   0B60 CD 9D 0C           3261 	call	_sprite_setup
   0B63 E8 06              3262 	lda	sp,6(sp)
                           3263 ;	genLabel
   0B65                    3264 00102$:
                           3265 ;	battle/battle.c 428
                           3266 ;	genCmpEq
                           3267 ;	AOP_HL for _ENEMY
                           3268 ; genCmpEq: left 1, right 1, result 0
   0B65 21 10 00           3269 	ld	hl,#_ENEMY
   0B68 7E                 3270 	ld	a,(hl)
   0B69 FE 01              3271 	cp	a,#0x01
   0B6B C2 88 0B           3272 	jp	nz,00104$
   0B6E 18 03              3273 	jr	00127$
   0B70                    3274 00126$:
   0B70 C3 88 0B           3275 	jp	00104$
   0B73                    3276 00127$:
                           3277 ;	battle/battle.c 429
                           3278 ;	genIpush
                           3279 ; _saveRegsForCall: sendSetSize: 0 deInUse: 0 bcInUse: 0 deSending: 0
   0B73 21 00 00           3280 	ld	hl,#_norm_crab
   0B76 E5                 3281 	push	hl
                           3282 ;	genIpush
   0B77 3E 08              3283 	ld	a,#0x08
   0B79 F5                 3284 	push	af
   0B7A 33                 3285 	inc	sp
                           3286 ;	genIpush
   0B7B 21 00 00           3287 	ld	hl,#_hero_back_idle
   0B7E E5                 3288 	push	hl
                           3289 ;	genIpush
   0B7F 3E 08              3290 	ld	a,#0x08
   0B81 F5                 3291 	push	af
   0B82 33                 3292 	inc	sp
                           3293 ;	genCall
   0B83 CD 9D 0C           3294 	call	_sprite_setup
   0B86 E8 06              3295 	lda	sp,6(sp)
                           3296 ;	genLabel
   0B88                    3297 00104$:
                           3298 ;	battle/battle.c 430
                           3299 ;	genCmpEq
                           3300 ;	AOP_HL for _ENEMY
                           3301 ; genCmpEq: left 1, right 1, result 0
   0B88 21 10 00           3302 	ld	hl,#_ENEMY
   0B8B 7E                 3303 	ld	a,(hl)
   0B8C FE 02              3304 	cp	a,#0x02
   0B8E C2 AB 0B           3305 	jp	nz,00106$
   0B91 18 03              3306 	jr	00129$
   0B93                    3307 00128$:
   0B93 C3 AB 0B           3308 	jp	00106$
   0B96                    3309 00129$:
                           3310 ;	battle/battle.c 431
                           3311 ;	genIpush
                           3312 ; _saveRegsForCall: sendSetSize: 0 deInUse: 0 bcInUse: 0 deSending: 0
   0B96 21 00 00           3313 	ld	hl,#_king_crab
   0B99 E5                 3314 	push	hl
                           3315 ;	genIpush
   0B9A 3E 08              3316 	ld	a,#0x08
   0B9C F5                 3317 	push	af
   0B9D 33                 3318 	inc	sp
                           3319 ;	genIpush
   0B9E 21 00 00           3320 	ld	hl,#_hero_back_idle
   0BA1 E5                 3321 	push	hl
                           3322 ;	genIpush
   0BA2 3E 08              3323 	ld	a,#0x08
   0BA4 F5                 3324 	push	af
   0BA5 33                 3325 	inc	sp
                           3326 ;	genCall
   0BA6 CD 9D 0C           3327 	call	_sprite_setup
   0BA9 E8 06              3328 	lda	sp,6(sp)
                           3329 ;	genLabel
   0BAB                    3330 00106$:
                           3331 ;	battle/battle.c 432
                           3332 ;	genIpush
                           3333 ; _saveRegsForCall: sendSetSize: 0 deInUse: 0 bcInUse: 0 deSending: 0
   0BAB 21 2C 01           3334 	ld	hl,#0x012C
   0BAE E5                 3335 	push	hl
                           3336 ;	genCall
   0BAF CD 00 00           3337 	call	_delay
   0BB2 E8 02              3338 	lda	sp,2(sp)
                           3339 ;	battle/battle.c 434
                           3340 ;	genAssign
                           3341 ;	AOP_HL for _i
   0BB4 21 00 00           3342 	ld	hl,#_i
   0BB7 36 00              3343 	ld	(hl),#0x00
                           3344 ;	genLabel
   0BB9                    3345 00107$:
                           3346 ;	genCmpLt
                           3347 ;	AOP_HL for _i
   0BB9 21 00 00           3348 	ld	hl,#_i
   0BBC 7E                 3349 	ld	a,(hl)
   0BBD FE 04              3350 	cp	#0x04
   0BBF D2 D8 0B           3351 	jp	nc,00110$
                           3352 ;	battle/battle.c 435
                           3353 ;	genIpush
                           3354 ; _saveRegsForCall: sendSetSize: 0 deInUse: 0 bcInUse: 0 deSending: 0
   0BC2 21 C8 C8           3355 	ld	hl,#0xC8C8
   0BC5 E5                 3356 	push	hl
                           3357 ;	genIpush
                           3358 ;	AOP_HL for _i
   0BC6 21 00 00           3359 	ld	hl,#_i
   0BC9 7E                 3360 	ld	a,(hl)
   0BCA F5                 3361 	push	af
   0BCB 33                 3362 	inc	sp
                           3363 ;	genCall
   0BCC CD 00 00           3364 	call	_move_sprite
   0BCF E8 03              3365 	lda	sp,3(sp)
                           3366 ;	battle/battle.c 434
                           3367 ;	genPlus
                           3368 ;	AOP_HL for _i
                           3369 ;	genPlusIncr
   0BD1 21 00 00           3370 	ld	hl,#_i
   0BD4 34                 3371 	inc	(hl)
                           3372 ;	genGoto
   0BD5 C3 B9 0B           3373 	jp	00107$
                           3374 ;	genLabel
   0BD8                    3375 00110$:
                           3376 ;	battle/battle.c 437
                           3377 ;	genIpush
                           3378 ; _saveRegsForCall: sendSetSize: 0 deInUse: 0 bcInUse: 0 deSending: 0
   0BD8 21 2C 01           3379 	ld	hl,#0x012C
   0BDB E5                 3380 	push	hl
                           3381 ;	genCall
   0BDC CD 00 00           3382 	call	_delay
   0BDF E8 02              3383 	lda	sp,2(sp)
                           3384 ;	battle/battle.c 438
                           3385 ;	genIpush
                           3386 ; _saveRegsForCall: sendSetSize: 0 deInUse: 0 bcInUse: 0 deSending: 0
   0BE1 21 4D 34           3387 	ld	hl,#0x344D
   0BE4 E5                 3388 	push	hl
                           3389 ;	genIpush
   0BE5 3E 00              3390 	ld	a,#0x00
   0BE7 F5                 3391 	push	af
   0BE8 33                 3392 	inc	sp
                           3393 ;	genCall
   0BE9 CD 00 00           3394 	call	_move_sprite
   0BEC E8 03              3395 	lda	sp,3(sp)
                           3396 ;	battle/battle.c 439
                           3397 ;	genIpush
                           3398 ; _saveRegsForCall: sendSetSize: 0 deInUse: 0 bcInUse: 0 deSending: 0
   0BEE 21 4D 3C           3399 	ld	hl,#0x3C4D
   0BF1 E5                 3400 	push	hl
                           3401 ;	genIpush
   0BF2 3E 01              3402 	ld	a,#0x01
   0BF4 F5                 3403 	push	af
   0BF5 33                 3404 	inc	sp
                           3405 ;	genCall
   0BF6 CD 00 00           3406 	call	_move_sprite
   0BF9 E8 03              3407 	lda	sp,3(sp)
                           3408 ;	battle/battle.c 440
                           3409 ;	genIpush
                           3410 ; _saveRegsForCall: sendSetSize: 0 deInUse: 0 bcInUse: 0 deSending: 0
   0BFB 21 54 34           3411 	ld	hl,#0x3454
   0BFE E5                 3412 	push	hl
                           3413 ;	genIpush
   0BFF 3E 02              3414 	ld	a,#0x02
   0C01 F5                 3415 	push	af
   0C02 33                 3416 	inc	sp
                           3417 ;	genCall
   0C03 CD 00 00           3418 	call	_move_sprite
   0C06 E8 03              3419 	lda	sp,3(sp)
                           3420 ;	battle/battle.c 441
                           3421 ;	genIpush
                           3422 ; _saveRegsForCall: sendSetSize: 0 deInUse: 0 bcInUse: 0 deSending: 0
   0C08 21 54 3C           3423 	ld	hl,#0x3C54
   0C0B E5                 3424 	push	hl
                           3425 ;	genIpush
   0C0C 3E 03              3426 	ld	a,#0x03
   0C0E F5                 3427 	push	af
   0C0F 33                 3428 	inc	sp
                           3429 ;	genCall
   0C10 CD 00 00           3430 	call	_move_sprite
   0C13 E8 03              3431 	lda	sp,3(sp)
                           3432 ;	battle/battle.c 442
                           3433 ;	genAssign
                           3434 ;	AOP_HL for _a
   0C15 21 1E 00           3435 	ld	hl,#_a
   0C18 36 00              3436 	ld	(hl),#0x00
                           3437 ;	genLabel
   0C1A                    3438 00111$:
                           3439 ;	genCmpLt
                           3440 ;	AOP_HL for _a
   0C1A 21 1E 00           3441 	ld	hl,#_a
   0C1D 7E                 3442 	ld	a,(hl)
   0C1E FE 15              3443 	cp	#0x15
   0C20 D2 7D 0C           3444 	jp	nc,00115$
                           3445 ;	battle/battle.c 444
                           3446 ;	genIpush
                           3447 ; _saveRegsForCall: sendSetSize: 0 deInUse: 0 bcInUse: 0 deSending: 0
   0C23 21 64 00           3448 	ld	hl,#0x0064
   0C26 E5                 3449 	push	hl
                           3450 ;	genCall
   0C27 CD 00 00           3451 	call	_delay
   0C2A E8 02              3452 	lda	sp,2(sp)
                           3453 ;	battle/battle.c 445
                           3454 ;	genAnd
                           3455 ;	AOP_HL for _a
   0C2C 21 1E 00           3456 	ld	hl,#_a
   0C2F 7E                 3457 	ld	a,(hl)
   0C30 E6 04              3458 	and	a,#0x04
   0C32 4F                 3459 	ld	c,a
                           3460 ;	genIpush
                           3461 ; _saveRegsForCall: sendSetSize: 0 deInUse: 0 bcInUse: 1 deSending: 0
   0C33 C5                 3462 	push	bc
   0C34 79                 3463 	ld	a,c
   0C35 F5                 3464 	push	af
   0C36 33                 3465 	inc	sp
                           3466 ;	genIpush
   0C37 3E 00              3467 	ld	a,#0x00
   0C39 F5                 3468 	push	af
   0C3A 33                 3469 	inc	sp
                           3470 ;	genCall
   0C3B CD 00 00           3471 	call	_set_sprite_tile
   0C3E E8 02              3472 	lda	sp,2(sp)
   0C40 E1                 3473 	pop	hl
   0C41 4D                 3474 	ld	c,l
                           3475 ;	battle/battle.c 446
                           3476 ;	genPlus
                           3477 ;	genPlusIncr
   0C42 41                 3478 	ld	b,c
   0C43 04                 3479 	inc	b
                           3480 ;	genIpush
                           3481 ; _saveRegsForCall: sendSetSize: 0 deInUse: 0 bcInUse: 1 deSending: 0
   0C44 C5                 3482 	push	bc
   0C45 78                 3483 	ld	a,b
   0C46 F5                 3484 	push	af
   0C47 33                 3485 	inc	sp
                           3486 ;	genIpush
   0C48 3E 01              3487 	ld	a,#0x01
   0C4A F5                 3488 	push	af
   0C4B 33                 3489 	inc	sp
                           3490 ;	genCall
   0C4C CD 00 00           3491 	call	_set_sprite_tile
   0C4F E8 02              3492 	lda	sp,2(sp)
   0C51 E1                 3493 	pop	hl
   0C52 4D                 3494 	ld	c,l
                           3495 ;	battle/battle.c 447
                           3496 ;	genPlus
                           3497 ;	genPlusIncr
   0C53 41                 3498 	ld	b,c
   0C54 04                 3499 	inc	b
   0C55 04                 3500 	inc	b
                           3501 ;	genIpush
                           3502 ; _saveRegsForCall: sendSetSize: 0 deInUse: 0 bcInUse: 1 deSending: 0
   0C56 C5                 3503 	push	bc
   0C57 78                 3504 	ld	a,b
   0C58 F5                 3505 	push	af
   0C59 33                 3506 	inc	sp
                           3507 ;	genIpush
   0C5A 3E 02              3508 	ld	a,#0x02
   0C5C F5                 3509 	push	af
   0C5D 33                 3510 	inc	sp
                           3511 ;	genCall
   0C5E CD 00 00           3512 	call	_set_sprite_tile
   0C61 E8 02              3513 	lda	sp,2(sp)
   0C63 E1                 3514 	pop	hl
   0C64 4D                 3515 	ld	c,l
                           3516 ;	battle/battle.c 448
                           3517 ;	genPlus
                           3518 ;	genPlusIncr
                           3519 ; Removed redundent load
   0C65 0C                 3520 	inc	c
   0C66 0C                 3521 	inc	c
   0C67 0C                 3522 	inc	c
                           3523 ;	genIpush
                           3524 ; _saveRegsForCall: sendSetSize: 0 deInUse: 0 bcInUse: 0 deSending: 0
   0C68 79                 3525 	ld	a,c
   0C69 F5                 3526 	push	af
   0C6A 33                 3527 	inc	sp
                           3528 ;	genIpush
   0C6B 3E 03              3529 	ld	a,#0x03
   0C6D F5                 3530 	push	af
   0C6E 33                 3531 	inc	sp
                           3532 ;	genCall
   0C6F CD 00 00           3533 	call	_set_sprite_tile
   0C72 E8 02              3534 	lda	sp,2(sp)
                           3535 ;	battle/battle.c 442
                           3536 ;	genPlus
                           3537 ;	AOP_HL for _a
                           3538 ;	genPlusIncr
   0C74 21 1E 00           3539 	ld	hl,#_a
   0C77 34                 3540 	inc	(hl)
   0C78 34                 3541 	inc	(hl)
   0C79 34                 3542 	inc	(hl)
                           3543 ;	genGoto
   0C7A C3 1A 0C           3544 	jp	00111$
                           3545 ;	genLabel
   0C7D                    3546 00115$:
                           3547 ;	genEndFunction
                           3548 	
   0C7D C9                 3549 	ret
   0C7E                    3550 ___enemy_fight_anim_end:
                           3551 ;	battle/battle.c 452
                           3552 ;	genLabel
                           3553 ;	genFunction
                           3554 ;	---------------------------------
                           3555 ; Function clear_screen
                           3556 ; ---------------------------------
   0C7E                    3557 ___clear_screen_start:
   0C7E                    3558 _clear_screen:
                           3559 	
                           3560 ;	battle/battle.c 455
                           3561 ;	genIpush
                           3562 ; _saveRegsForCall: sendSetSize: 0 deInUse: 0 bcInUse: 0 deSending: 0
   0C7E 21 00 00           3563 	ld	hl,#_blank_screen_tiles
   0C81 E5                 3564 	push	hl
                           3565 ;	genIpush
   0C82 21 00 04           3566 	ld	hl,#0x0400
   0C85 E5                 3567 	push	hl
                           3568 ;	genCall
   0C86 CD 00 00           3569 	call	_set_bkg_data
   0C89 E8 04              3570 	lda	sp,4(sp)
                           3571 ;	battle/battle.c 456
                           3572 ;	genIpush
                           3573 ; _saveRegsForCall: sendSetSize: 0 deInUse: 0 bcInUse: 0 deSending: 0
   0C8B 21 00 00           3574 	ld	hl,#_blank_screen
   0C8E E5                 3575 	push	hl
                           3576 ;	genIpush
   0C8F 21 14 12           3577 	ld	hl,#0x1214
   0C92 E5                 3578 	push	hl
                           3579 ;	genIpush
   0C93 21 00 00           3580 	ld	hl,#0x0000
   0C96 E5                 3581 	push	hl
                           3582 ;	genCall
   0C97 CD 00 00           3583 	call	_set_bkg_tiles
   0C9A E8 06              3584 	lda	sp,6(sp)
                           3585 ;	genLabel
   0C9C                    3586 00101$:
                           3587 ;	genEndFunction
                           3588 	
   0C9C C9                 3589 	ret
   0C9D                    3590 ___clear_screen_end:
                           3591 ;	battle/battle.c 464
                           3592 ;	genLabel
                           3593 ;	genFunction
                           3594 ;	---------------------------------
                           3595 ; Function sprite_setup
                           3596 ; ---------------------------------
   0C9D                    3597 ___sprite_setup_start:
   0C9D                    3598 _sprite_setup:
                           3599 	
                           3600 ;	battle/battle.c 467
                           3601 ;	genIpush
                           3602 ; _saveRegsForCall: sendSetSize: 0 deInUse: 0 bcInUse: 0 deSending: 0
   0C9D 3E 00              3603 	ld	a,#0x00
   0C9F F5                 3604 	push	af
   0CA0 33                 3605 	inc	sp
                           3606 ;	genCall
   0CA1 CD 00 00           3607 	call	_sprite_clean
   0CA4 E8 01              3608 	lda	sp,1(sp)
                           3609 ;	battle/battle.c 468
                           3610 ;	genAssign
                           3611 ;	AOP_HL for _LETTER_COUNT
   0CA6 21 00 00           3612 	ld	hl,#_LETTER_COUNT
   0CA9 36 00              3613 	ld	(hl),#0x00
                           3614 ;	battle/battle.c 469
                           3615 ;	genCall
                           3616 ; _saveRegsForCall: sendSetSize: 0 deInUse: 0 bcInUse: 0 deSending: 0
   0CAB CD 7E 0C           3617 	call	_clear_screen
                           3618 ;	battle/battle.c 472
                           3619 ;	genIpush
                           3620 ; _saveRegsForCall: sendSetSize: 0 deInUse: 0 bcInUse: 0 deSending: 0
                           3621 ;	AOP_STK for 
   0CAE F8 06              3622 	lda	hl,6(sp)
   0CB0 2A                 3623 	ld	a,(hl+)
   0CB1 66                 3624 	ld	h,(hl)
   0CB2 6F                 3625 	ld	l,a
   0CB3 E5                 3626 	push	hl
                           3627 ;	genIpush
   0CB4 21 00 08           3628 	ld	hl,#0x0800
   0CB7 E5                 3629 	push	hl
                           3630 ;	genCall
   0CB8 CD 00 00           3631 	call	_set_sprite_data
   0CBB E8 04              3632 	lda	sp,4(sp)
                           3633 ;	battle/battle.c 473
                           3634 ;	genIpush
                           3635 ; _saveRegsForCall: sendSetSize: 0 deInUse: 0 bcInUse: 0 deSending: 0
                           3636 ;	AOP_STK for 
   0CBD F8 03              3637 	lda	hl,3(sp)
   0CBF 2A                 3638 	ld	a,(hl+)
   0CC0 66                 3639 	ld	h,(hl)
   0CC1 6F                 3640 	ld	l,a
   0CC2 E5                 3641 	push	hl
                           3642 ;	genIpush
                           3643 ;	AOP_STK for 
   0CC3 F8 07              3644 	lda	hl,7(sp)
   0CC5 7E                 3645 	ld	a,(hl)
   0CC6 F5                 3646 	push	af
   0CC7 33                 3647 	inc	sp
                           3648 ;	genIpush
                           3649 ;	AOP_STK for 
   0CC8 F8 05              3650 	lda	hl,5(sp)
   0CCA 7E                 3651 	ld	a,(hl)
   0CCB F5                 3652 	push	af
   0CCC 33                 3653 	inc	sp
                           3654 ;	genCall
   0CCD CD 00 00           3655 	call	_set_sprite_data
   0CD0 E8 04              3656 	lda	sp,4(sp)
                           3657 ;	battle/battle.c 476
                           3658 ;	genIpush
                           3659 ; _saveRegsForCall: sendSetSize: 0 deInUse: 0 bcInUse: 0 deSending: 0
   0CD2 21 00 00           3660 	ld	hl,#0x0000
   0CD5 E5                 3661 	push	hl
                           3662 ;	genCall
   0CD6 CD 00 00           3663 	call	_set_sprite_tile
   0CD9 E8 02              3664 	lda	sp,2(sp)
                           3665 ;	battle/battle.c 477
                           3666 ;	genIpush
                           3667 ; _saveRegsForCall: sendSetSize: 0 deInUse: 0 bcInUse: 0 deSending: 0
   0CDB 21 01 01           3668 	ld	hl,#0x0101
   0CDE E5                 3669 	push	hl
                           3670 ;	genCall
   0CDF CD 00 00           3671 	call	_set_sprite_tile
   0CE2 E8 02              3672 	lda	sp,2(sp)
                           3673 ;	battle/battle.c 478
                           3674 ;	genIpush
                           3675 ; _saveRegsForCall: sendSetSize: 0 deInUse: 0 bcInUse: 0 deSending: 0
   0CE4 21 02 02           3676 	ld	hl,#0x0202
   0CE7 E5                 3677 	push	hl
                           3678 ;	genCall
   0CE8 CD 00 00           3679 	call	_set_sprite_tile
   0CEB E8 02              3680 	lda	sp,2(sp)
                           3681 ;	battle/battle.c 479
                           3682 ;	genIpush
                           3683 ; _saveRegsForCall: sendSetSize: 0 deInUse: 0 bcInUse: 0 deSending: 0
   0CED 21 03 03           3684 	ld	hl,#0x0303
   0CF0 E5                 3685 	push	hl
                           3686 ;	genCall
   0CF1 CD 00 00           3687 	call	_set_sprite_tile
   0CF4 E8 02              3688 	lda	sp,2(sp)
                           3689 ;	battle/battle.c 481
                           3690 ;	genIpush
                           3691 ; _saveRegsForCall: sendSetSize: 0 deInUse: 0 bcInUse: 0 deSending: 0
   0CF6 21 4D 28           3692 	ld	hl,#0x284D
   0CF9 E5                 3693 	push	hl
                           3694 ;	genIpush
   0CFA 3E 00              3695 	ld	a,#0x00
   0CFC F5                 3696 	push	af
   0CFD 33                 3697 	inc	sp
                           3698 ;	genCall
   0CFE CD 00 00           3699 	call	_move_sprite
   0D01 E8 03              3700 	lda	sp,3(sp)
                           3701 ;	battle/battle.c 482
                           3702 ;	genIpush
                           3703 ; _saveRegsForCall: sendSetSize: 0 deInUse: 0 bcInUse: 0 deSending: 0
   0D03 21 4D 30           3704 	ld	hl,#0x304D
   0D06 E5                 3705 	push	hl
                           3706 ;	genIpush
   0D07 3E 01              3707 	ld	a,#0x01
   0D09 F5                 3708 	push	af
   0D0A 33                 3709 	inc	sp
                           3710 ;	genCall
   0D0B CD 00 00           3711 	call	_move_sprite
   0D0E E8 03              3712 	lda	sp,3(sp)
                           3713 ;	battle/battle.c 483
                           3714 ;	genIpush
                           3715 ; _saveRegsForCall: sendSetSize: 0 deInUse: 0 bcInUse: 0 deSending: 0
   0D10 21 54 28           3716 	ld	hl,#0x2854
   0D13 E5                 3717 	push	hl
                           3718 ;	genIpush
   0D14 3E 02              3719 	ld	a,#0x02
   0D16 F5                 3720 	push	af
   0D17 33                 3721 	inc	sp
                           3722 ;	genCall
   0D18 CD 00 00           3723 	call	_move_sprite
   0D1B E8 03              3724 	lda	sp,3(sp)
                           3725 ;	battle/battle.c 484
                           3726 ;	genIpush
                           3727 ; _saveRegsForCall: sendSetSize: 0 deInUse: 0 bcInUse: 0 deSending: 0
   0D1D 21 54 30           3728 	ld	hl,#0x3054
   0D20 E5                 3729 	push	hl
                           3730 ;	genIpush
   0D21 3E 03              3731 	ld	a,#0x03
   0D23 F5                 3732 	push	af
   0D24 33                 3733 	inc	sp
                           3734 ;	genCall
   0D25 CD 00 00           3735 	call	_move_sprite
   0D28 E8 03              3736 	lda	sp,3(sp)
                           3737 ;	battle/battle.c 487
                           3738 ;	genIpush
                           3739 ; _saveRegsForCall: sendSetSize: 0 deInUse: 0 bcInUse: 0 deSending: 0
   0D2A 21 04 08           3740 	ld	hl,#0x0804
   0D2D E5                 3741 	push	hl
                           3742 ;	genCall
   0D2E CD 00 00           3743 	call	_set_sprite_tile
   0D31 E8 02              3744 	lda	sp,2(sp)
                           3745 ;	battle/battle.c 488
                           3746 ;	genIpush
                           3747 ; _saveRegsForCall: sendSetSize: 0 deInUse: 0 bcInUse: 0 deSending: 0
   0D33 21 05 09           3748 	ld	hl,#0x0905
   0D36 E5                 3749 	push	hl
                           3750 ;	genCall
   0D37 CD 00 00           3751 	call	_set_sprite_tile
   0D3A E8 02              3752 	lda	sp,2(sp)
                           3753 ;	battle/battle.c 489
                           3754 ;	genIpush
                           3755 ; _saveRegsForCall: sendSetSize: 0 deInUse: 0 bcInUse: 0 deSending: 0
   0D3C 21 06 0A           3756 	ld	hl,#0x0A06
   0D3F E5                 3757 	push	hl
                           3758 ;	genCall
   0D40 CD 00 00           3759 	call	_set_sprite_tile
   0D43 E8 02              3760 	lda	sp,2(sp)
                           3761 ;	battle/battle.c 490
                           3762 ;	genIpush
                           3763 ; _saveRegsForCall: sendSetSize: 0 deInUse: 0 bcInUse: 0 deSending: 0
   0D45 21 07 0B           3764 	ld	hl,#0x0B07
   0D48 E5                 3765 	push	hl
                           3766 ;	genCall
   0D49 CD 00 00           3767 	call	_set_sprite_tile
   0D4C E8 02              3768 	lda	sp,2(sp)
                           3769 ;	battle/battle.c 492
                           3770 ;	genIpush
                           3771 ; _saveRegsForCall: sendSetSize: 0 deInUse: 0 bcInUse: 0 deSending: 0
   0D4E 21 4D 48           3772 	ld	hl,#0x484D
   0D51 E5                 3773 	push	hl
                           3774 ;	genIpush
   0D52 3E 04              3775 	ld	a,#0x04
   0D54 F5                 3776 	push	af
   0D55 33                 3777 	inc	sp
                           3778 ;	genCall
   0D56 CD 00 00           3779 	call	_move_sprite
   0D59 E8 03              3780 	lda	sp,3(sp)
                           3781 ;	battle/battle.c 493
                           3782 ;	genIpush
                           3783 ; _saveRegsForCall: sendSetSize: 0 deInUse: 0 bcInUse: 0 deSending: 0
   0D5B 21 4D 50           3784 	ld	hl,#0x504D
   0D5E E5                 3785 	push	hl
                           3786 ;	genIpush
   0D5F 3E 05              3787 	ld	a,#0x05
   0D61 F5                 3788 	push	af
   0D62 33                 3789 	inc	sp
                           3790 ;	genCall
   0D63 CD 00 00           3791 	call	_move_sprite
   0D66 E8 03              3792 	lda	sp,3(sp)
                           3793 ;	battle/battle.c 494
                           3794 ;	genIpush
                           3795 ; _saveRegsForCall: sendSetSize: 0 deInUse: 0 bcInUse: 0 deSending: 0
   0D68 21 54 48           3796 	ld	hl,#0x4854
   0D6B E5                 3797 	push	hl
                           3798 ;	genIpush
   0D6C 3E 06              3799 	ld	a,#0x06
   0D6E F5                 3800 	push	af
   0D6F 33                 3801 	inc	sp
                           3802 ;	genCall
   0D70 CD 00 00           3803 	call	_move_sprite
   0D73 E8 03              3804 	lda	sp,3(sp)
                           3805 ;	battle/battle.c 495
                           3806 ;	genIpush
                           3807 ; _saveRegsForCall: sendSetSize: 0 deInUse: 0 bcInUse: 0 deSending: 0
   0D75 21 54 50           3808 	ld	hl,#0x5054
   0D78 E5                 3809 	push	hl
                           3810 ;	genIpush
   0D79 3E 07              3811 	ld	a,#0x07
   0D7B F5                 3812 	push	af
   0D7C 33                 3813 	inc	sp
                           3814 ;	genCall
   0D7D CD 00 00           3815 	call	_move_sprite
   0D80 E8 03              3816 	lda	sp,3(sp)
                           3817 ;	battle/battle.c 497
                           3818 ;	genIfx
                           3819 ;	AOP_HL for _striking
   0D82 AF                 3820 	xor	a,a
   0D83 21 00 00           3821 	ld	hl,#_striking
   0D86 B6                 3822 	or	a,(hl)
   0D87 CA A1 0F           3823 	jp	z,00105$
                           3824 ;	battle/battle.c 499
                           3825 ;	genIfx
                           3826 ;	AOP_HL for _REVOLUTION_2
   0D8A AF                 3827 	xor	a,a
   0D8B 21 00 00           3828 	ld	hl,#_REVOLUTION_2
   0D8E B6                 3829 	or	a,(hl)
   0D8F C2 93 0E           3830 	jp	nz,00102$
                           3831 ;	battle/battle.c 501
                           3832 ;	genIpush
                           3833 ; _saveRegsForCall: sendSetSize: 0 deInUse: 0 bcInUse: 0 deSending: 0
   0D92 21 00 00           3834 	ld	hl,#_soldier
   0D95 E5                 3835 	push	hl
                           3836 ;	genIpush
   0D96 21 10 02           3837 	ld	hl,#0x0210
   0D99 E5                 3838 	push	hl
                           3839 ;	genCall
   0D9A CD 00 00           3840 	call	_set_sprite_data
   0D9D E8 04              3841 	lda	sp,4(sp)
                           3842 ;	battle/battle.c 503
                           3843 ;	genIpush
                           3844 ; _saveRegsForCall: sendSetSize: 0 deInUse: 0 bcInUse: 0 deSending: 0
   0D9F 21 08 10           3845 	ld	hl,#0x1008
   0DA2 E5                 3846 	push	hl
                           3847 ;	genCall
   0DA3 CD 00 00           3848 	call	_set_sprite_tile
   0DA6 E8 02              3849 	lda	sp,2(sp)
                           3850 ;	battle/battle.c 504
                           3851 ;	genIpush
                           3852 ; _saveRegsForCall: sendSetSize: 0 deInUse: 0 bcInUse: 0 deSending: 0
   0DA8 21 09 11           3853 	ld	hl,#0x1109
   0DAB E5                 3854 	push	hl
                           3855 ;	genCall
   0DAC CD 00 00           3856 	call	_set_sprite_tile
   0DAF E8 02              3857 	lda	sp,2(sp)
                           3858 ;	battle/battle.c 505
                           3859 ;	genIpush
                           3860 ; _saveRegsForCall: sendSetSize: 0 deInUse: 0 bcInUse: 0 deSending: 0
   0DB1 21 0A 10           3861 	ld	hl,#0x100A
   0DB4 E5                 3862 	push	hl
                           3863 ;	genCall
   0DB5 CD 00 00           3864 	call	_set_sprite_tile
   0DB8 E8 02              3865 	lda	sp,2(sp)
                           3866 ;	battle/battle.c 506
                           3867 ;	genIpush
                           3868 ; _saveRegsForCall: sendSetSize: 0 deInUse: 0 bcInUse: 0 deSending: 0
   0DBA 21 0B 11           3869 	ld	hl,#0x110B
   0DBD E5                 3870 	push	hl
                           3871 ;	genCall
   0DBE CD 00 00           3872 	call	_set_sprite_tile
   0DC1 E8 02              3873 	lda	sp,2(sp)
                           3874 ;	battle/battle.c 507
                           3875 ;	genIpush
                           3876 ; _saveRegsForCall: sendSetSize: 0 deInUse: 0 bcInUse: 0 deSending: 0
   0DC3 21 0C 10           3877 	ld	hl,#0x100C
   0DC6 E5                 3878 	push	hl
                           3879 ;	genCall
   0DC7 CD 00 00           3880 	call	_set_sprite_tile
   0DCA E8 02              3881 	lda	sp,2(sp)
                           3882 ;	battle/battle.c 508
                           3883 ;	genIpush
                           3884 ; _saveRegsForCall: sendSetSize: 0 deInUse: 0 bcInUse: 0 deSending: 0
   0DCC 21 0D 11           3885 	ld	hl,#0x110D
   0DCF E5                 3886 	push	hl
                           3887 ;	genCall
   0DD0 CD 00 00           3888 	call	_set_sprite_tile
   0DD3 E8 02              3889 	lda	sp,2(sp)
                           3890 ;	battle/battle.c 509
                           3891 ;	genIpush
                           3892 ; _saveRegsForCall: sendSetSize: 0 deInUse: 0 bcInUse: 0 deSending: 0
   0DD5 21 0E 10           3893 	ld	hl,#0x100E
   0DD8 E5                 3894 	push	hl
                           3895 ;	genCall
   0DD9 CD 00 00           3896 	call	_set_sprite_tile
   0DDC E8 02              3897 	lda	sp,2(sp)
                           3898 ;	battle/battle.c 510
                           3899 ;	genIpush
                           3900 ; _saveRegsForCall: sendSetSize: 0 deInUse: 0 bcInUse: 0 deSending: 0
   0DDE 21 0F 11           3901 	ld	hl,#0x110F
   0DE1 E5                 3902 	push	hl
                           3903 ;	genCall
   0DE2 CD 00 00           3904 	call	_set_sprite_tile
   0DE5 E8 02              3905 	lda	sp,2(sp)
                           3906 ;	battle/battle.c 511
                           3907 ;	genIpush
                           3908 ; _saveRegsForCall: sendSetSize: 0 deInUse: 0 bcInUse: 0 deSending: 0
   0DE7 21 0E 20           3909 	ld	hl,#0x200E
   0DEA E5                 3910 	push	hl
                           3911 ;	genCall
   0DEB CD 00 00           3912 	call	_set_sprite_prop
   0DEE E8 02              3913 	lda	sp,2(sp)
                           3914 ;	battle/battle.c 512
                           3915 ;	genIpush
                           3916 ; _saveRegsForCall: sendSetSize: 0 deInUse: 0 bcInUse: 0 deSending: 0
   0DF0 21 0F 20           3917 	ld	hl,#0x200F
   0DF3 E5                 3918 	push	hl
                           3919 ;	genCall
   0DF4 CD 00 00           3920 	call	_set_sprite_prop
   0DF7 E8 02              3921 	lda	sp,2(sp)
                           3922 ;	battle/battle.c 513
                           3923 ;	genIpush
                           3924 ; _saveRegsForCall: sendSetSize: 0 deInUse: 0 bcInUse: 0 deSending: 0
   0DF9 21 0A 20           3925 	ld	hl,#0x200A
   0DFC E5                 3926 	push	hl
                           3927 ;	genCall
   0DFD CD 00 00           3928 	call	_set_sprite_prop
   0E00 E8 02              3929 	lda	sp,2(sp)
                           3930 ;	battle/battle.c 514
                           3931 ;	genIpush
                           3932 ; _saveRegsForCall: sendSetSize: 0 deInUse: 0 bcInUse: 0 deSending: 0
   0E02 21 0B 20           3933 	ld	hl,#0x200B
   0E05 E5                 3934 	push	hl
                           3935 ;	genCall
   0E06 CD 00 00           3936 	call	_set_sprite_prop
   0E09 E8 02              3937 	lda	sp,2(sp)
                           3938 ;	battle/battle.c 515
                           3939 ;	genIpush
                           3940 ; _saveRegsForCall: sendSetSize: 0 deInUse: 0 bcInUse: 0 deSending: 0
   0E0B 21 33 28           3941 	ld	hl,#0x2833
   0E0E E5                 3942 	push	hl
                           3943 ;	genIpush
   0E0F 3E 08              3944 	ld	a,#0x08
   0E11 F5                 3945 	push	af
   0E12 33                 3946 	inc	sp
                           3947 ;	genCall
   0E13 CD 00 00           3948 	call	_move_sprite
   0E16 E8 03              3949 	lda	sp,3(sp)
                           3950 ;	battle/battle.c 516
                           3951 ;	genIpush
                           3952 ; _saveRegsForCall: sendSetSize: 0 deInUse: 0 bcInUse: 0 deSending: 0
   0E18 21 33 30           3953 	ld	hl,#0x3033
   0E1B E5                 3954 	push	hl
                           3955 ;	genIpush
   0E1C 3E 09              3956 	ld	a,#0x09
   0E1E F5                 3957 	push	af
   0E1F 33                 3958 	inc	sp
                           3959 ;	genCall
   0E20 CD 00 00           3960 	call	_move_sprite
   0E23 E8 03              3961 	lda	sp,3(sp)
                           3962 ;	battle/battle.c 517
                           3963 ;	genPlus
                           3964 ;	AOP_HL for _sprite_width
                           3965 ;	genPlusIncr
                           3966 ;	Can't optimise plus by inc, falling back to the normal way
   0E25 21 00 00           3967 	ld	hl,#_sprite_width
   0E28 7E                 3968 	ld	a,(hl)
   0E29 C6 33              3969 	add	a,#0x33
   0E2B 4F                 3970 	ld	c,a
                           3971 ;	genIpush
                           3972 ; _saveRegsForCall: sendSetSize: 0 deInUse: 0 bcInUse: 1 deSending: 0
   0E2C C5                 3973 	push	bc
   0E2D 3E 28              3974 	ld	a,#0x28
   0E2F F5                 3975 	push	af
   0E30 33                 3976 	inc	sp
                           3977 ;	genIpush
   0E31 79                 3978 	ld	a,c
   0E32 F5                 3979 	push	af
   0E33 33                 3980 	inc	sp
                           3981 ;	genIpush
   0E34 3E 0A              3982 	ld	a,#0x0A
   0E36 F5                 3983 	push	af
   0E37 33                 3984 	inc	sp
                           3985 ;	genCall
   0E38 CD 00 00           3986 	call	_move_sprite
   0E3B E8 03              3987 	lda	sp,3(sp)
   0E3D E1                 3988 	pop	hl
   0E3E 4D                 3989 	ld	c,l
                           3990 ;	battle/battle.c 518
                           3991 ;	genIpush
                           3992 ; _saveRegsForCall: sendSetSize: 0 deInUse: 0 bcInUse: 0 deSending: 0
   0E3F 3E 30              3993 	ld	a,#0x30
   0E41 F5                 3994 	push	af
   0E42 33                 3995 	inc	sp
                           3996 ;	genIpush
   0E43 79                 3997 	ld	a,c
   0E44 F5                 3998 	push	af
   0E45 33                 3999 	inc	sp
                           4000 ;	genIpush
   0E46 3E 0B              4001 	ld	a,#0x0B
   0E48 F5                 4002 	push	af
   0E49 33                 4003 	inc	sp
                           4004 ;	genCall
   0E4A CD 00 00           4005 	call	_move_sprite
   0E4D E8 03              4006 	lda	sp,3(sp)
                           4007 ;	battle/battle.c 519
                           4008 ;	genIpush
                           4009 ; _saveRegsForCall: sendSetSize: 0 deInUse: 0 bcInUse: 0 deSending: 0
   0E4F 21 63 28           4010 	ld	hl,#0x2863
   0E52 E5                 4011 	push	hl
                           4012 ;	genIpush
   0E53 3E 0C              4013 	ld	a,#0x0C
   0E55 F5                 4014 	push	af
   0E56 33                 4015 	inc	sp
                           4016 ;	genCall
   0E57 CD 00 00           4017 	call	_move_sprite
   0E5A E8 03              4018 	lda	sp,3(sp)
                           4019 ;	battle/battle.c 520
                           4020 ;	genIpush
                           4021 ; _saveRegsForCall: sendSetSize: 0 deInUse: 0 bcInUse: 0 deSending: 0
   0E5C 21 63 30           4022 	ld	hl,#0x3063
   0E5F E5                 4023 	push	hl
                           4024 ;	genIpush
   0E60 3E 0D              4025 	ld	a,#0x0D
   0E62 F5                 4026 	push	af
   0E63 33                 4027 	inc	sp
                           4028 ;	genCall
   0E64 CD 00 00           4029 	call	_move_sprite
   0E67 E8 03              4030 	lda	sp,3(sp)
                           4031 ;	battle/battle.c 521
                           4032 ;	genPlus
                           4033 ;	AOP_HL for _sprite_width
                           4034 ;	genPlusIncr
                           4035 ;	Can't optimise plus by inc, falling back to the normal way
   0E69 21 00 00           4036 	ld	hl,#_sprite_width
   0E6C 7E                 4037 	ld	a,(hl)
   0E6D C6 63              4038 	add	a,#0x63
   0E6F 4F                 4039 	ld	c,a
                           4040 ;	genIpush
                           4041 ; _saveRegsForCall: sendSetSize: 0 deInUse: 0 bcInUse: 1 deSending: 0
   0E70 C5                 4042 	push	bc
   0E71 3E 28              4043 	ld	a,#0x28
   0E73 F5                 4044 	push	af
   0E74 33                 4045 	inc	sp
                           4046 ;	genIpush
   0E75 79                 4047 	ld	a,c
   0E76 F5                 4048 	push	af
   0E77 33                 4049 	inc	sp
                           4050 ;	genIpush
   0E78 3E 0E              4051 	ld	a,#0x0E
   0E7A F5                 4052 	push	af
   0E7B 33                 4053 	inc	sp
                           4054 ;	genCall
   0E7C CD 00 00           4055 	call	_move_sprite
   0E7F E8 03              4056 	lda	sp,3(sp)
   0E81 E1                 4057 	pop	hl
   0E82 4D                 4058 	ld	c,l
                           4059 ;	battle/battle.c 522
                           4060 ;	genIpush
                           4061 ; _saveRegsForCall: sendSetSize: 0 deInUse: 0 bcInUse: 0 deSending: 0
   0E83 3E 30              4062 	ld	a,#0x30
   0E85 F5                 4063 	push	af
   0E86 33                 4064 	inc	sp
                           4065 ;	genIpush
   0E87 79                 4066 	ld	a,c
   0E88 F5                 4067 	push	af
   0E89 33                 4068 	inc	sp
                           4069 ;	genIpush
   0E8A 3E 0F              4070 	ld	a,#0x0F
   0E8C F5                 4071 	push	af
   0E8D 33                 4072 	inc	sp
                           4073 ;	genCall
   0E8E CD 00 00           4074 	call	_move_sprite
   0E91 E8 03              4075 	lda	sp,3(sp)
                           4076 ;	genLabel
   0E93                    4077 00102$:
                           4078 ;	battle/battle.c 526
                           4079 ;	genIpush
                           4080 ; _saveRegsForCall: sendSetSize: 0 deInUse: 0 bcInUse: 0 deSending: 0
   0E93 21 00 00           4081 	ld	hl,#_fisherman_idle_back
   0E96 E5                 4082 	push	hl
                           4083 ;	genIpush
   0E97 21 12 02           4084 	ld	hl,#0x0212
   0E9A E5                 4085 	push	hl
                           4086 ;	genCall
   0E9B CD 00 00           4087 	call	_set_sprite_data
   0E9E E8 04              4088 	lda	sp,4(sp)
                           4089 ;	battle/battle.c 527
                           4090 ;	genIpush
                           4091 ; _saveRegsForCall: sendSetSize: 0 deInUse: 0 bcInUse: 0 deSending: 0
   0EA0 21 00 00           4092 	ld	hl,#_student_idle_back
   0EA3 E5                 4093 	push	hl
                           4094 ;	genIpush
   0EA4 21 14 02           4095 	ld	hl,#0x0214
   0EA7 E5                 4096 	push	hl
                           4097 ;	genCall
   0EA8 CD 00 00           4098 	call	_set_sprite_data
   0EAB E8 04              4099 	lda	sp,4(sp)
                           4100 ;	battle/battle.c 528
                           4101 ;	genIpush
                           4102 ; _saveRegsForCall: sendSetSize: 0 deInUse: 0 bcInUse: 0 deSending: 0
   0EAD 21 10 12           4103 	ld	hl,#0x1210
   0EB0 E5                 4104 	push	hl
                           4105 ;	genCall
   0EB1 CD 00 00           4106 	call	_set_sprite_tile
   0EB4 E8 02              4107 	lda	sp,2(sp)
                           4108 ;	battle/battle.c 529
                           4109 ;	genIpush
                           4110 ; _saveRegsForCall: sendSetSize: 0 deInUse: 0 bcInUse: 0 deSending: 0
   0EB6 21 11 13           4111 	ld	hl,#0x1311
   0EB9 E5                 4112 	push	hl
                           4113 ;	genCall
   0EBA CD 00 00           4114 	call	_set_sprite_tile
   0EBD E8 02              4115 	lda	sp,2(sp)
                           4116 ;	battle/battle.c 530
                           4117 ;	genIpush
                           4118 ; _saveRegsForCall: sendSetSize: 0 deInUse: 0 bcInUse: 0 deSending: 0
   0EBF 21 12 12           4119 	ld	hl,#0x1212
   0EC2 E5                 4120 	push	hl
                           4121 ;	genCall
   0EC3 CD 00 00           4122 	call	_set_sprite_tile
   0EC6 E8 02              4123 	lda	sp,2(sp)
                           4124 ;	battle/battle.c 531
                           4125 ;	genIpush
                           4126 ; _saveRegsForCall: sendSetSize: 0 deInUse: 0 bcInUse: 0 deSending: 0
   0EC8 21 13 13           4127 	ld	hl,#0x1313
   0ECB E5                 4128 	push	hl
                           4129 ;	genCall
   0ECC CD 00 00           4130 	call	_set_sprite_tile
   0ECF E8 02              4131 	lda	sp,2(sp)
                           4132 ;	battle/battle.c 532
                           4133 ;	genIpush
                           4134 ; _saveRegsForCall: sendSetSize: 0 deInUse: 0 bcInUse: 0 deSending: 0
   0ED1 21 14 14           4135 	ld	hl,#0x1414
   0ED4 E5                 4136 	push	hl
                           4137 ;	genCall
   0ED5 CD 00 00           4138 	call	_set_sprite_tile
   0ED8 E8 02              4139 	lda	sp,2(sp)
                           4140 ;	battle/battle.c 533
                           4141 ;	genIpush
                           4142 ; _saveRegsForCall: sendSetSize: 0 deInUse: 0 bcInUse: 0 deSending: 0
   0EDA 21 15 15           4143 	ld	hl,#0x1515
   0EDD E5                 4144 	push	hl
                           4145 ;	genCall
   0EDE CD 00 00           4146 	call	_set_sprite_tile
   0EE1 E8 02              4147 	lda	sp,2(sp)
                           4148 ;	battle/battle.c 534
                           4149 ;	genIpush
                           4150 ; _saveRegsForCall: sendSetSize: 0 deInUse: 0 bcInUse: 0 deSending: 0
   0EE3 21 16 14           4151 	ld	hl,#0x1416
   0EE6 E5                 4152 	push	hl
                           4153 ;	genCall
   0EE7 CD 00 00           4154 	call	_set_sprite_tile
   0EEA E8 02              4155 	lda	sp,2(sp)
                           4156 ;	battle/battle.c 535
                           4157 ;	genIpush
                           4158 ; _saveRegsForCall: sendSetSize: 0 deInUse: 0 bcInUse: 0 deSending: 0
   0EEC 21 17 15           4159 	ld	hl,#0x1517
   0EEF E5                 4160 	push	hl
                           4161 ;	genCall
   0EF0 CD 00 00           4162 	call	_set_sprite_tile
   0EF3 E8 02              4163 	lda	sp,2(sp)
                           4164 ;	battle/battle.c 536
                           4165 ;	genIpush
                           4166 ; _saveRegsForCall: sendSetSize: 0 deInUse: 0 bcInUse: 0 deSending: 0
   0EF5 21 12 20           4167 	ld	hl,#0x2012
   0EF8 E5                 4168 	push	hl
                           4169 ;	genCall
   0EF9 CD 00 00           4170 	call	_set_sprite_prop
   0EFC E8 02              4171 	lda	sp,2(sp)
                           4172 ;	battle/battle.c 537
                           4173 ;	genIpush
                           4174 ; _saveRegsForCall: sendSetSize: 0 deInUse: 0 bcInUse: 0 deSending: 0
   0EFE 21 13 20           4175 	ld	hl,#0x2013
   0F01 E5                 4176 	push	hl
                           4177 ;	genCall
   0F02 CD 00 00           4178 	call	_set_sprite_prop
   0F05 E8 02              4179 	lda	sp,2(sp)
                           4180 ;	battle/battle.c 538
                           4181 ;	genIpush
                           4182 ; _saveRegsForCall: sendSetSize: 0 deInUse: 0 bcInUse: 0 deSending: 0
   0F07 21 16 20           4183 	ld	hl,#0x2016
   0F0A E5                 4184 	push	hl
                           4185 ;	genCall
   0F0B CD 00 00           4186 	call	_set_sprite_prop
   0F0E E8 02              4187 	lda	sp,2(sp)
                           4188 ;	battle/battle.c 539
                           4189 ;	genIpush
                           4190 ; _saveRegsForCall: sendSetSize: 0 deInUse: 0 bcInUse: 0 deSending: 0
   0F10 21 17 20           4191 	ld	hl,#0x2017
   0F13 E5                 4192 	push	hl
                           4193 ;	genCall
   0F14 CD 00 00           4194 	call	_set_sprite_prop
   0F17 E8 02              4195 	lda	sp,2(sp)
                           4196 ;	battle/battle.c 540
                           4197 ;	genIpush
                           4198 ; _saveRegsForCall: sendSetSize: 0 deInUse: 0 bcInUse: 0 deSending: 0
   0F19 21 33 48           4199 	ld	hl,#0x4833
   0F1C E5                 4200 	push	hl
                           4201 ;	genIpush
   0F1D 3E 10              4202 	ld	a,#0x10
   0F1F F5                 4203 	push	af
   0F20 33                 4204 	inc	sp
                           4205 ;	genCall
   0F21 CD 00 00           4206 	call	_move_sprite
   0F24 E8 03              4207 	lda	sp,3(sp)
                           4208 ;	battle/battle.c 541
                           4209 ;	genIpush
                           4210 ; _saveRegsForCall: sendSetSize: 0 deInUse: 0 bcInUse: 0 deSending: 0
   0F26 21 33 50           4211 	ld	hl,#0x5033
   0F29 E5                 4212 	push	hl
                           4213 ;	genIpush
   0F2A 3E 11              4214 	ld	a,#0x11
   0F2C F5                 4215 	push	af
   0F2D 33                 4216 	inc	sp
                           4217 ;	genCall
   0F2E CD 00 00           4218 	call	_move_sprite
   0F31 E8 03              4219 	lda	sp,3(sp)
                           4220 ;	battle/battle.c 542
                           4221 ;	genPlus
                           4222 ;	AOP_HL for _sprite_width
                           4223 ;	genPlusIncr
                           4224 ;	Can't optimise plus by inc, falling back to the normal way
   0F33 21 00 00           4225 	ld	hl,#_sprite_width
   0F36 7E                 4226 	ld	a,(hl)
   0F37 C6 33              4227 	add	a,#0x33
   0F39 4F                 4228 	ld	c,a
                           4229 ;	genIpush
                           4230 ; _saveRegsForCall: sendSetSize: 0 deInUse: 0 bcInUse: 1 deSending: 0
   0F3A C5                 4231 	push	bc
   0F3B 3E 48              4232 	ld	a,#0x48
   0F3D F5                 4233 	push	af
   0F3E 33                 4234 	inc	sp
                           4235 ;	genIpush
   0F3F 79                 4236 	ld	a,c
   0F40 F5                 4237 	push	af
   0F41 33                 4238 	inc	sp
                           4239 ;	genIpush
   0F42 3E 12              4240 	ld	a,#0x12
   0F44 F5                 4241 	push	af
   0F45 33                 4242 	inc	sp
                           4243 ;	genCall
   0F46 CD 00 00           4244 	call	_move_sprite
   0F49 E8 03              4245 	lda	sp,3(sp)
   0F4B E1                 4246 	pop	hl
   0F4C 4D                 4247 	ld	c,l
                           4248 ;	battle/battle.c 543
                           4249 ;	genIpush
                           4250 ; _saveRegsForCall: sendSetSize: 0 deInUse: 0 bcInUse: 0 deSending: 0
   0F4D 3E 50              4251 	ld	a,#0x50
   0F4F F5                 4252 	push	af
   0F50 33                 4253 	inc	sp
                           4254 ;	genIpush
   0F51 79                 4255 	ld	a,c
   0F52 F5                 4256 	push	af
   0F53 33                 4257 	inc	sp
                           4258 ;	genIpush
   0F54 3E 13              4259 	ld	a,#0x13
   0F56 F5                 4260 	push	af
   0F57 33                 4261 	inc	sp
                           4262 ;	genCall
   0F58 CD 00 00           4263 	call	_move_sprite
   0F5B E8 03              4264 	lda	sp,3(sp)
                           4265 ;	battle/battle.c 544
                           4266 ;	genIpush
                           4267 ; _saveRegsForCall: sendSetSize: 0 deInUse: 0 bcInUse: 0 deSending: 0
   0F5D 21 63 48           4268 	ld	hl,#0x4863
   0F60 E5                 4269 	push	hl
                           4270 ;	genIpush
   0F61 3E 14              4271 	ld	a,#0x14
   0F63 F5                 4272 	push	af
   0F64 33                 4273 	inc	sp
                           4274 ;	genCall
   0F65 CD 00 00           4275 	call	_move_sprite
   0F68 E8 03              4276 	lda	sp,3(sp)
                           4277 ;	battle/battle.c 545
                           4278 ;	genIpush
                           4279 ; _saveRegsForCall: sendSetSize: 0 deInUse: 0 bcInUse: 0 deSending: 0
   0F6A 21 63 50           4280 	ld	hl,#0x5063
   0F6D E5                 4281 	push	hl
                           4282 ;	genIpush
   0F6E 3E 15              4283 	ld	a,#0x15
   0F70 F5                 4284 	push	af
   0F71 33                 4285 	inc	sp
                           4286 ;	genCall
   0F72 CD 00 00           4287 	call	_move_sprite
   0F75 E8 03              4288 	lda	sp,3(sp)
                           4289 ;	battle/battle.c 546
                           4290 ;	genPlus
                           4291 ;	AOP_HL for _sprite_width
                           4292 ;	genPlusIncr
                           4293 ;	Can't optimise plus by inc, falling back to the normal way
   0F77 21 00 00           4294 	ld	hl,#_sprite_width
   0F7A 7E                 4295 	ld	a,(hl)
   0F7B C6 63              4296 	add	a,#0x63
   0F7D 4F                 4297 	ld	c,a
                           4298 ;	genIpush
                           4299 ; _saveRegsForCall: sendSetSize: 0 deInUse: 0 bcInUse: 1 deSending: 0
   0F7E C5                 4300 	push	bc
   0F7F 3E 48              4301 	ld	a,#0x48
   0F81 F5                 4302 	push	af
   0F82 33                 4303 	inc	sp
                           4304 ;	genIpush
   0F83 79                 4305 	ld	a,c
   0F84 F5                 4306 	push	af
   0F85 33                 4307 	inc	sp
                           4308 ;	genIpush
   0F86 3E 16              4309 	ld	a,#0x16
   0F88 F5                 4310 	push	af
   0F89 33                 4311 	inc	sp
                           4312 ;	genCall
   0F8A CD 00 00           4313 	call	_move_sprite
   0F8D E8 03              4314 	lda	sp,3(sp)
   0F8F E1                 4315 	pop	hl
   0F90 4D                 4316 	ld	c,l
                           4317 ;	battle/battle.c 547
                           4318 ;	genIpush
                           4319 ; _saveRegsForCall: sendSetSize: 0 deInUse: 0 bcInUse: 0 deSending: 0
   0F91 3E 50              4320 	ld	a,#0x50
   0F93 F5                 4321 	push	af
   0F94 33                 4322 	inc	sp
                           4323 ;	genIpush
   0F95 79                 4324 	ld	a,c
   0F96 F5                 4325 	push	af
   0F97 33                 4326 	inc	sp
                           4327 ;	genIpush
   0F98 3E 17              4328 	ld	a,#0x17
   0F9A F5                 4329 	push	af
   0F9B 33                 4330 	inc	sp
                           4331 ;	genCall
   0F9C CD 00 00           4332 	call	_move_sprite
   0F9F E8 03              4333 	lda	sp,3(sp)
                           4334 ;	genLabel
   0FA1                    4335 00105$:
                           4336 ;	genEndFunction
                           4337 	
   0FA1 C9                 4338 	ret
   0FA2                    4339 ___sprite_setup_end:
                           4340 ;	battle/battle.c 554
                           4341 ;	genLabel
                           4342 ;	genFunction
                           4343 ;	---------------------------------
                           4344 ; Function npc_fight
                           4345 ; ---------------------------------
   0FA2                    4346 ___npc_fight_start:
   0FA2                    4347 _npc_fight:
   0FA2 E8 FC              4348 	lda	sp,-4(sp)
                           4349 ;	battle/battle.c 557
                           4350 ;	genCmpLt
                           4351 ;	AOP_HL for _npc_act
   0FA4 21 18 00           4352 	ld	hl,#_npc_act
   0FA7 7E                 4353 	ld	a,(hl)
   0FA8 FE 01              4354 	cp	#0x01
   0FAA 3E 00              4355 	ld	a,#0x00
   0FAC 17                 4356 	rla
   0FAD 4F                 4357 	ld	c,a
                           4358 ;	genIfx
   0FAE AF                 4359 	xor	a,a
   0FAF B1                 4360 	or	a,c
   0FB0 C2 64 10           4361 	jp	nz,00102$
                           4362 ;	genCmpLt
                           4363 ;	AOP_HL for _npc_acc
   0FB3 21 19 00           4364 	ld	hl,#_npc_acc
   0FB6 7E                 4365 	ld	a,(hl)
   0FB7 FE 01              4366 	cp	#0x01
   0FB9 DA 64 10           4367 	jp	c,00102$
                           4368 ;	battle/battle.c 559
                           4369 ;	genCall
                           4370 ; _saveRegsForCall: sendSetSize: 0 deInUse: 0 bcInUse: 1 deSending: 0
   0FBC C5                 4371 	push	bc
   0FBD CD 43 0B           4372 	call	_enemy_fight_anim
   0FC0 E1                 4373 	pop	hl
   0FC1 4D                 4374 	ld	c,l
                           4375 ;	battle/battle.c 560
                           4376 ;	genAssign
                           4377 ;	AOP_HL for _a
   0FC2 21 1E 00           4378 	ld	hl,#_a
   0FC5 36 00              4379 	ld	(hl),#0x00
                           4380 ;	genLabel
   0FC7                    4381 00115$:
                           4382 ;	genCmpLt
                           4383 ;	AOP_HL for _a
   0FC7 21 1E 00           4384 	ld	hl,#_a
   0FCA 7E                 4385 	ld	a,(hl)
   0FCB FE 06              4386 	cp	#0x06
   0FCD D2 10 10           4387 	jp	nc,00118$
                           4388 ;	battle/battle.c 562
                           4389 ;	genIpush
                           4390 ; _saveRegsForCall: sendSetSize: 0 deInUse: 0 bcInUse: 1 deSending: 0
   0FD0 C5                 4391 	push	bc
   0FD1 21 64 00           4392 	ld	hl,#0x0064
   0FD4 E5                 4393 	push	hl
                           4394 ;	genCall
   0FD5 CD 00 00           4395 	call	_delay
   0FD8 E8 02              4396 	lda	sp,2(sp)
   0FDA E1                 4397 	pop	hl
   0FDB 4D                 4398 	ld	c,l
                           4399 ;	battle/battle.c 563
                           4400 ;	genCall
                           4401 ; _saveRegsForCall: sendSetSize: 0 deInUse: 0 bcInUse: 1 deSending: 0
   0FDC C5                 4402 	push	bc
   0FDD CD 00 00           4403 	call	_display_off
   0FE0 E1                 4404 	pop	hl
   0FE1 4D                 4405 	ld	c,l
                           4406 ;	battle/battle.c 564
                           4407 ;	genIpush
                           4408 ; _saveRegsForCall: sendSetSize: 0 deInUse: 0 bcInUse: 1 deSending: 0
   0FE2 C5                 4409 	push	bc
   0FE3 21 64 00           4410 	ld	hl,#0x0064
   0FE6 E5                 4411 	push	hl
                           4412 ;	genCall
   0FE7 CD 00 00           4413 	call	_delay
   0FEA E8 02              4414 	lda	sp,2(sp)
   0FEC E1                 4415 	pop	hl
   0FED 4D                 4416 	ld	c,l
                           4417 ;	battle/battle.c 565
                           4418 ;	genAssign
                           4419 ;	AOP_STK for _npc_fight_sloc0_1_0
   0FEE F8 02              4420 	lda	hl,2(sp)
   0FF0 36 40              4421 	ld	(hl),#0x40
   0FF2 23                 4422 	inc	hl
   0FF3 36 FF              4423 	ld	(hl),#0xFF
                           4424 ;	genAssign
                           4425 ;	AOP_STK for _npc_fight_sloc1_1_0
   0FF5 F8 00              4426 	lda	hl,0(sp)
   0FF7 36 40              4427 	ld	(hl),#0x40
   0FF9 23                 4428 	inc	hl
   0FFA 36 FF              4429 	ld	(hl),#0xFF
                           4430 ;	genPointerGet
                           4431 ;	AOP_STK for _npc_fight_sloc1_1_0
   0FFC 2B                 4432 	dec	hl
   0FFD 5E                 4433 	ld	e,(hl)
   0FFE 23                 4434 	inc	hl
   0FFF 56                 4435 	ld	d,(hl)
   1000 1A                 4436 	ld	a,(de)
                           4437 ;	genOr
   1001 47                 4438 	ld	b,a
   1002 F6 80              4439 	or	a,#0x80
                           4440 ;	genAssign (pointer)
                           4441 ;	AOP_STK for _npc_fight_sloc0_1_0
   1004 23                 4442 	inc	hl
   1005 5E                 4443 	ld	e,(hl)
   1006 23                 4444 	inc	hl
   1007 56                 4445 	ld	d,(hl)
   1008 12                 4446 	ld	(de),a
                           4447 ;	battle/battle.c 560
                           4448 ;	genPlus
                           4449 ;	AOP_HL for _a
                           4450 ;	genPlusIncr
   1009 21 1E 00           4451 	ld	hl,#_a
   100C 34                 4452 	inc	(hl)
                           4453 ;	genGoto
   100D C3 C7 0F           4454 	jp	00115$
                           4455 ;	genLabel
   1010                    4456 00118$:
                           4457 ;	battle/battle.c 567
                           4458 ;	genCall
                           4459 ; _saveRegsForCall: sendSetSize: 0 deInUse: 0 bcInUse: 1 deSending: 0
   1010 C5                 4460 	push	bc
   1011 CD 00 00           4461 	call	_display_off
   1014 E1                 4462 	pop	hl
   1015 4D                 4463 	ld	c,l
                           4464 ;	battle/battle.c 568
                           4465 ;	genIpush
                           4466 ; _saveRegsForCall: sendSetSize: 0 deInUse: 0 bcInUse: 1 deSending: 0
   1016 C5                 4467 	push	bc
   1017 3E 00              4468 	ld	a,#0x00
   1019 F5                 4469 	push	af
   101A 33                 4470 	inc	sp
                           4471 ;	genCall
   101B CD 00 00           4472 	call	_sprite_clean
   101E E8 01              4473 	lda	sp,1(sp)
   1020 E1                 4474 	pop	hl
   1021 4D                 4475 	ld	c,l
                           4476 ;	battle/battle.c 569
                           4477 ;	genAssign
                           4478 ;	AOP_HL for _LETTER_COUNT
   1022 21 00 00           4479 	ld	hl,#_LETTER_COUNT
   1025 36 00              4480 	ld	(hl),#0x00
                           4481 ;	battle/battle.c 570
                           4482 ;	genIpush
                           4483 ; _saveRegsForCall: sendSetSize: 0 deInUse: 0 bcInUse: 1 deSending: 0
   1027 C5                 4484 	push	bc
   1028 21 3C 50           4485 	ld	hl,#0x503C
   102B E5                 4486 	push	hl
                           4487 ;	genIpush
   102C 21 8F 11           4488 	ld	hl,#__str_27
   102F E5                 4489 	push	hl
                           4490 ;	genCall
   1030 CD 00 00           4491 	call	_print
   1033 E8 04              4492 	lda	sp,4(sp)
   1035 E1                 4493 	pop	hl
   1036 4D                 4494 	ld	c,l
                           4495 ;	battle/battle.c 571
                           4496 ;	genCall
                           4497 ; _saveRegsForCall: sendSetSize: 0 deInUse: 0 bcInUse: 1 deSending: 0
   1037 C5                 4498 	push	bc
   1038 CD 7E 0C           4499 	call	_clear_screen
   103B E1                 4500 	pop	hl
   103C 4D                 4501 	ld	c,l
                           4502 ;	battle/battle.c 572
                           4503 ;	genAssign
                           4504 ;	AOP_STK for _npc_fight_sloc1_1_0
   103D F8 00              4505 	lda	hl,0(sp)
   103F 36 40              4506 	ld	(hl),#0x40
   1041 23                 4507 	inc	hl
   1042 36 FF              4508 	ld	(hl),#0xFF
                           4509 ;	genAssign
                           4510 ;	AOP_STK for _npc_fight_sloc0_1_0
   1044 23                 4511 	inc	hl
   1045 36 40              4512 	ld	(hl),#0x40
   1047 23                 4513 	inc	hl
   1048 36 FF              4514 	ld	(hl),#0xFF
                           4515 ;	genPointerGet
                           4516 ;	AOP_STK for _npc_fight_sloc0_1_0
   104A 2B                 4517 	dec	hl
   104B 5E                 4518 	ld	e,(hl)
   104C 23                 4519 	inc	hl
   104D 56                 4520 	ld	d,(hl)
   104E 1A                 4521 	ld	a,(de)
                           4522 ;	genOr
   104F 47                 4523 	ld	b,a
   1050 F6 80              4524 	or	a,#0x80
                           4525 ;	genAssign (pointer)
                           4526 ;	AOP_STK for _npc_fight_sloc1_1_0
   1052 F8 00              4527 	lda	hl,0(sp)
   1054 5E                 4528 	ld	e,(hl)
   1055 23                 4529 	inc	hl
   1056 56                 4530 	ld	d,(hl)
   1057 12                 4531 	ld	(de),a
                           4532 ;	battle/battle.c 573
                           4533 ;	genIpush
                           4534 ; _saveRegsForCall: sendSetSize: 0 deInUse: 0 bcInUse: 1 deSending: 0
   1058 C5                 4535 	push	bc
   1059 21 F4 01           4536 	ld	hl,#0x01F4
   105C E5                 4537 	push	hl
                           4538 ;	genCall
   105D CD 00 00           4539 	call	_delay
   1060 E8 02              4540 	lda	sp,2(sp)
   1062 E1                 4541 	pop	hl
   1063 4D                 4542 	ld	c,l
                           4543 ;	genLabel
   1064                    4544 00102$:
                           4545 ;	battle/battle.c 576
                           4546 ;	genIfx
   1064 AF                 4547 	xor	a,a
   1065 B1                 4548 	or	a,c
   1066 C2 F1 10           4549 	jp	nz,00105$
                           4550 ;	genCmpLt
                           4551 ;	AOP_HL for _npc_acc
   1069 21 19 00           4552 	ld	hl,#_npc_acc
   106C 7E                 4553 	ld	a,(hl)
   106D FE 01              4554 	cp	#0x01
   106F D2 F1 10           4555 	jp	nc,00105$
                           4556 ;	battle/battle.c 578
                           4557 ;	genCall
                           4558 ; _saveRegsForCall: sendSetSize: 0 deInUse: 0 bcInUse: 0 deSending: 0
   1072 CD 43 0B           4559 	call	_enemy_fight_anim
                           4560 ;	battle/battle.c 579
                           4561 ;	genAssign
                           4562 ;	AOP_HL for _a
   1075 21 1E 00           4563 	ld	hl,#_a
   1078 36 00              4564 	ld	(hl),#0x00
                           4565 ;	genLabel
   107A                    4566 00119$:
                           4567 ;	genCmpLt
                           4568 ;	AOP_HL for _a
   107A 21 1E 00           4569 	ld	hl,#_a
   107D 7E                 4570 	ld	a,(hl)
   107E FE 06              4571 	cp	#0x06
   1080 D2 B3 10           4572 	jp	nc,00122$
                           4573 ;	battle/battle.c 581
                           4574 ;	genIpush
                           4575 ; _saveRegsForCall: sendSetSize: 0 deInUse: 0 bcInUse: 0 deSending: 0
   1083 21 64 00           4576 	ld	hl,#0x0064
   1086 E5                 4577 	push	hl
                           4578 ;	genCall
   1087 CD 00 00           4579 	call	_delay
   108A E8 02              4580 	lda	sp,2(sp)
                           4581 ;	battle/battle.c 582
                           4582 ;	genCall
                           4583 ; _saveRegsForCall: sendSetSize: 0 deInUse: 0 bcInUse: 0 deSending: 0
   108C CD 00 00           4584 	call	_display_off
                           4585 ;	battle/battle.c 583
                           4586 ;	genIpush
                           4587 ; _saveRegsForCall: sendSetSize: 0 deInUse: 0 bcInUse: 0 deSending: 0
   108F 21 64 00           4588 	ld	hl,#0x0064
   1092 E5                 4589 	push	hl
                           4590 ;	genCall
   1093 CD 00 00           4591 	call	_delay
   1096 E8 02              4592 	lda	sp,2(sp)
                           4593 ;	battle/battle.c 584
                           4594 ;	genAssign
   1098 01 40 FF           4595 	ld	bc,#0xFF40
                           4596 ;	genAssign
                           4597 ;	AOP_STK for _npc_fight_sloc1_1_0
   109B F8 00              4598 	lda	hl,0(sp)
   109D 36 40              4599 	ld	(hl),#0x40
   109F 23                 4600 	inc	hl
   10A0 36 FF              4601 	ld	(hl),#0xFF
                           4602 ;	genPointerGet
                           4603 ;	AOP_STK for _npc_fight_sloc1_1_0
                           4604 ;	AOP_STK for _npc_fight_sloc0_1_0
   10A2 2B                 4605 	dec	hl
   10A3 5E                 4606 	ld	e,(hl)
   10A4 23                 4607 	inc	hl
   10A5 56                 4608 	ld	d,(hl)
   10A6 1A                 4609 	ld	a,(de)
   10A7 23                 4610 	inc	hl
                           4611 ;	genOr
                           4612 ;	AOP_STK for _npc_fight_sloc0_1_0
   10A8 77                 4613 	ld      (hl),a
                           4614 ; Removed redundent load
   10A9 F6 80              4615 	or	a,#0x80
                           4616 ;	genAssign (pointer)
   10AB 02                 4617 	ld	(bc),a
                           4618 ;	battle/battle.c 579
                           4619 ;	genPlus
                           4620 ;	AOP_HL for _a
                           4621 ;	genPlusIncr
   10AC 21 1E 00           4622 	ld	hl,#_a
   10AF 34                 4623 	inc	(hl)
                           4624 ;	genGoto
   10B0 C3 7A 10           4625 	jp	00119$
                           4626 ;	genLabel
   10B3                    4627 00122$:
                           4628 ;	battle/battle.c 586
                           4629 ;	genCall
                           4630 ; _saveRegsForCall: sendSetSize: 0 deInUse: 0 bcInUse: 0 deSending: 0
   10B3 CD 00 00           4631 	call	_display_off
                           4632 ;	battle/battle.c 587
                           4633 ;	genIpush
                           4634 ; _saveRegsForCall: sendSetSize: 0 deInUse: 0 bcInUse: 0 deSending: 0
   10B6 3E 00              4635 	ld	a,#0x00
   10B8 F5                 4636 	push	af
   10B9 33                 4637 	inc	sp
                           4638 ;	genCall
   10BA CD 00 00           4639 	call	_sprite_clean
   10BD E8 01              4640 	lda	sp,1(sp)
                           4641 ;	battle/battle.c 588
                           4642 ;	genAssign
                           4643 ;	AOP_HL for _LETTER_COUNT
   10BF 21 00 00           4644 	ld	hl,#_LETTER_COUNT
   10C2 36 00              4645 	ld	(hl),#0x00
                           4646 ;	battle/battle.c 589
                           4647 ;	genCall
                           4648 ; _saveRegsForCall: sendSetSize: 0 deInUse: 0 bcInUse: 0 deSending: 0
   10C4 CD 7E 0C           4649 	call	_clear_screen
                           4650 ;	battle/battle.c 590
                           4651 ;	genIpush
                           4652 ; _saveRegsForCall: sendSetSize: 0 deInUse: 0 bcInUse: 0 deSending: 0
   10C7 21 3C 50           4653 	ld	hl,#0x503C
   10CA E5                 4654 	push	hl
                           4655 ;	genIpush
   10CB 21 9B 11           4656 	ld	hl,#__str_28
   10CE E5                 4657 	push	hl
                           4658 ;	genCall
   10CF CD 00 00           4659 	call	_print
   10D2 E8 04              4660 	lda	sp,4(sp)
                           4661 ;	battle/battle.c 591
                           4662 ;	genAssign
   10D4 01 40 FF           4663 	ld	bc,#0xFF40
                           4664 ;	genAssign
                           4665 ;	AOP_STK for _npc_fight_sloc1_1_0
   10D7 F8 00              4666 	lda	hl,0(sp)
   10D9 36 40              4667 	ld	(hl),#0x40
   10DB 23                 4668 	inc	hl
   10DC 36 FF              4669 	ld	(hl),#0xFF
                           4670 ;	genPointerGet
                           4671 ;	AOP_STK for _npc_fight_sloc1_1_0
                           4672 ;	AOP_STK for _npc_fight_sloc0_1_0
   10DE 2B                 4673 	dec	hl
   10DF 5E                 4674 	ld	e,(hl)
   10E0 23                 4675 	inc	hl
   10E1 56                 4676 	ld	d,(hl)
   10E2 1A                 4677 	ld	a,(de)
   10E3 23                 4678 	inc	hl
                           4679 ;	genOr
                           4680 ;	AOP_STK for _npc_fight_sloc0_1_0
   10E4 77                 4681 	ld      (hl),a
                           4682 ; Removed redundent load
   10E5 F6 80              4683 	or	a,#0x80
                           4684 ;	genAssign (pointer)
   10E7 02                 4685 	ld	(bc),a
                           4686 ;	battle/battle.c 592
                           4687 ;	genIpush
                           4688 ; _saveRegsForCall: sendSetSize: 0 deInUse: 0 bcInUse: 0 deSending: 0
   10E8 21 F4 01           4689 	ld	hl,#0x01F4
   10EB E5                 4690 	push	hl
                           4691 ;	genCall
   10EC CD 00 00           4692 	call	_delay
   10EF E8 02              4693 	lda	sp,2(sp)
                           4694 ;	genLabel
   10F1                    4695 00105$:
                           4696 ;	battle/battle.c 596
                           4697 ;	genCmpEq
                           4698 ;	AOP_HL for _npc_act
                           4699 ; genCmpEq: left 1, right 1, result 0
   10F1 21 18 00           4700 	ld	hl,#_npc_act
   10F4 7E                 4701 	ld	a,(hl)
   10F5 B7                 4702 	or	a,a
   10F6 C2 8C 11           4703 	jp	nz,00123$
   10F9 18 03              4704 	jr	00138$
   10FB                    4705 00137$:
   10FB C3 8C 11           4706 	jp	00123$
   10FE                    4707 00138$:
                           4708 ;	battle/battle.c 598
                           4709 ;	genCall
                           4710 ; _saveRegsForCall: sendSetSize: 0 deInUse: 0 bcInUse: 0 deSending: 0
   10FE CD 00 00           4711 	call	_display_off
                           4712 ;	battle/battle.c 599
                           4713 ;	genCall
                           4714 ; _saveRegsForCall: sendSetSize: 0 deInUse: 0 bcInUse: 0 deSending: 0
   1101 CD 7E 0C           4715 	call	_clear_screen
                           4716 ;	battle/battle.c 600
                           4717 ;	genIpush
                           4718 ; _saveRegsForCall: sendSetSize: 0 deInUse: 0 bcInUse: 0 deSending: 0
   1104 3E 00              4719 	ld	a,#0x00
   1106 F5                 4720 	push	af
   1107 33                 4721 	inc	sp
                           4722 ;	genCall
   1108 CD 00 00           4723 	call	_sprite_clean
   110B E8 01              4724 	lda	sp,1(sp)
                           4725 ;	battle/battle.c 601
                           4726 ;	genAssign
                           4727 ;	AOP_HL for _LETTER_COUNT
   110D 21 00 00           4728 	ld	hl,#_LETTER_COUNT
   1110 36 00              4729 	ld	(hl),#0x00
                           4730 ;	battle/battle.c 602
                           4731 ;	genCmpEq
                           4732 ;	AOP_HL for _ENEMY
                           4733 ; genCmpEq: left 1, right 1, result 0
   1112 21 10 00           4734 	ld	hl,#_ENEMY
   1115 7E                 4735 	ld	a,(hl)
   1116 B7                 4736 	or	a,a
   1117 C2 2C 11           4737 	jp	nz,00108$
   111A 18 03              4738 	jr	00140$
   111C                    4739 00139$:
   111C C3 2C 11           4740 	jp	00108$
   111F                    4741 00140$:
                           4742 ;	battle/battle.c 603
                           4743 ;	genIpush
                           4744 ; _saveRegsForCall: sendSetSize: 0 deInUse: 0 bcInUse: 0 deSending: 0
   111F 21 38 4B           4745 	ld	hl,#0x4B38
   1122 E5                 4746 	push	hl
                           4747 ;	genIpush
   1123 21 A6 11           4748 	ld	hl,#__str_29
   1126 E5                 4749 	push	hl
                           4750 ;	genCall
   1127 CD 00 00           4751 	call	_print
   112A E8 04              4752 	lda	sp,4(sp)
                           4753 ;	genLabel
   112C                    4754 00108$:
                           4755 ;	battle/battle.c 604
                           4756 ;	genCmpEq
                           4757 ;	AOP_HL for _ENEMY
                           4758 ; genCmpEq: left 1, right 1, result 0
   112C 21 10 00           4759 	ld	hl,#_ENEMY
   112F 7E                 4760 	ld	a,(hl)
   1130 FE 01              4761 	cp	a,#0x01
   1132 C2 47 11           4762 	jp	nz,00110$
   1135 18 03              4763 	jr	00142$
   1137                    4764 00141$:
   1137 C3 47 11           4765 	jp	00110$
   113A                    4766 00142$:
                           4767 ;	battle/battle.c 605
                           4768 ;	genIpush
                           4769 ; _saveRegsForCall: sendSetSize: 0 deInUse: 0 bcInUse: 0 deSending: 0
   113A 21 38 4B           4770 	ld	hl,#0x4B38
   113D E5                 4771 	push	hl
                           4772 ;	genIpush
   113E 21 AE 11           4773 	ld	hl,#__str_30
   1141 E5                 4774 	push	hl
                           4775 ;	genCall
   1142 CD 00 00           4776 	call	_print
   1145 E8 04              4777 	lda	sp,4(sp)
                           4778 ;	genLabel
   1147                    4779 00110$:
                           4780 ;	battle/battle.c 606
                           4781 ;	genCmpEq
                           4782 ;	AOP_HL for _ENEMY
                           4783 ; genCmpEq: left 1, right 1, result 0
   1147 21 10 00           4784 	ld	hl,#_ENEMY
   114A 7E                 4785 	ld	a,(hl)
   114B FE 02              4786 	cp	a,#0x02
   114D C2 62 11           4787 	jp	nz,00112$
   1150 18 03              4788 	jr	00144$
   1152                    4789 00143$:
   1152 C3 62 11           4790 	jp	00112$
   1155                    4791 00144$:
                           4792 ;	battle/battle.c 607
                           4793 ;	genIpush
                           4794 ; _saveRegsForCall: sendSetSize: 0 deInUse: 0 bcInUse: 0 deSending: 0
   1155 21 38 4B           4795 	ld	hl,#0x4B38
   1158 E5                 4796 	push	hl
                           4797 ;	genIpush
   1159 21 B7 11           4798 	ld	hl,#__str_31
   115C E5                 4799 	push	hl
                           4800 ;	genCall
   115D CD 00 00           4801 	call	_print
   1160 E8 04              4802 	lda	sp,4(sp)
                           4803 ;	genLabel
   1162                    4804 00112$:
                           4805 ;	battle/battle.c 609
                           4806 ;	genIpush
                           4807 ; _saveRegsForCall: sendSetSize: 0 deInUse: 0 bcInUse: 0 deSending: 0
   1162 21 38 5B           4808 	ld	hl,#0x5B38
   1165 E5                 4809 	push	hl
                           4810 ;	genIpush
   1166 21 C1 11           4811 	ld	hl,#__str_32
   1169 E5                 4812 	push	hl
                           4813 ;	genCall
   116A CD 00 00           4814 	call	_print
   116D E8 04              4815 	lda	sp,4(sp)
                           4816 ;	battle/battle.c 610
                           4817 ;	genAssign
   116F 01 40 FF           4818 	ld	bc,#0xFF40
                           4819 ;	genAssign
                           4820 ;	AOP_STK for _npc_fight_sloc1_1_0
   1172 F8 00              4821 	lda	hl,0(sp)
   1174 36 40              4822 	ld	(hl),#0x40
   1176 23                 4823 	inc	hl
   1177 36 FF              4824 	ld	(hl),#0xFF
                           4825 ;	genPointerGet
                           4826 ;	AOP_STK for _npc_fight_sloc1_1_0
                           4827 ;	AOP_STK for _npc_fight_sloc0_1_0
   1179 2B                 4828 	dec	hl
   117A 5E                 4829 	ld	e,(hl)
   117B 23                 4830 	inc	hl
   117C 56                 4831 	ld	d,(hl)
   117D 1A                 4832 	ld	a,(de)
   117E 23                 4833 	inc	hl
                           4834 ;	genOr
                           4835 ;	AOP_STK for _npc_fight_sloc0_1_0
   117F 77                 4836 	ld      (hl),a
                           4837 ; Removed redundent load
   1180 F6 80              4838 	or	a,#0x80
                           4839 ;	genAssign (pointer)
   1182 02                 4840 	ld	(bc),a
                           4841 ;	battle/battle.c 611
                           4842 ;	genIpush
                           4843 ; _saveRegsForCall: sendSetSize: 0 deInUse: 0 bcInUse: 0 deSending: 0
   1183 21 20 03           4844 	ld	hl,#0x0320
   1186 E5                 4845 	push	hl
                           4846 ;	genCall
   1187 CD 00 00           4847 	call	_delay
   118A E8 02              4848 	lda	sp,2(sp)
                           4849 ;	genLabel
   118C                    4850 00123$:
                           4851 ;	genEndFunction
   118C E8 04              4852 	lda	sp,4(sp)
   118E C9                 4853 	ret
   118F                    4854 ___npc_fight_end:
   118F                    4855 __str_27:
   118F 59 4F 55 6B 52 45  4856 	.ascii "YOUkREiHITl"
        69 48 49 54 6C
   119A 00                 4857 	.db 0x00
   119B                    4858 __str_28:
   119B 54 48 45 59 69 4D  4859 	.ascii "THEYiMISSl"
        49 53 53 6C
   11A5 00                 4860 	.db 0x00
   11A6                    4861 __str_29:
   11A6 41 53 41 4B 41 57  4862 	.ascii "ASAKAWA"
        41
   11AD 00                 4863 	.db 0x00
   11AE                    4864 __str_30:
   11AE 54 48 45 69 43 52  4865 	.ascii "THEiCRAB"
        41 42
   11B6 00                 4866 	.db 0x00
   11B7                    4867 __str_31:
   11B7 4B 49 4E 47 69 43  4868 	.ascii "KINGiCRAB"
        52 41 42
   11C0 00                 4869 	.db 0x00
   11C1                    4870 __str_32:
   11C1 44 45 46 45 4E 44  4871 	.ascii "DEFENDS"
        53
   11C8 00                 4872 	.db 0x00
                           4873 ;	battle/battle.c 619
                           4874 ;	genLabel
                           4875 ;	genFunction
                           4876 ;	---------------------------------
                           4877 ; Function fight_config
                           4878 ; ---------------------------------
   11C9                    4879 ___fight_config_start:
   11C9                    4880 _fight_config:
                           4881 	
                           4882 ;	battle/battle.c 625
                           4883 ;	genAssign
   11C9 01 04 FF           4884 	ld	bc,#0xFF04
                           4885 ;	genPointerGet
   11CC 0A                 4886 	ld	a,(bc)
   11CD 4F                 4887 	ld	c,a
                           4888 ;	genCast
                           4889 ;	AOP_HL for _seed
   11CE 21 16 00           4890 	ld	hl,#_seed
   11D1 71                 4891 	ld	(hl),c
   11D2 23                 4892 	inc	hl
   11D3 36 00              4893 	ld	(hl),#0x00
                           4894 ;	battle/battle.c 626
                           4895 ;	genAssign
   11D5 01 04 FF           4896 	ld	bc,#0xFF04
                           4897 ;	genPointerGet
   11D8 0A                 4898 	ld	a,(bc)
   11D9 4F                 4899 	ld	c,a
                           4900 ;	genCast
                           4901 ; Removed redundent load
   11DA 06 00              4902 	ld	b,#0x00
                           4903 ;	genLeftShift
   11DC 41                 4904 	ld	b,c
   11DD 0E 00              4905 	ld	c,#0x00
                           4906 ;	genOr
                           4907 ;	AOP_HL for _seed
   11DF 2B                 4908 	dec	hl
   11E0 7E                 4909 	ld	a,(hl)
   11E1 B1                 4910 	or	a,c
   11E2 22                 4911 	ld	(hl+),a
   11E3 7E                 4912 	ld	a,(hl)
   11E4 B0                 4913 	or	a,b
                           4914 ;	battle/battle.c 627
                           4915 ;	genIpush
                           4916 ; _saveRegsForCall: sendSetSize: 0 deInUse: 0 bcInUse: 0 deSending: 0
                           4917 ;	AOP_HL for _seed
   11E5 32                 4918 	ld      (hl-),a
   11E6 2A                 4919 	ld	a,(hl+)
   11E7 66                 4920 	ld	h,(hl)
   11E8 6F                 4921 	ld	l,a
   11E9 E5                 4922 	push	hl
                           4923 ;	genCall
   11EA CD 00 00           4924 	call	_initarand
   11ED E8 02              4925 	lda	sp,2(sp)
                           4926 ;	battle/battle.c 629
                           4927 ;	genCall
                           4928 ; _saveRegsForCall: sendSetSize: 0 deInUse: 0 bcInUse: 0 deSending: 0
   11EF CD 00 00           4929 	call	_rand
   11F2 4B                 4930 	ld	c,e
                           4931 ;	genIpush
                           4932 ; _saveRegsForCall: sendSetSize: 0 deInUse: 0 bcInUse: 0 deSending: 0
   11F3 3E 05              4933 	ld	a,#0x05
   11F5 F5                 4934 	push	af
   11F6 33                 4935 	inc	sp
                           4936 ;	genIpush
   11F7 79                 4937 	ld	a,c
   11F8 F5                 4938 	push	af
   11F9 33                 4939 	inc	sp
                           4940 ;	genCall
   11FA CD 00 00           4941 	call	__modschar_rrx_s
                           4942 ;	AOP_HL for _npc_act
   11FD 21 18 00           4943 	ld	hl,#_npc_act
   1200 73                 4944 	ld	(hl),e
   1201 E8 02              4945 	lda	sp,2(sp)
                           4946 ;	battle/battle.c 631
                           4947 ;	genCall
                           4948 ; _saveRegsForCall: sendSetSize: 0 deInUse: 0 bcInUse: 0 deSending: 0
   1203 CD 00 00           4949 	call	_rand
   1206 4B                 4950 	ld	c,e
                           4951 ;	genIpush
                           4952 ; _saveRegsForCall: sendSetSize: 0 deInUse: 0 bcInUse: 0 deSending: 0
   1207 3E 05              4953 	ld	a,#0x05
   1209 F5                 4954 	push	af
   120A 33                 4955 	inc	sp
                           4956 ;	genIpush
   120B 79                 4957 	ld	a,c
   120C F5                 4958 	push	af
   120D 33                 4959 	inc	sp
                           4960 ;	genCall
   120E CD 00 00           4961 	call	__modschar_rrx_s
                           4962 ;	AOP_HL for _npc_acc
   1211 21 19 00           4963 	ld	hl,#_npc_acc
   1214 73                 4964 	ld	(hl),e
   1215 E8 02              4965 	lda	sp,2(sp)
                           4966 ;	battle/battle.c 633
                           4967 ;	genCall
                           4968 ; _saveRegsForCall: sendSetSize: 0 deInUse: 0 bcInUse: 0 deSending: 0
   1217 CD 00 00           4969 	call	_rand
   121A 4B                 4970 	ld	c,e
                           4971 ;	genIpush
                           4972 ; _saveRegsForCall: sendSetSize: 0 deInUse: 0 bcInUse: 0 deSending: 0
   121B 3E 0A              4973 	ld	a,#0x0A
   121D F5                 4974 	push	af
   121E 33                 4975 	inc	sp
                           4976 ;	genIpush
   121F 79                 4977 	ld	a,c
   1220 F5                 4978 	push	af
   1221 33                 4979 	inc	sp
                           4980 ;	genCall
   1222 CD 00 00           4981 	call	__modschar_rrx_s
                           4982 ;	AOP_HL for _hero_acc
   1225 21 1A 00           4983 	ld	hl,#_hero_acc
   1228 73                 4984 	ld	(hl),e
   1229 E8 02              4985 	lda	sp,2(sp)
                           4986 ;	battle/battle.c 635
                           4987 ;	genCall
                           4988 ; _saveRegsForCall: sendSetSize: 0 deInUse: 0 bcInUse: 0 deSending: 0
   122B CD 00 00           4989 	call	_rand
   122E 4B                 4990 	ld	c,e
                           4991 ;	genIpush
                           4992 ; _saveRegsForCall: sendSetSize: 0 deInUse: 0 bcInUse: 0 deSending: 0
   122F 3E 05              4993 	ld	a,#0x05
   1231 F5                 4994 	push	af
   1232 33                 4995 	inc	sp
                           4996 ;	genIpush
   1233 79                 4997 	ld	a,c
   1234 F5                 4998 	push	af
   1235 33                 4999 	inc	sp
                           5000 ;	genCall
   1236 CD 00 00           5001 	call	__modschar_rrx_s
                           5002 ;	AOP_HL for _first_fighter
   1239 21 1B 00           5003 	ld	hl,#_first_fighter
   123C 73                 5004 	ld	(hl),e
   123D E8 02              5005 	lda	sp,2(sp)
                           5006 ;	genLabel
   123F                    5007 00101$:
                           5008 ;	genEndFunction
                           5009 	
   123F C9                 5010 	ret
   1240                    5011 ___fight_config_end:
                           5012 ;	battle/battle.c 640
                           5013 ;	genLabel
                           5014 ;	genFunction
                           5015 ;	---------------------------------
                           5016 ; Function damage
                           5017 ; ---------------------------------
   1240                    5018 ___damage_start:
   1240                    5019 _damage:
   1240 E8 FE              5020 	lda	sp,-2(sp)
                           5021 ;	battle/battle.c 642
                           5022 ;	genCmpEq
                           5023 ;	AOP_HL for _start_hp
                           5024 ; genCmpEq: left 1, right 1, result 0
   1242 21 00 00           5025 	ld	hl,#_start_hp
   1245 7E                 5026 	ld	a,(hl)
   1246 FE 32              5027 	cp	a,#0x32
   1248 C2 55 12           5028 	jp	nz,00102$
   124B 18 03              5029 	jr	00220$
   124D                    5030 00219$:
   124D C3 55 12           5031 	jp	00102$
   1250                    5032 00220$:
                           5033 ;	battle/battle.c 643
                           5034 ;	genAssign
                           5035 ;	AOP_HL for _SHOOT
   1250 21 05 00           5036 	ld	hl,#_SHOOT
   1253 36 1E              5037 	ld	(hl),#0x1E
                           5038 ;	genLabel
   1255                    5039 00102$:
                           5040 ;	battle/battle.c 644
                           5041 ;	genCmpEq
                           5042 ;	AOP_HL for _start_hp
                           5043 ; genCmpEq: left 1, right 1, result 0
   1255 21 00 00           5044 	ld	hl,#_start_hp
   1258 7E                 5045 	ld	a,(hl)
   1259 FE 64              5046 	cp	a,#0x64
   125B C2 68 12           5047 	jp	nz,00104$
   125E 18 03              5048 	jr	00222$
   1260                    5049 00221$:
   1260 C3 68 12           5050 	jp	00104$
   1263                    5051 00222$:
                           5052 ;	battle/battle.c 645
                           5053 ;	genAssign
                           5054 ;	AOP_HL for _SHOOT
   1263 21 05 00           5055 	ld	hl,#_SHOOT
   1266 36 0A              5056 	ld	(hl),#0x0A
                           5057 ;	genLabel
   1268                    5058 00104$:
                           5059 ;	battle/battle.c 646
                           5060 ;	genCmpEq
                           5061 ;	AOP_HL for _ENEMY
                           5062 ; genCmpEq: left 1, right 1, result 0
   1268 21 10 00           5063 	ld	hl,#_ENEMY
   126B 7E                 5064 	ld	a,(hl)
   126C B7                 5065 	or	a,a
   126D C2 48 13           5066 	jp	nz,00120$
   1270 18 03              5067 	jr	00224$
   1272                    5068 00223$:
   1272 C3 48 13           5069 	jp	00120$
   1275                    5070 00224$:
                           5071 ;	battle/battle.c 648
                           5072 ;	genCmpEq
                           5073 ;	AOP_HL for _choice
                           5074 ;	AOP_HL for _DEFEND
                           5075 ; genCmpEq: left 1, right 1, result 0
   1275 21 01 00           5076 	ld	hl,#_DEFEND
   1278 7E                 5077 	ld	a,(hl)
   1279 21 00 00           5078 	ld	hl,#_choice
   127C BE                 5079 	cp	(hl)
   127D 20 02              5080 	jr	nz,00225$
   127F 18 03              5081 	jr	00226$
   1281                    5082 00225$:
   1281 C3 DA 12           5083 	jp	00115$
   1284                    5084 00226$:
                           5085 ;	genCmpLt
                           5086 ;	AOP_HL for _npc_acc
   1284 21 19 00           5087 	ld	hl,#_npc_acc
   1287 7E                 5088 	ld	a,(hl)
   1288 FE 01              5089 	cp	#0x01
   128A DA DA 12           5090 	jp	c,00115$
                           5091 ;	genCmpLt
                           5092 ;	AOP_HL for _npc_act
   128D 21 18 00           5093 	ld	hl,#_npc_act
   1290 7E                 5094 	ld	a,(hl)
   1291 FE 01              5095 	cp	#0x01
   1293 DA DA 12           5096 	jp	c,00115$
                           5097 ;	battle/battle.c 650
                           5098 ;	genMinus
                           5099 ;	AOP_HL for _SHOOT
                           5100 ;	AOP_HL for _DEFEND
                           5101 ;	AOP_HL for _i
   1296 21 05 00           5102 	ld	hl,#_SHOOT
   1299 7E                 5103 	ld	a,(hl)
   129A 21 01 00           5104 	ld	hl,#_DEFEND
   129D 96                 5105 	sub	a,(hl)
   129E 21 00 00           5106 	ld	hl,#_i
   12A1 77                 5107 	ld	(hl),a
                           5108 ;	genLabel
   12A2                    5109 00153$:
                           5110 ;	genCmpGt
                           5111 ;	AOP_HL for _i
   12A2 3E 00              5112 	ld	a,#0x00
   12A4 21 00 00           5113 	ld	hl,#_i
   12A7 96                 5114 	sub	a,(hl)
   12A8 D2 48 13           5115 	jp	nc,00120$
                           5116 ;	battle/battle.c 652
                           5117 ;	genAssign
                           5118 ;	AOP_STK for 
   12AB F8 04              5119 	lda	hl,4(sp)
   12AD 4E                 5120 	ld	c,(hl)
   12AE 23                 5121 	inc	hl
   12AF 46                 5122 	ld	b,(hl)
                           5123 ;	genPointerGet
                           5124 ;	AOP_STK for _damage_sloc0_1_0
   12B0 0A                 5125 	ld	a,(bc)
   12B1 F8 01              5126 	lda	hl,1(sp)
                           5127 ;	genMinus
                           5128 ;	AOP_STK for _damage_sloc0_1_0
                           5129 ;	AOP_STK for _damage_sloc1_1_0
   12B3 77                 5130 	ld      (hl),a
                           5131 ; Removed redundent load
   12B4 C6 FF              5132 	add	a,#0xFF
   12B6 2B                 5133 	dec	hl
                           5134 ;	genAssign (pointer)
                           5135 ;	AOP_STK for _damage_sloc1_1_0
   12B7 77                 5136 	ld      (hl),a
                           5137 ; Removed redundent load
   12B8 02                 5138 	ld	(bc),a
                           5139 ;	battle/battle.c 653
                           5140 ;	genCmpEq
                           5141 ;	AOP_STK for _damage_sloc1_1_0
                           5142 ; genCmpEq: left 1, right 1, result 0
   12B9 7E                 5143 	ld	a,(hl)
   12BA B7                 5144 	or	a,a
   12BB C2 D3 12           5145 	jp	nz,00155$
   12BE 18 03              5146 	jr	00228$
   12C0                    5147 00227$:
   12C0 C3 D3 12           5148 	jp	00155$
   12C3                    5149 00228$:
                           5150 ;	battle/battle.c 655
                           5151 ;	genAssign
                           5152 ;	AOP_HL for _GAME_OVER
                           5153 ;	AOP_HL for _option
   12C3 21 00 00           5154 	ld	hl,#_GAME_OVER
   12C6 7E                 5155 	ld	a,(hl)
   12C7 21 00 00           5156 	ld	hl,#_option
   12CA 77                 5157 	ld	(hl),a
                           5158 ;	battle/battle.c 656
                           5159 ;	genAssign
                           5160 ;	AOP_HL for _DEAD
                           5161 ;	AOP_HL for _STATE
   12CB 21 0E 00           5162 	ld	hl,#_DEAD
   12CE 7E                 5163 	ld	a,(hl)
   12CF 21 00 00           5164 	ld	hl,#_STATE
   12D2 77                 5165 	ld	(hl),a
                           5166 ;	genLabel
   12D3                    5167 00155$:
                           5168 ;	battle/battle.c 650
                           5169 ;	genMinus
                           5170 ;	AOP_HL for _i
   12D3 21 00 00           5171 	ld	hl,#_i
   12D6 35                 5172 	dec	(hl)
                           5173 ;	genGoto
   12D7 C3 A2 12           5174 	jp	00153$
                           5175 ;	genLabel
   12DA                    5176 00115$:
                           5177 ;	battle/battle.c 660
                           5178 ;	genCmpLt
                           5179 ;	AOP_HL for _npc_acc
   12DA 21 19 00           5180 	ld	hl,#_npc_acc
   12DD 7E                 5181 	ld	a,(hl)
   12DE FE 01              5182 	cp	#0x01
   12E0 DA F9 12           5183 	jp	c,00113$
                           5184 ;	genCmpLt
                           5185 ;	AOP_HL for _npc_act
   12E3 21 18 00           5186 	ld	hl,#_npc_act
   12E6 7E                 5187 	ld	a,(hl)
   12E7 FE 01              5188 	cp	#0x01
   12E9 DA F9 12           5189 	jp	c,00113$
                           5190 ;	genCmpEq
                           5191 ;	AOP_HL for _choice
                           5192 ;	AOP_HL for _PUNCH
                           5193 ; genCmpEq: left 1, right 1, result 0
   12EC 21 00 00           5194 	ld	hl,#_PUNCH
   12EF 7E                 5195 	ld	a,(hl)
   12F0 21 00 00           5196 	ld	hl,#_choice
   12F3 BE                 5197 	cp	(hl)
   12F4 20 03              5198 	jr	nz,00229$
   12F6 C3 08 13           5199 	jp	00109$
   12F9                    5200 00229$:
                           5201 ;	genLabel
   12F9                    5202 00113$:
                           5203 ;	battle/battle.c 661
                           5204 ;	genCmpEq
                           5205 ;	AOP_HL for _choice
                           5206 ;	AOP_HL for _ITEM
                           5207 ; genCmpEq: left 1, right 1, result 0
   12F9 21 02 00           5208 	ld	hl,#_ITEM
   12FC 7E                 5209 	ld	a,(hl)
   12FD 21 00 00           5210 	ld	hl,#_choice
   1300 BE                 5211 	cp	(hl)
   1301 20 02              5212 	jr	nz,00230$
   1303 18 03              5213 	jr	00231$
   1305                    5214 00230$:
   1305 C3 48 13           5215 	jp	00120$
   1308                    5216 00231$:
                           5217 ;	genLabel
   1308                    5218 00109$:
                           5219 ;	battle/battle.c 663
                           5220 ;	genAssign
                           5221 ;	AOP_HL for _SHOOT
                           5222 ;	AOP_HL for _i
   1308 21 05 00           5223 	ld	hl,#_SHOOT
   130B 7E                 5224 	ld	a,(hl)
   130C 21 00 00           5225 	ld	hl,#_i
   130F 77                 5226 	ld	(hl),a
                           5227 ;	genLabel
   1310                    5228 00157$:
                           5229 ;	genCmpGt
                           5230 ;	AOP_HL for _i
   1310 3E 00              5231 	ld	a,#0x00
   1312 21 00 00           5232 	ld	hl,#_i
   1315 96                 5233 	sub	a,(hl)
   1316 D2 48 13           5234 	jp	nc,00120$
                           5235 ;	battle/battle.c 665
                           5236 ;	genAssign
                           5237 ;	AOP_STK for 
   1319 F8 04              5238 	lda	hl,4(sp)
   131B 4E                 5239 	ld	c,(hl)
   131C 23                 5240 	inc	hl
   131D 46                 5241 	ld	b,(hl)
                           5242 ;	genPointerGet
                           5243 ;	AOP_STK for _damage_sloc1_1_0
   131E 0A                 5244 	ld	a,(bc)
   131F F8 00              5245 	lda	hl,0(sp)
                           5246 ;	genMinus
                           5247 ;	AOP_STK for _damage_sloc1_1_0
                           5248 ;	AOP_STK for _damage_sloc0_1_0
   1321 77                 5249 	ld      (hl),a
                           5250 ; Removed redundent load
   1322 C6 FF              5251 	add	a,#0xFF
   1324 23                 5252 	inc	hl
                           5253 ;	genAssign (pointer)
                           5254 ;	AOP_STK for _damage_sloc0_1_0
   1325 77                 5255 	ld      (hl),a
                           5256 ; Removed redundent load
   1326 02                 5257 	ld	(bc),a
                           5258 ;	battle/battle.c 666
                           5259 ;	genCmpEq
                           5260 ;	AOP_STK for _damage_sloc0_1_0
                           5261 ; genCmpEq: left 1, right 1, result 0
   1327 7E                 5262 	ld	a,(hl)
   1328 B7                 5263 	or	a,a
   1329 C2 41 13           5264 	jp	nz,00159$
   132C 18 03              5265 	jr	00233$
   132E                    5266 00232$:
   132E C3 41 13           5267 	jp	00159$
   1331                    5268 00233$:
                           5269 ;	battle/battle.c 668
                           5270 ;	genAssign
                           5271 ;	AOP_HL for _GAME_OVER
                           5272 ;	AOP_HL for _option
   1331 21 00 00           5273 	ld	hl,#_GAME_OVER
   1334 7E                 5274 	ld	a,(hl)
   1335 21 00 00           5275 	ld	hl,#_option
   1338 77                 5276 	ld	(hl),a
                           5277 ;	battle/battle.c 669
                           5278 ;	genAssign
                           5279 ;	AOP_HL for _DEAD
                           5280 ;	AOP_HL for _STATE
   1339 21 0E 00           5281 	ld	hl,#_DEAD
   133C 7E                 5282 	ld	a,(hl)
   133D 21 00 00           5283 	ld	hl,#_STATE
   1340 77                 5284 	ld	(hl),a
                           5285 ;	genLabel
   1341                    5286 00159$:
                           5287 ;	battle/battle.c 663
                           5288 ;	genMinus
                           5289 ;	AOP_HL for _i
   1341 21 00 00           5290 	ld	hl,#_i
   1344 35                 5291 	dec	(hl)
                           5292 ;	genGoto
   1345 C3 10 13           5293 	jp	00157$
                           5294 ;	genLabel
   1348                    5295 00120$:
                           5296 ;	battle/battle.c 674
                           5297 ;	genCmpEq
                           5298 ;	AOP_HL for _ENEMY
                           5299 ; genCmpEq: left 1, right 1, result 0
   1348 21 10 00           5300 	ld	hl,#_ENEMY
   134B 7E                 5301 	ld	a,(hl)
   134C FE 01              5302 	cp	a,#0x01
   134E C2 29 14           5303 	jp	nz,00136$
   1351 18 03              5304 	jr	00235$
   1353                    5305 00234$:
   1353 C3 29 14           5306 	jp	00136$
   1356                    5307 00235$:
                           5308 ;	battle/battle.c 676
                           5309 ;	genCmpEq
                           5310 ;	AOP_HL for _choice
                           5311 ;	AOP_HL for _DEFEND
                           5312 ; genCmpEq: left 1, right 1, result 0
   1356 21 01 00           5313 	ld	hl,#_DEFEND
   1359 7E                 5314 	ld	a,(hl)
   135A 21 00 00           5315 	ld	hl,#_choice
   135D BE                 5316 	cp	(hl)
   135E 20 02              5317 	jr	nz,00236$
   1360 18 03              5318 	jr	00237$
   1362                    5319 00236$:
   1362 C3 BB 13           5320 	jp	00131$
   1365                    5321 00237$:
                           5322 ;	genCmpLt
                           5323 ;	AOP_HL for _npc_acc
   1365 21 19 00           5324 	ld	hl,#_npc_acc
   1368 7E                 5325 	ld	a,(hl)
   1369 FE 01              5326 	cp	#0x01
   136B DA BB 13           5327 	jp	c,00131$
                           5328 ;	genCmpLt
                           5329 ;	AOP_HL for _npc_act
   136E 21 18 00           5330 	ld	hl,#_npc_act
   1371 7E                 5331 	ld	a,(hl)
   1372 FE 01              5332 	cp	#0x01
   1374 DA BB 13           5333 	jp	c,00131$
                           5334 ;	battle/battle.c 678
                           5335 ;	genMinus
                           5336 ;	AOP_HL for _CLAW
                           5337 ;	AOP_HL for _DEFEND
                           5338 ;	AOP_HL for _i
   1377 21 06 00           5339 	ld	hl,#_CLAW
   137A 7E                 5340 	ld	a,(hl)
   137B 21 01 00           5341 	ld	hl,#_DEFEND
   137E 96                 5342 	sub	a,(hl)
   137F 21 00 00           5343 	ld	hl,#_i
   1382 77                 5344 	ld	(hl),a
                           5345 ;	genLabel
   1383                    5346 00161$:
                           5347 ;	genCmpGt
                           5348 ;	AOP_HL for _i
   1383 3E 00              5349 	ld	a,#0x00
   1385 21 00 00           5350 	ld	hl,#_i
   1388 96                 5351 	sub	a,(hl)
   1389 D2 29 14           5352 	jp	nc,00136$
                           5353 ;	battle/battle.c 680
                           5354 ;	genAssign
                           5355 ;	AOP_STK for 
   138C F8 04              5356 	lda	hl,4(sp)
   138E 4E                 5357 	ld	c,(hl)
   138F 23                 5358 	inc	hl
   1390 46                 5359 	ld	b,(hl)
                           5360 ;	genPointerGet
                           5361 ;	AOP_STK for _damage_sloc1_1_0
   1391 0A                 5362 	ld	a,(bc)
   1392 F8 00              5363 	lda	hl,0(sp)
                           5364 ;	genMinus
                           5365 ;	AOP_STK for _damage_sloc1_1_0
                           5366 ;	AOP_STK for _damage_sloc0_1_0
   1394 77                 5367 	ld      (hl),a
                           5368 ; Removed redundent load
   1395 C6 FF              5369 	add	a,#0xFF
   1397 23                 5370 	inc	hl
                           5371 ;	genAssign (pointer)
                           5372 ;	AOP_STK for _damage_sloc0_1_0
   1398 77                 5373 	ld      (hl),a
                           5374 ; Removed redundent load
   1399 02                 5375 	ld	(bc),a
                           5376 ;	battle/battle.c 681
                           5377 ;	genCmpEq
                           5378 ;	AOP_STK for _damage_sloc0_1_0
                           5379 ; genCmpEq: left 1, right 1, result 0
   139A 7E                 5380 	ld	a,(hl)
   139B B7                 5381 	or	a,a
   139C C2 B4 13           5382 	jp	nz,00163$
   139F 18 03              5383 	jr	00239$
   13A1                    5384 00238$:
   13A1 C3 B4 13           5385 	jp	00163$
   13A4                    5386 00239$:
                           5387 ;	battle/battle.c 683
                           5388 ;	genAssign
                           5389 ;	AOP_HL for _GAME_OVER
                           5390 ;	AOP_HL for _option
   13A4 21 00 00           5391 	ld	hl,#_GAME_OVER
   13A7 7E                 5392 	ld	a,(hl)
   13A8 21 00 00           5393 	ld	hl,#_option
   13AB 77                 5394 	ld	(hl),a
                           5395 ;	battle/battle.c 684
                           5396 ;	genAssign
                           5397 ;	AOP_HL for _DEAD
                           5398 ;	AOP_HL for _STATE
   13AC 21 0E 00           5399 	ld	hl,#_DEAD
   13AF 7E                 5400 	ld	a,(hl)
   13B0 21 00 00           5401 	ld	hl,#_STATE
   13B3 77                 5402 	ld	(hl),a
                           5403 ;	genLabel
   13B4                    5404 00163$:
                           5405 ;	battle/battle.c 678
                           5406 ;	genMinus
                           5407 ;	AOP_HL for _i
   13B4 21 00 00           5408 	ld	hl,#_i
   13B7 35                 5409 	dec	(hl)
                           5410 ;	genGoto
   13B8 C3 83 13           5411 	jp	00161$
                           5412 ;	genLabel
   13BB                    5413 00131$:
                           5414 ;	battle/battle.c 688
                           5415 ;	genCmpLt
                           5416 ;	AOP_HL for _npc_acc
   13BB 21 19 00           5417 	ld	hl,#_npc_acc
   13BE 7E                 5418 	ld	a,(hl)
   13BF FE 01              5419 	cp	#0x01
   13C1 DA 29 14           5420 	jp	c,00136$
                           5421 ;	genCmpLt
                           5422 ;	AOP_HL for _npc_act
   13C4 21 18 00           5423 	ld	hl,#_npc_act
   13C7 7E                 5424 	ld	a,(hl)
   13C8 FE 01              5425 	cp	#0x01
   13CA DA 29 14           5426 	jp	c,00136$
                           5427 ;	genCmpEq
                           5428 ;	AOP_HL for _choice
                           5429 ;	AOP_HL for _PUNCH
                           5430 ; genCmpEq: left 1, right 1, result 0
   13CD 21 00 00           5431 	ld	hl,#_PUNCH
   13D0 7E                 5432 	ld	a,(hl)
   13D1 21 00 00           5433 	ld	hl,#_choice
   13D4 BE                 5434 	cp	(hl)
   13D5 20 03              5435 	jr	nz,00240$
   13D7 C3 E9 13           5436 	jp	00125$
   13DA                    5437 00240$:
                           5438 ;	battle/battle.c 689
                           5439 ;	genCmpEq
                           5440 ;	AOP_HL for _choice
                           5441 ;	AOP_HL for _ITEM
                           5442 ; genCmpEq: left 1, right 1, result 0
   13DA 21 02 00           5443 	ld	hl,#_ITEM
   13DD 7E                 5444 	ld	a,(hl)
   13DE 21 00 00           5445 	ld	hl,#_choice
   13E1 BE                 5446 	cp	(hl)
   13E2 20 02              5447 	jr	nz,00241$
   13E4 18 03              5448 	jr	00242$
   13E6                    5449 00241$:
   13E6 C3 29 14           5450 	jp	00136$
   13E9                    5451 00242$:
                           5452 ;	genLabel
   13E9                    5453 00125$:
                           5454 ;	battle/battle.c 691
                           5455 ;	genAssign
                           5456 ;	AOP_HL for _CLAW
                           5457 ;	AOP_HL for _i
   13E9 21 06 00           5458 	ld	hl,#_CLAW
   13EC 7E                 5459 	ld	a,(hl)
   13ED 21 00 00           5460 	ld	hl,#_i
   13F0 77                 5461 	ld	(hl),a
                           5462 ;	genLabel
   13F1                    5463 00165$:
                           5464 ;	genCmpGt
                           5465 ;	AOP_HL for _i
   13F1 3E 00              5466 	ld	a,#0x00
   13F3 21 00 00           5467 	ld	hl,#_i
   13F6 96                 5468 	sub	a,(hl)
   13F7 D2 29 14           5469 	jp	nc,00136$
                           5470 ;	battle/battle.c 693
                           5471 ;	genAssign
                           5472 ;	AOP_STK for 
   13FA F8 04              5473 	lda	hl,4(sp)
   13FC 4E                 5474 	ld	c,(hl)
   13FD 23                 5475 	inc	hl
   13FE 46                 5476 	ld	b,(hl)
                           5477 ;	genPointerGet
                           5478 ;	AOP_STK for _damage_sloc1_1_0
   13FF 0A                 5479 	ld	a,(bc)
   1400 F8 00              5480 	lda	hl,0(sp)
                           5481 ;	genMinus
                           5482 ;	AOP_STK for _damage_sloc1_1_0
                           5483 ;	AOP_STK for _damage_sloc0_1_0
   1402 77                 5484 	ld      (hl),a
                           5485 ; Removed redundent load
   1403 C6 FF              5486 	add	a,#0xFF
   1405 23                 5487 	inc	hl
                           5488 ;	genAssign (pointer)
                           5489 ;	AOP_STK for _damage_sloc0_1_0
   1406 77                 5490 	ld      (hl),a
                           5491 ; Removed redundent load
   1407 02                 5492 	ld	(bc),a
                           5493 ;	battle/battle.c 694
                           5494 ;	genCmpEq
                           5495 ;	AOP_STK for _damage_sloc0_1_0
                           5496 ; genCmpEq: left 1, right 1, result 0
   1408 7E                 5497 	ld	a,(hl)
   1409 B7                 5498 	or	a,a
   140A C2 22 14           5499 	jp	nz,00167$
   140D 18 03              5500 	jr	00244$
   140F                    5501 00243$:
   140F C3 22 14           5502 	jp	00167$
   1412                    5503 00244$:
                           5504 ;	battle/battle.c 696
                           5505 ;	genAssign
                           5506 ;	AOP_HL for _GAME_OVER
                           5507 ;	AOP_HL for _option
   1412 21 00 00           5508 	ld	hl,#_GAME_OVER
   1415 7E                 5509 	ld	a,(hl)
   1416 21 00 00           5510 	ld	hl,#_option
   1419 77                 5511 	ld	(hl),a
                           5512 ;	battle/battle.c 697
                           5513 ;	genAssign
                           5514 ;	AOP_HL for _DEAD
                           5515 ;	AOP_HL for _STATE
   141A 21 0E 00           5516 	ld	hl,#_DEAD
   141D 7E                 5517 	ld	a,(hl)
   141E 21 00 00           5518 	ld	hl,#_STATE
   1421 77                 5519 	ld	(hl),a
                           5520 ;	genLabel
   1422                    5521 00167$:
                           5522 ;	battle/battle.c 691
                           5523 ;	genMinus
                           5524 ;	AOP_HL for _i
   1422 21 00 00           5525 	ld	hl,#_i
   1425 35                 5526 	dec	(hl)
                           5527 ;	genGoto
   1426 C3 F1 13           5528 	jp	00165$
                           5529 ;	genLabel
   1429                    5530 00136$:
                           5531 ;	battle/battle.c 702
                           5532 ;	genCmpEq
                           5533 ;	AOP_HL for _ENEMY
                           5534 ; genCmpEq: left 1, right 1, result 0
   1429 21 10 00           5535 	ld	hl,#_ENEMY
   142C 7E                 5536 	ld	a,(hl)
   142D FE 02              5537 	cp	a,#0x02
   142F C2 0A 15           5538 	jp	nz,00177$
   1432 18 03              5539 	jr	00246$
   1434                    5540 00245$:
   1434 C3 0A 15           5541 	jp	00177$
   1437                    5542 00246$:
                           5543 ;	battle/battle.c 704
                           5544 ;	genCmpEq
                           5545 ;	AOP_HL for _choice
                           5546 ;	AOP_HL for _DEFEND
                           5547 ; genCmpEq: left 1, right 1, result 0
   1437 21 01 00           5548 	ld	hl,#_DEFEND
   143A 7E                 5549 	ld	a,(hl)
   143B 21 00 00           5550 	ld	hl,#_choice
   143E BE                 5551 	cp	(hl)
   143F 20 02              5552 	jr	nz,00247$
   1441 18 03              5553 	jr	00248$
   1443                    5554 00247$:
   1443 C3 9C 14           5555 	jp	00147$
   1446                    5556 00248$:
                           5557 ;	genCmpLt
                           5558 ;	AOP_HL for _npc_acc
   1446 21 19 00           5559 	ld	hl,#_npc_acc
   1449 7E                 5560 	ld	a,(hl)
   144A FE 01              5561 	cp	#0x01
   144C DA 9C 14           5562 	jp	c,00147$
                           5563 ;	genCmpLt
                           5564 ;	AOP_HL for _npc_act
   144F 21 18 00           5565 	ld	hl,#_npc_act
   1452 7E                 5566 	ld	a,(hl)
   1453 FE 01              5567 	cp	#0x01
   1455 DA 9C 14           5568 	jp	c,00147$
                           5569 ;	battle/battle.c 706
                           5570 ;	genMinus
                           5571 ;	AOP_HL for _KING_CLAW
                           5572 ;	AOP_HL for _DEFEND
                           5573 ;	AOP_HL for _i
   1458 21 07 00           5574 	ld	hl,#_KING_CLAW
   145B 7E                 5575 	ld	a,(hl)
   145C 21 01 00           5576 	ld	hl,#_DEFEND
   145F 96                 5577 	sub	a,(hl)
   1460 21 00 00           5578 	ld	hl,#_i
   1463 77                 5579 	ld	(hl),a
                           5580 ;	genLabel
   1464                    5581 00169$:
                           5582 ;	genCmpGt
                           5583 ;	AOP_HL for _i
   1464 3E 00              5584 	ld	a,#0x00
   1466 21 00 00           5585 	ld	hl,#_i
   1469 96                 5586 	sub	a,(hl)
   146A D2 0A 15           5587 	jp	nc,00177$
                           5588 ;	battle/battle.c 708
                           5589 ;	genAssign
                           5590 ;	AOP_STK for 
   146D F8 04              5591 	lda	hl,4(sp)
   146F 4E                 5592 	ld	c,(hl)
   1470 23                 5593 	inc	hl
   1471 46                 5594 	ld	b,(hl)
                           5595 ;	genPointerGet
                           5596 ;	AOP_STK for _damage_sloc1_1_0
   1472 0A                 5597 	ld	a,(bc)
   1473 F8 00              5598 	lda	hl,0(sp)
                           5599 ;	genMinus
                           5600 ;	AOP_STK for _damage_sloc1_1_0
                           5601 ;	AOP_STK for _damage_sloc0_1_0
   1475 77                 5602 	ld      (hl),a
                           5603 ; Removed redundent load
   1476 C6 FF              5604 	add	a,#0xFF
   1478 23                 5605 	inc	hl
                           5606 ;	genAssign (pointer)
                           5607 ;	AOP_STK for _damage_sloc0_1_0
   1479 77                 5608 	ld      (hl),a
                           5609 ; Removed redundent load
   147A 02                 5610 	ld	(bc),a
                           5611 ;	battle/battle.c 709
                           5612 ;	genCmpEq
                           5613 ;	AOP_STK for _damage_sloc0_1_0
                           5614 ; genCmpEq: left 1, right 1, result 0
   147B 7E                 5615 	ld	a,(hl)
   147C B7                 5616 	or	a,a
   147D C2 95 14           5617 	jp	nz,00171$
   1480 18 03              5618 	jr	00250$
   1482                    5619 00249$:
   1482 C3 95 14           5620 	jp	00171$
   1485                    5621 00250$:
                           5622 ;	battle/battle.c 711
                           5623 ;	genAssign
                           5624 ;	AOP_HL for _GAME_OVER
                           5625 ;	AOP_HL for _option
   1485 21 00 00           5626 	ld	hl,#_GAME_OVER
   1488 7E                 5627 	ld	a,(hl)
   1489 21 00 00           5628 	ld	hl,#_option
   148C 77                 5629 	ld	(hl),a
                           5630 ;	battle/battle.c 712
                           5631 ;	genAssign
                           5632 ;	AOP_HL for _DEAD
                           5633 ;	AOP_HL for _STATE
   148D 21 0E 00           5634 	ld	hl,#_DEAD
   1490 7E                 5635 	ld	a,(hl)
   1491 21 00 00           5636 	ld	hl,#_STATE
   1494 77                 5637 	ld	(hl),a
                           5638 ;	genLabel
   1495                    5639 00171$:
                           5640 ;	battle/battle.c 706
                           5641 ;	genMinus
                           5642 ;	AOP_HL for _i
   1495 21 00 00           5643 	ld	hl,#_i
   1498 35                 5644 	dec	(hl)
                           5645 ;	genGoto
   1499 C3 64 14           5646 	jp	00169$
                           5647 ;	genLabel
   149C                    5648 00147$:
                           5649 ;	battle/battle.c 716
                           5650 ;	genCmpLt
                           5651 ;	AOP_HL for _npc_acc
   149C 21 19 00           5652 	ld	hl,#_npc_acc
   149F 7E                 5653 	ld	a,(hl)
   14A0 FE 01              5654 	cp	#0x01
   14A2 DA 0A 15           5655 	jp	c,00177$
                           5656 ;	genCmpLt
                           5657 ;	AOP_HL for _npc_act
   14A5 21 18 00           5658 	ld	hl,#_npc_act
   14A8 7E                 5659 	ld	a,(hl)
   14A9 FE 01              5660 	cp	#0x01
   14AB DA 0A 15           5661 	jp	c,00177$
                           5662 ;	genCmpEq
                           5663 ;	AOP_HL for _choice
                           5664 ;	AOP_HL for _PUNCH
                           5665 ; genCmpEq: left 1, right 1, result 0
   14AE 21 00 00           5666 	ld	hl,#_PUNCH
   14B1 7E                 5667 	ld	a,(hl)
   14B2 21 00 00           5668 	ld	hl,#_choice
   14B5 BE                 5669 	cp	(hl)
   14B6 20 03              5670 	jr	nz,00251$
   14B8 C3 CA 14           5671 	jp	00141$
   14BB                    5672 00251$:
                           5673 ;	battle/battle.c 717
                           5674 ;	genCmpEq
                           5675 ;	AOP_HL for _choice
                           5676 ;	AOP_HL for _ITEM
                           5677 ; genCmpEq: left 1, right 1, result 0
   14BB 21 02 00           5678 	ld	hl,#_ITEM
   14BE 7E                 5679 	ld	a,(hl)
   14BF 21 00 00           5680 	ld	hl,#_choice
   14C2 BE                 5681 	cp	(hl)
   14C3 20 02              5682 	jr	nz,00252$
   14C5 18 03              5683 	jr	00253$
   14C7                    5684 00252$:
   14C7 C3 0A 15           5685 	jp	00177$
   14CA                    5686 00253$:
                           5687 ;	genLabel
   14CA                    5688 00141$:
                           5689 ;	battle/battle.c 719
                           5690 ;	genAssign
                           5691 ;	AOP_HL for _KING_CLAW
                           5692 ;	AOP_HL for _i
   14CA 21 07 00           5693 	ld	hl,#_KING_CLAW
   14CD 7E                 5694 	ld	a,(hl)
   14CE 21 00 00           5695 	ld	hl,#_i
   14D1 77                 5696 	ld	(hl),a
                           5697 ;	genLabel
   14D2                    5698 00173$:
                           5699 ;	genCmpGt
                           5700 ;	AOP_HL for _i
   14D2 3E 00              5701 	ld	a,#0x00
   14D4 21 00 00           5702 	ld	hl,#_i
   14D7 96                 5703 	sub	a,(hl)
   14D8 D2 0A 15           5704 	jp	nc,00177$
                           5705 ;	battle/battle.c 721
                           5706 ;	genAssign
                           5707 ;	AOP_STK for 
   14DB F8 04              5708 	lda	hl,4(sp)
   14DD 4E                 5709 	ld	c,(hl)
   14DE 23                 5710 	inc	hl
   14DF 46                 5711 	ld	b,(hl)
                           5712 ;	genPointerGet
                           5713 ;	AOP_STK for _damage_sloc1_1_0
   14E0 0A                 5714 	ld	a,(bc)
   14E1 F8 00              5715 	lda	hl,0(sp)
                           5716 ;	genMinus
                           5717 ;	AOP_STK for _damage_sloc1_1_0
                           5718 ;	AOP_STK for _damage_sloc0_1_0
   14E3 77                 5719 	ld      (hl),a
                           5720 ; Removed redundent load
   14E4 C6 FF              5721 	add	a,#0xFF
   14E6 23                 5722 	inc	hl
                           5723 ;	genAssign (pointer)
                           5724 ;	AOP_STK for _damage_sloc0_1_0
   14E7 77                 5725 	ld      (hl),a
                           5726 ; Removed redundent load
   14E8 02                 5727 	ld	(bc),a
                           5728 ;	battle/battle.c 722
                           5729 ;	genCmpEq
                           5730 ;	AOP_STK for _damage_sloc0_1_0
                           5731 ; genCmpEq: left 1, right 1, result 0
   14E9 7E                 5732 	ld	a,(hl)
   14EA B7                 5733 	or	a,a
   14EB C2 03 15           5734 	jp	nz,00175$
   14EE 18 03              5735 	jr	00255$
   14F0                    5736 00254$:
   14F0 C3 03 15           5737 	jp	00175$
   14F3                    5738 00255$:
                           5739 ;	battle/battle.c 724
                           5740 ;	genAssign
                           5741 ;	AOP_HL for _GAME_OVER
                           5742 ;	AOP_HL for _option
   14F3 21 00 00           5743 	ld	hl,#_GAME_OVER
   14F6 7E                 5744 	ld	a,(hl)
   14F7 21 00 00           5745 	ld	hl,#_option
   14FA 77                 5746 	ld	(hl),a
                           5747 ;	battle/battle.c 725
                           5748 ;	genAssign
                           5749 ;	AOP_HL for _DEAD
                           5750 ;	AOP_HL for _STATE
   14FB 21 0E 00           5751 	ld	hl,#_DEAD
   14FE 7E                 5752 	ld	a,(hl)
   14FF 21 00 00           5753 	ld	hl,#_STATE
   1502 77                 5754 	ld	(hl),a
                           5755 ;	genLabel
   1503                    5756 00175$:
                           5757 ;	battle/battle.c 719
                           5758 ;	genMinus
                           5759 ;	AOP_HL for _i
   1503 21 00 00           5760 	ld	hl,#_i
   1506 35                 5761 	dec	(hl)
                           5762 ;	genGoto
   1507 C3 D2 14           5763 	jp	00173$
                           5764 ;	genLabel
   150A                    5765 00177$:
                           5766 ;	genEndFunction
   150A E8 02              5767 	lda	sp,2(sp)
   150C C9                 5768 	ret
   150D                    5769 ___damage_end:
                           5770 ;	battle/battle.c 732
                           5771 ;	genLabel
                           5772 ;	genFunction
                           5773 ;	---------------------------------
                           5774 ; Function lower_hp
                           5775 ; ---------------------------------
   150D                    5776 ___lower_hp_start:
   150D                    5777 _lower_hp:
   150D E8 FE              5778 	lda	sp,-2(sp)
                           5779 ;	battle/battle.c 734
                           5780 ;	genCmpEq
                           5781 ;	AOP_HL for _start_hp
                           5782 ; genCmpEq: left 1, right 1, result 0
   150F 21 00 00           5783 	ld	hl,#_start_hp
   1512 7E                 5784 	ld	a,(hl)
   1513 FE 32              5785 	cp	a,#0x32
   1515 C2 25 15           5786 	jp	nz,00102$
   1518 18 03              5787 	jr	00136$
   151A                    5788 00135$:
   151A C3 25 15           5789 	jp	00102$
   151D                    5790 00136$:
                           5791 ;	battle/battle.c 735
                           5792 ;	genAssign
                           5793 ;	AOP_STK for 
   151D F8 04              5794 	lda	hl,4(sp)
   151F 4E                 5795 	ld	c,(hl)
   1520 23                 5796 	inc	hl
   1521 46                 5797 	ld	b,(hl)
                           5798 ;	genAssign (pointer)
   1522 3E 03              5799 	ld	a,#0x03
   1524 02                 5800 	ld	(bc),a
                           5801 ;	genLabel
   1525                    5802 00102$:
                           5803 ;	battle/battle.c 736
                           5804 ;	genCmpEq
                           5805 ;	AOP_HL for _start_hp
                           5806 ; genCmpEq: left 1, right 1, result 0
   1525 21 00 00           5807 	ld	hl,#_start_hp
   1528 7E                 5808 	ld	a,(hl)
   1529 FE 64              5809 	cp	a,#0x64
   152B C2 3B 15           5810 	jp	nz,00104$
   152E 18 03              5811 	jr	00138$
   1530                    5812 00137$:
   1530 C3 3B 15           5813 	jp	00104$
   1533                    5814 00138$:
                           5815 ;	battle/battle.c 737
                           5816 ;	genAssign
                           5817 ;	AOP_STK for 
   1533 F8 04              5818 	lda	hl,4(sp)
   1535 4E                 5819 	ld	c,(hl)
   1536 23                 5820 	inc	hl
   1537 46                 5821 	ld	b,(hl)
                           5822 ;	genAssign (pointer)
   1538 3E 0A              5823 	ld	a,#0x0A
   153A 02                 5824 	ld	(bc),a
                           5825 ;	genLabel
   153B                    5826 00104$:
                           5827 ;	battle/battle.c 738
                           5828 ;	genIfx
                           5829 ;	AOP_STK for 
   153B AF                 5830 	xor	a,a
   153C F8 06              5831 	lda	hl,6(sp)
   153E B6                 5832 	or	a,(hl)
   153F CA 81 15           5833 	jp	z,00113$
                           5834 ;	battle/battle.c 740
                           5835 ;	genAssign
                           5836 ;	AOP_STK for 
   1542 2B                 5837 	dec	hl
   1543 2B                 5838 	dec	hl
   1544 4E                 5839 	ld	c,(hl)
   1545 23                 5840 	inc	hl
   1546 46                 5841 	ld	b,(hl)
                           5842 ;	genPointerGet
   1547 0A                 5843 	ld	a,(bc)
                           5844 ;	genMinus
                           5845 ;	AOP_HL for _DEFEND
                           5846 ;	AOP_HL for _i
   1548 4F                 5847 	ld	c,a
   1549 21 01 00           5848 	ld	hl,#_DEFEND
   154C 96                 5849 	sub	a,(hl)
   154D 21 00 00           5850 	ld	hl,#_i
   1550 77                 5851 	ld	(hl),a
                           5852 ;	genLabel
   1551                    5853 00115$:
                           5854 ;	genCmpGt
                           5855 ;	AOP_HL for _i
   1551 3E 00              5856 	ld	a,#0x00
   1553 21 00 00           5857 	ld	hl,#_i
   1556 96                 5858 	sub	a,(hl)
   1557 D2 CB 15           5859 	jp	nc,00123$
                           5860 ;	battle/battle.c 742
                           5861 ;	genAssign
                           5862 ;	AOP_STK for 
   155A F8 07              5863 	lda	hl,7(sp)
   155C 4E                 5864 	ld	c,(hl)
   155D 23                 5865 	inc	hl
   155E 46                 5866 	ld	b,(hl)
                           5867 ;	genPointerGet
                           5868 ;	AOP_STK for _lower_hp_sloc0_1_0
   155F 0A                 5869 	ld	a,(bc)
   1560 F8 01              5870 	lda	hl,1(sp)
                           5871 ;	genMinus
                           5872 ;	AOP_STK for _lower_hp_sloc0_1_0
                           5873 ;	AOP_STK for _lower_hp_sloc1_1_0
   1562 77                 5874 	ld      (hl),a
                           5875 ; Removed redundent load
   1563 C6 FF              5876 	add	a,#0xFF
   1565 2B                 5877 	dec	hl
                           5878 ;	genAssign (pointer)
                           5879 ;	AOP_STK for _lower_hp_sloc1_1_0
   1566 77                 5880 	ld      (hl),a
                           5881 ; Removed redundent load
   1567 02                 5882 	ld	(bc),a
                           5883 ;	battle/battle.c 743
                           5884 ;	genCmpEq
                           5885 ;	AOP_STK for _lower_hp_sloc1_1_0
                           5886 ; genCmpEq: left 1, right 1, result 0
   1568 7E                 5887 	ld	a,(hl)
   1569 B7                 5888 	or	a,a
   156A C2 7A 15           5889 	jp	nz,00117$
   156D 18 03              5890 	jr	00140$
   156F                    5891 00139$:
   156F C3 7A 15           5892 	jp	00117$
   1572                    5893 00140$:
                           5894 ;	battle/battle.c 744
                           5895 ;	genAssign
                           5896 ;	AOP_HL for _BATTLE_WIN
                           5897 ;	AOP_HL for _STATE
   1572 21 0F 00           5898 	ld	hl,#_BATTLE_WIN
   1575 7E                 5899 	ld	a,(hl)
   1576 21 00 00           5900 	ld	hl,#_STATE
   1579 77                 5901 	ld	(hl),a
                           5902 ;	genLabel
   157A                    5903 00117$:
                           5904 ;	battle/battle.c 740
                           5905 ;	genMinus
                           5906 ;	AOP_HL for _i
   157A 21 00 00           5907 	ld	hl,#_i
   157D 35                 5908 	dec	(hl)
                           5909 ;	genGoto
   157E C3 51 15           5910 	jp	00115$
                           5911 ;	genLabel
   1581                    5912 00113$:
                           5913 ;	battle/battle.c 749
                           5914 ;	genCmpEq
                           5915 ;	AOP_HL for _ENEMY
                           5916 ; genCmpEq: left 1, right 1, result 0
   1581 21 10 00           5917 	ld	hl,#_ENEMY
   1584 7E                 5918 	ld	a,(hl)
   1585 B7                 5919 	or	a,a
   1586 CA 91 15           5920 	jp	z,00109$
   1589                    5921 00141$:
                           5922 ;	genIfx
                           5923 ;	AOP_HL for _CRAB_CAUGHT
   1589 AF                 5924 	xor	a,a
   158A 21 00 00           5925 	ld	hl,#_CRAB_CAUGHT
   158D B6                 5926 	or	a,(hl)
   158E CA CB 15           5927 	jp	z,00123$
                           5928 ;	genLabel
   1591                    5929 00109$:
                           5930 ;	battle/battle.c 751
                           5931 ;	genAssign
                           5932 ;	AOP_STK for 
   1591 F8 04              5933 	lda	hl,4(sp)
   1593 4E                 5934 	ld	c,(hl)
   1594 23                 5935 	inc	hl
   1595 46                 5936 	ld	b,(hl)
                           5937 ;	genPointerGet
                           5938 ;	AOP_HL for _i
   1596 0A                 5939 	ld	a,(bc)
   1597 21 00 00           5940 	ld	hl,#_i
   159A 77                 5941 	ld	(hl),a
                           5942 ;	genLabel
   159B                    5943 00119$:
                           5944 ;	genCmpGt
                           5945 ;	AOP_HL for _i
   159B 3E 00              5946 	ld	a,#0x00
   159D 21 00 00           5947 	ld	hl,#_i
   15A0 96                 5948 	sub	a,(hl)
   15A1 D2 CB 15           5949 	jp	nc,00123$
                           5950 ;	battle/battle.c 753
                           5951 ;	genAssign
                           5952 ;	AOP_STK for 
   15A4 F8 07              5953 	lda	hl,7(sp)
   15A6 4E                 5954 	ld	c,(hl)
   15A7 23                 5955 	inc	hl
   15A8 46                 5956 	ld	b,(hl)
                           5957 ;	genPointerGet
                           5958 ;	AOP_STK for _lower_hp_sloc1_1_0
   15A9 0A                 5959 	ld	a,(bc)
   15AA F8 00              5960 	lda	hl,0(sp)
                           5961 ;	genMinus
                           5962 ;	AOP_STK for _lower_hp_sloc1_1_0
                           5963 ;	AOP_STK for _lower_hp_sloc0_1_0
   15AC 77                 5964 	ld      (hl),a
                           5965 ; Removed redundent load
   15AD C6 FF              5966 	add	a,#0xFF
   15AF 23                 5967 	inc	hl
                           5968 ;	genAssign (pointer)
                           5969 ;	AOP_STK for _lower_hp_sloc0_1_0
   15B0 77                 5970 	ld      (hl),a
                           5971 ; Removed redundent load
   15B1 02                 5972 	ld	(bc),a
                           5973 ;	battle/battle.c 754
                           5974 ;	genCmpEq
                           5975 ;	AOP_STK for _lower_hp_sloc0_1_0
                           5976 ; genCmpEq: left 1, right 1, result 0
   15B2 7E                 5977 	ld	a,(hl)
   15B3 B7                 5978 	or	a,a
   15B4 C2 C4 15           5979 	jp	nz,00121$
   15B7 18 03              5980 	jr	00143$
   15B9                    5981 00142$:
   15B9 C3 C4 15           5982 	jp	00121$
   15BC                    5983 00143$:
                           5984 ;	battle/battle.c 755
                           5985 ;	genAssign
                           5986 ;	AOP_HL for _BATTLE_WIN
                           5987 ;	AOP_HL for _STATE
   15BC 21 0F 00           5988 	ld	hl,#_BATTLE_WIN
   15BF 7E                 5989 	ld	a,(hl)
   15C0 21 00 00           5990 	ld	hl,#_STATE
   15C3 77                 5991 	ld	(hl),a
                           5992 ;	genLabel
   15C4                    5993 00121$:
                           5994 ;	battle/battle.c 751
                           5995 ;	genMinus
                           5996 ;	AOP_HL for _i
   15C4 21 00 00           5997 	ld	hl,#_i
   15C7 35                 5998 	dec	(hl)
                           5999 ;	genGoto
   15C8 C3 9B 15           6000 	jp	00119$
                           6001 ;	genLabel
   15CB                    6002 00123$:
                           6003 ;	genEndFunction
   15CB E8 02              6004 	lda	sp,2(sp)
   15CD C9                 6005 	ret
   15CE                    6006 ___lower_hp_end:
                           6007 ;	battle/battle.c 761
                           6008 ;	genLabel
                           6009 ;	genFunction
                           6010 ;	---------------------------------
                           6011 ; Function enemy_damage
                           6012 ; ---------------------------------
   15CE                    6013 ___enemy_damage_start:
   15CE                    6014 _enemy_damage:
                           6015 	
                           6016 ;	battle/battle.c 763
                           6017 ;	genCmpEq
                           6018 ;	AOP_HL for _npc_act
                           6019 ; genCmpEq: left 1, right 1, result 0
   15CE 21 18 00           6020 	ld	hl,#_npc_act
   15D1 7E                 6021 	ld	a,(hl)
   15D2 B7                 6022 	or	a,a
   15D3 C2 73 16           6023 	jp	nz,00114$
   15D6 18 03              6024 	jr	00152$
   15D8                    6025 00151$:
   15D8 C3 73 16           6026 	jp	00114$
   15DB                    6027 00152$:
                           6028 ;	battle/battle.c 765
                           6029 ;	genCmpEq
                           6030 ;	AOP_HL for _choice
                           6031 ;	AOP_HL for _ITEM
                           6032 ; genCmpEq: left 1, right 1, result 1
   15DB 21 02 00           6033 	ld	hl,#_ITEM
   15DE 7E                 6034 	ld	a,(hl)
   15DF 21 00 00           6035 	ld	hl,#_choice
   15E2 BE                 6036 	cp	(hl)
   15E3 20 04              6037 	jr	nz,00153$
   15E5 3E 01              6038 	ld	a,#0x01
   15E7 18 01              6039 	jr	00154$
   15E9                    6040 00153$:
   15E9 AF                 6041 	xor	a,a
   15EA                    6042 00154$:
   15EA 4F                 6043 	ld	c,a
                           6044 ;	genIfx
   15EB AF                 6045 	xor	a,a
   15EC B1                 6046 	or	a,c
   15ED CA 0B 16           6047 	jp	z,00102$
                           6048 ;	genCmpEq
                           6049 ;	AOP_HL for _CHOSEN_ITEM
                           6050 ;	AOP_HL for _NET
                           6051 ; genCmpEq: left 1, right 1, result 0
   15F0 21 03 00           6052 	ld	hl,#_NET
   15F3 7E                 6053 	ld	a,(hl)
   15F4 21 13 00           6054 	ld	hl,#_CHOSEN_ITEM
   15F7 BE                 6055 	cp	(hl)
   15F8 20 02              6056 	jr	nz,00155$
   15FA 18 03              6057 	jr	00156$
   15FC                    6058 00155$:
   15FC C3 0B 16           6059 	jp	00102$
   15FF                    6060 00156$:
                           6061 ;	genCmpGt
                           6062 ;	AOP_HL for _hero_acc
   15FF 3E 00              6063 	ld	a,#0x00
   1601 21 1A 00           6064 	ld	hl,#_hero_acc
   1604 96                 6065 	sub	a,(hl)
   1605 D2 0B 16           6066 	jp	nc,00102$
                           6067 ;	battle/battle.c 766
                           6068 ;	genRet
   1608 C3 27 17           6069 	jp	00129$
                           6070 ;	genLabel
   160B                    6071 00102$:
                           6072 ;	battle/battle.c 767
                           6073 ;	genIfx
   160B AF                 6074 	xor	a,a
   160C B1                 6075 	or	a,c
   160D CA 3B 16           6076 	jp	z,00106$
                           6077 ;	genCmpEq
                           6078 ;	AOP_HL for _CHOSEN_ITEM
                           6079 ;	AOP_HL for _CLUB
                           6080 ; genCmpEq: left 1, right 1, result 0
   1610 21 04 00           6081 	ld	hl,#_CLUB
   1613 7E                 6082 	ld	a,(hl)
   1614 21 13 00           6083 	ld	hl,#_CHOSEN_ITEM
   1617 BE                 6084 	cp	(hl)
   1618 20 02              6085 	jr	nz,00157$
   161A 18 03              6086 	jr	00158$
   161C                    6087 00157$:
   161C C3 3B 16           6088 	jp	00106$
   161F                    6089 00158$:
                           6090 ;	genCmpGt
                           6091 ;	AOP_HL for _hero_acc
   161F 3E 00              6092 	ld	a,#0x00
   1621 21 1A 00           6093 	ld	hl,#_hero_acc
   1624 96                 6094 	sub	a,(hl)
   1625 D2 3B 16           6095 	jp	nc,00106$
                           6096 ;	battle/battle.c 768
                           6097 ;	genIpush
                           6098 ; _saveRegsForCall: sendSetSize: 0 deInUse: 0 bcInUse: 0 deSending: 0
                           6099 ;	AOP_STK for 
   1628 F8 02              6100 	lda	hl,2(sp)
   162A 2A                 6101 	ld	a,(hl+)
   162B 66                 6102 	ld	h,(hl)
   162C 6F                 6103 	ld	l,a
   162D E5                 6104 	push	hl
                           6105 ;	genIpush
   162E 3E 01              6106 	ld	a,#0x01
   1630 F5                 6107 	push	af
   1631 33                 6108 	inc	sp
                           6109 ;	genIpush
   1632 21 04 00           6110 	ld	hl,#_CLUB
   1635 E5                 6111 	push	hl
                           6112 ;	genCall
   1636 CD 0D 15           6113 	call	_lower_hp
   1639 E8 05              6114 	lda	sp,5(sp)
                           6115 ;	genLabel
   163B                    6116 00106$:
                           6117 ;	battle/battle.c 769
                           6118 ;	genCmpEq
                           6119 ;	AOP_HL for _choice
                           6120 ;	AOP_HL for _PUNCH
                           6121 ; genCmpEq: left 1, right 1, result 0
   163B 21 00 00           6122 	ld	hl,#_PUNCH
   163E 7E                 6123 	ld	a,(hl)
   163F 21 00 00           6124 	ld	hl,#_choice
   1642 BE                 6125 	cp	(hl)
   1643 20 02              6126 	jr	nz,00159$
   1645 18 03              6127 	jr	00160$
   1647                    6128 00159$:
   1647 C3 73 16           6129 	jp	00114$
   164A                    6130 00160$:
                           6131 ;	genCmpEq
                           6132 ;	AOP_HL for _ENEMY
                           6133 ; genCmpEq: left 1, right 1, result 0
   164A 21 10 00           6134 	ld	hl,#_ENEMY
   164D 7E                 6135 	ld	a,(hl)
   164E B7                 6136 	or	a,a
   164F C2 73 16           6137 	jp	nz,00114$
   1652 18 03              6138 	jr	00162$
   1654                    6139 00161$:
   1654 C3 73 16           6140 	jp	00114$
   1657                    6141 00162$:
                           6142 ;	genCmpLt
                           6143 ;	AOP_HL for _hero_acc
   1657 21 1A 00           6144 	ld	hl,#_hero_acc
   165A 7E                 6145 	ld	a,(hl)
   165B FE 03              6146 	cp	#0x03
   165D DA 73 16           6147 	jp	c,00114$
                           6148 ;	battle/battle.c 770
                           6149 ;	genIpush
                           6150 ; _saveRegsForCall: sendSetSize: 0 deInUse: 0 bcInUse: 0 deSending: 0
                           6151 ;	AOP_STK for 
   1660 F8 02              6152 	lda	hl,2(sp)
   1662 2A                 6153 	ld	a,(hl+)
   1663 66                 6154 	ld	h,(hl)
   1664 6F                 6155 	ld	l,a
   1665 E5                 6156 	push	hl
                           6157 ;	genIpush
   1666 3E 01              6158 	ld	a,#0x01
   1668 F5                 6159 	push	af
   1669 33                 6160 	inc	sp
                           6161 ;	genIpush
   166A 21 00 00           6162 	ld	hl,#_PUNCH
   166D E5                 6163 	push	hl
                           6164 ;	genCall
   166E CD 0D 15           6165 	call	_lower_hp
   1671 E8 05              6166 	lda	sp,5(sp)
                           6167 ;	genLabel
   1673                    6168 00114$:
                           6169 ;	battle/battle.c 772
                           6170 ;	genCmpGt
                           6171 ;	AOP_HL for _npc_act
   1673 3E 00              6172 	ld	a,#0x00
   1675 21 18 00           6173 	ld	hl,#_npc_act
   1678 96                 6174 	sub	a,(hl)
   1679 D2 27 17           6175 	jp	nc,00129$
                           6176 ;	battle/battle.c 774
                           6177 ;	genCmpEq
                           6178 ;	AOP_HL for _choice
                           6179 ;	AOP_HL for _ITEM
                           6180 ; genCmpEq: left 1, right 1, result 1
   167C 21 02 00           6181 	ld	hl,#_ITEM
   167F 7E                 6182 	ld	a,(hl)
   1680 21 00 00           6183 	ld	hl,#_choice
   1683 BE                 6184 	cp	(hl)
   1684 20 04              6185 	jr	nz,00163$
   1686 3E 01              6186 	ld	a,#0x01
   1688 18 01              6187 	jr	00164$
   168A                    6188 00163$:
   168A AF                 6189 	xor	a,a
   168B                    6190 00164$:
   168B 4F                 6191 	ld	c,a
                           6192 ;	genIfx
   168C AF                 6193 	xor	a,a
   168D B1                 6194 	or	a,c
   168E CA BF 16           6195 	jp	z,00116$
                           6196 ;	genCmpEq
                           6197 ;	AOP_HL for _CHOSEN_ITEM
                           6198 ;	AOP_HL for _NET
                           6199 ; genCmpEq: left 1, right 1, result 0
   1691 21 03 00           6200 	ld	hl,#_NET
   1694 7E                 6201 	ld	a,(hl)
   1695 21 13 00           6202 	ld	hl,#_CHOSEN_ITEM
   1698 BE                 6203 	cp	(hl)
   1699 20 02              6204 	jr	nz,00165$
   169B 18 03              6205 	jr	00166$
   169D                    6206 00165$:
   169D C3 BF 16           6207 	jp	00116$
   16A0                    6208 00166$:
                           6209 ;	genCmpGt
                           6210 ;	AOP_HL for _hero_acc
   16A0 3E 00              6211 	ld	a,#0x00
   16A2 21 1A 00           6212 	ld	hl,#_hero_acc
   16A5 96                 6213 	sub	a,(hl)
   16A6 D2 BF 16           6214 	jp	nc,00116$
                           6215 ;	battle/battle.c 775
                           6216 ;	genIpush
                           6217 ; _saveRegsForCall: sendSetSize: 0 deInUse: 0 bcInUse: 1 deSending: 0
   16A9 C5                 6218 	push	bc
                           6219 ;	AOP_STK for 
   16AA F8 04              6220 	lda	hl,4(sp)
   16AC 2A                 6221 	ld	a,(hl+)
   16AD 66                 6222 	ld	h,(hl)
   16AE 6F                 6223 	ld	l,a
   16AF E5                 6224 	push	hl
                           6225 ;	genIpush
   16B0 3E 00              6226 	ld	a,#0x00
   16B2 F5                 6227 	push	af
   16B3 33                 6228 	inc	sp
                           6229 ;	genIpush
   16B4 21 03 00           6230 	ld	hl,#_NET
   16B7 E5                 6231 	push	hl
                           6232 ;	genCall
   16B8 CD 0D 15           6233 	call	_lower_hp
   16BB E8 05              6234 	lda	sp,5(sp)
   16BD E1                 6235 	pop	hl
   16BE 4D                 6236 	ld	c,l
                           6237 ;	genLabel
   16BF                    6238 00116$:
                           6239 ;	battle/battle.c 776
                           6240 ;	genIfx
   16BF AF                 6241 	xor	a,a
   16C0 B1                 6242 	or	a,c
   16C1 CA EF 16           6243 	jp	z,00120$
                           6244 ;	genCmpEq
                           6245 ;	AOP_HL for _CHOSEN_ITEM
                           6246 ;	AOP_HL for _CLUB
                           6247 ; genCmpEq: left 1, right 1, result 0
   16C4 21 04 00           6248 	ld	hl,#_CLUB
   16C7 7E                 6249 	ld	a,(hl)
   16C8 21 13 00           6250 	ld	hl,#_CHOSEN_ITEM
   16CB BE                 6251 	cp	(hl)
   16CC 20 02              6252 	jr	nz,00167$
   16CE 18 03              6253 	jr	00168$
   16D0                    6254 00167$:
   16D0 C3 EF 16           6255 	jp	00120$
   16D3                    6256 00168$:
                           6257 ;	genCmpGt
                           6258 ;	AOP_HL for _hero_acc
   16D3 3E 00              6259 	ld	a,#0x00
   16D5 21 1A 00           6260 	ld	hl,#_hero_acc
   16D8 96                 6261 	sub	a,(hl)
   16D9 D2 EF 16           6262 	jp	nc,00120$
                           6263 ;	battle/battle.c 777
                           6264 ;	genIpush
                           6265 ; _saveRegsForCall: sendSetSize: 0 deInUse: 0 bcInUse: 0 deSending: 0
                           6266 ;	AOP_STK for 
   16DC F8 02              6267 	lda	hl,2(sp)
   16DE 2A                 6268 	ld	a,(hl+)
   16DF 66                 6269 	ld	h,(hl)
   16E0 6F                 6270 	ld	l,a
   16E1 E5                 6271 	push	hl
                           6272 ;	genIpush
   16E2 3E 00              6273 	ld	a,#0x00
   16E4 F5                 6274 	push	af
   16E5 33                 6275 	inc	sp
                           6276 ;	genIpush
   16E6 21 04 00           6277 	ld	hl,#_CLUB
   16E9 E5                 6278 	push	hl
                           6279 ;	genCall
   16EA CD 0D 15           6280 	call	_lower_hp
   16ED E8 05              6281 	lda	sp,5(sp)
                           6282 ;	genLabel
   16EF                    6283 00120$:
                           6284 ;	battle/battle.c 778
                           6285 ;	genCmpEq
                           6286 ;	AOP_HL for _choice
                           6287 ;	AOP_HL for _PUNCH
                           6288 ; genCmpEq: left 1, right 1, result 0
   16EF 21 00 00           6289 	ld	hl,#_PUNCH
   16F2 7E                 6290 	ld	a,(hl)
   16F3 21 00 00           6291 	ld	hl,#_choice
   16F6 BE                 6292 	cp	(hl)
   16F7 20 02              6293 	jr	nz,00169$
   16F9 18 03              6294 	jr	00170$
   16FB                    6295 00169$:
   16FB C3 27 17           6296 	jp	00129$
   16FE                    6297 00170$:
                           6298 ;	genCmpEq
                           6299 ;	AOP_HL for _ENEMY
                           6300 ; genCmpEq: left 1, right 1, result 0
   16FE 21 10 00           6301 	ld	hl,#_ENEMY
   1701 7E                 6302 	ld	a,(hl)
   1702 B7                 6303 	or	a,a
   1703 C2 27 17           6304 	jp	nz,00129$
   1706 18 03              6305 	jr	00172$
   1708                    6306 00171$:
   1708 C3 27 17           6307 	jp	00129$
   170B                    6308 00172$:
                           6309 ;	genCmpLt
                           6310 ;	AOP_HL for _hero_acc
   170B 21 1A 00           6311 	ld	hl,#_hero_acc
   170E 7E                 6312 	ld	a,(hl)
   170F FE 03              6313 	cp	#0x03
   1711 DA 27 17           6314 	jp	c,00129$
                           6315 ;	battle/battle.c 779
                           6316 ;	genIpush
                           6317 ; _saveRegsForCall: sendSetSize: 0 deInUse: 0 bcInUse: 0 deSending: 0
                           6318 ;	AOP_STK for 
   1714 F8 02              6319 	lda	hl,2(sp)
   1716 2A                 6320 	ld	a,(hl+)
   1717 66                 6321 	ld	h,(hl)
   1718 6F                 6322 	ld	l,a
   1719 E5                 6323 	push	hl
                           6324 ;	genIpush
   171A 3E 00              6325 	ld	a,#0x00
   171C F5                 6326 	push	af
   171D 33                 6327 	inc	sp
                           6328 ;	genIpush
   171E 21 00 00           6329 	ld	hl,#_PUNCH
   1721 E5                 6330 	push	hl
                           6331 ;	genCall
   1722 CD 0D 15           6332 	call	_lower_hp
   1725 E8 05              6333 	lda	sp,5(sp)
                           6334 ;	genLabel
   1727                    6335 00129$:
                           6336 ;	genEndFunction
                           6337 	
   1727 C9                 6338 	ret
   1728                    6339 ___enemy_damage_end:
                           6340 ;	battle/battle.c 786
                           6341 ;	genLabel
                           6342 ;	genFunction
                           6343 ;	---------------------------------
                           6344 ; Function fight
                           6345 ; ---------------------------------
   1728                    6346 ___fight_start:
   1728                    6347 _fight:
                           6348 	
                           6349 ;	battle/battle.c 788
                           6350 ;	genCall
                           6351 ; _saveRegsForCall: sendSetSize: 0 deInUse: 0 bcInUse: 0 deSending: 0
   1728 CD C9 11           6352 	call	_fight_config
                           6353 ;	battle/battle.c 789
                           6354 ;	genCmpLt
                           6355 ;	AOP_HL for _first_fighter
   172B 21 1B 00           6356 	ld	hl,#_first_fighter
   172E 7E                 6357 	ld	a,(hl)
   172F FE 01              6358 	cp	#0x01
   1731 DA 60 17           6359 	jp	c,00106$
                           6360 ;	battle/battle.c 791
                           6361 ;	genCall
                           6362 ; _saveRegsForCall: sendSetSize: 0 deInUse: 0 bcInUse: 0 deSending: 0
   1734 CD A2 0F           6363 	call	_npc_fight
                           6364 ;	battle/battle.c 792
                           6365 ;	genIpush
                           6366 ; _saveRegsForCall: sendSetSize: 0 deInUse: 0 bcInUse: 0 deSending: 0
                           6367 ;	AOP_STK for 
   1737 F8 02              6368 	lda	hl,2(sp)
   1739 2A                 6369 	ld	a,(hl+)
   173A 66                 6370 	ld	h,(hl)
   173B 6F                 6371 	ld	l,a
   173C E5                 6372 	push	hl
                           6373 ;	genCall
   173D CD 40 12           6374 	call	_damage
   1740 E8 02              6375 	lda	sp,2(sp)
                           6376 ;	battle/battle.c 793
                           6377 ;	genCmpEq
                           6378 ;	AOP_HL for _STATE
                           6379 ;	AOP_HL for _DEAD
                           6380 ; genCmpEq: left 1, right 1, result 0
   1742 21 0E 00           6381 	ld	hl,#_DEAD
   1745 7E                 6382 	ld	a,(hl)
   1746 21 00 00           6383 	ld	hl,#_STATE
   1749 BE                 6384 	cp	(hl)
   174A 20 03              6385 	jr	nz,00113$
   174C C3 89 17           6386 	jp	00107$
   174F                    6387 00113$:
                           6388 ;	battle/battle.c 795
                           6389 ;	genCall
                           6390 ; _saveRegsForCall: sendSetSize: 0 deInUse: 0 bcInUse: 0 deSending: 0
   174F CD 5F 05           6391 	call	_hero_fight
                           6392 ;	battle/battle.c 796
                           6393 ;	genIpush
                           6394 ; _saveRegsForCall: sendSetSize: 0 deInUse: 0 bcInUse: 0 deSending: 0
                           6395 ;	AOP_STK for 
   1752 F8 04              6396 	lda	hl,4(sp)
   1754 2A                 6397 	ld	a,(hl+)
   1755 66                 6398 	ld	h,(hl)
   1756 6F                 6399 	ld	l,a
   1757 E5                 6400 	push	hl
                           6401 ;	genCall
   1758 CD CE 15           6402 	call	_enemy_damage
   175B E8 02              6403 	lda	sp,2(sp)
                           6404 ;	genGoto
   175D C3 89 17           6405 	jp	00107$
                           6406 ;	genLabel
   1760                    6407 00106$:
                           6408 ;	battle/battle.c 801
                           6409 ;	genCall
                           6410 ; _saveRegsForCall: sendSetSize: 0 deInUse: 0 bcInUse: 0 deSending: 0
   1760 CD 5F 05           6411 	call	_hero_fight
                           6412 ;	battle/battle.c 802
                           6413 ;	genIpush
                           6414 ; _saveRegsForCall: sendSetSize: 0 deInUse: 0 bcInUse: 0 deSending: 0
                           6415 ;	AOP_STK for 
   1763 F8 04              6416 	lda	hl,4(sp)
   1765 2A                 6417 	ld	a,(hl+)
   1766 66                 6418 	ld	h,(hl)
   1767 6F                 6419 	ld	l,a
   1768 E5                 6420 	push	hl
                           6421 ;	genCall
   1769 CD CE 15           6422 	call	_enemy_damage
   176C E8 02              6423 	lda	sp,2(sp)
                           6424 ;	battle/battle.c 803
                           6425 ;	genCmpEq
                           6426 ;	AOP_HL for _STATE
                           6427 ;	AOP_HL for _BATTLE_WIN
                           6428 ; genCmpEq: left 1, right 1, result 0
   176E 21 0F 00           6429 	ld	hl,#_BATTLE_WIN
   1771 7E                 6430 	ld	a,(hl)
   1772 21 00 00           6431 	ld	hl,#_STATE
   1775 BE                 6432 	cp	(hl)
   1776 20 03              6433 	jr	nz,00114$
   1778 C3 89 17           6434 	jp	00107$
   177B                    6435 00114$:
                           6436 ;	battle/battle.c 805
                           6437 ;	genCall
                           6438 ; _saveRegsForCall: sendSetSize: 0 deInUse: 0 bcInUse: 0 deSending: 0
   177B CD A2 0F           6439 	call	_npc_fight
                           6440 ;	battle/battle.c 806
                           6441 ;	genIpush
                           6442 ; _saveRegsForCall: sendSetSize: 0 deInUse: 0 bcInUse: 0 deSending: 0
                           6443 ;	AOP_STK for 
   177E F8 02              6444 	lda	hl,2(sp)
   1780 2A                 6445 	ld	a,(hl+)
   1781 66                 6446 	ld	h,(hl)
   1782 6F                 6447 	ld	l,a
   1783 E5                 6448 	push	hl
                           6449 ;	genCall
   1784 CD 40 12           6450 	call	_damage
   1787 E8 02              6451 	lda	sp,2(sp)
                           6452 ;	genLabel
   1789                    6453 00107$:
                           6454 ;	battle/battle.c 809
                           6455 ;	genAssign
                           6456 ;	AOP_HL for _npc_act
   1789 21 18 00           6457 	ld	hl,#_npc_act
   178C 36 00              6458 	ld	(hl),#0x00
                           6459 ;	battle/battle.c 810
                           6460 ;	genAssign
                           6461 ;	AOP_HL for _npc_acc
   178E 21 19 00           6462 	ld	hl,#_npc_acc
   1791 36 00              6463 	ld	(hl),#0x00
                           6464 ;	battle/battle.c 811
                           6465 ;	genAssign
                           6466 ;	AOP_HL for _hero_acc
   1793 21 1A 00           6467 	ld	hl,#_hero_acc
   1796 36 00              6468 	ld	(hl),#0x00
                           6469 ;	battle/battle.c 812
                           6470 ;	genAssign
                           6471 ;	AOP_HL for _choice
   1798 21 00 00           6472 	ld	hl,#_choice
   179B 36 00              6473 	ld	(hl),#0x00
                           6474 ;	battle/battle.c 813
                           6475 ;	genAssign
                           6476 ;	AOP_HL for _CHOSEN_ITEM
   179D 21 13 00           6477 	ld	hl,#_CHOSEN_ITEM
   17A0 36 00              6478 	ld	(hl),#0x00
                           6479 ;	battle/battle.c 814
                           6480 ;	genAssign
                           6481 ;	AOP_HL for _first_fighter
   17A2 21 1B 00           6482 	ld	hl,#_first_fighter
   17A5 36 00              6483 	ld	(hl),#0x00
                           6484 ;	genLabel
   17A7                    6485 00108$:
                           6486 ;	genEndFunction
                           6487 	
   17A7 C9                 6488 	ret
   17A8                    6489 ___fight_end:
                           6490 ;	battle/battle.c 817
                           6491 ;	genLabel
                           6492 ;	genFunction
                           6493 ;	---------------------------------
                           6494 ; Function show_fighter_stats
                           6495 ; ---------------------------------
   17A8                    6496 ___show_fighter_stats_start:
   17A8                    6497 _show_fighter_stats:
   17A8 E8 FE              6498 	lda	sp,-2(sp)
                           6499 ;	battle/battle.c 819
                           6500 ;	genIpush
                           6501 ; _saveRegsForCall: sendSetSize: 0 deInUse: 0 bcInUse: 0 deSending: 0
   17AA 21 58 38           6502 	ld	hl,#0x3858
   17AD E5                 6503 	push	hl
                           6504 ;	genIpush
   17AE 21 E5 18           6505 	ld	hl,#__str_33
   17B1 E5                 6506 	push	hl
                           6507 ;	genCall
   17B2 CD 00 00           6508 	call	_battle_print
   17B5 E8 04              6509 	lda	sp,4(sp)
                           6510 ;	battle/battle.c 820
                           6511 ;	genCast
                           6512 ;	AOP_HL for _HERO_HP
   17B7 21 00 00           6513 	ld	hl,#_HERO_HP
   17BA 4E                 6514 	ld	c,(hl)
   17BB 7E                 6515 	ld	a,(hl)
   17BC 17                 6516 	rla	
   17BD 9F                 6517 	sbc	a,a
   17BE 47                 6518 	ld	b,a
                           6519 ;	genIpush
                           6520 ; _saveRegsForCall: sendSetSize: 0 deInUse: 0 bcInUse: 0 deSending: 0
   17BF 21 1F 00           6521 	ld	hl,#_h_hp
   17C2 E5                 6522 	push	hl
                           6523 ;	genIpush
   17C3 C5                 6524 	push	bc
                           6525 ;	genCall
   17C4 CD 00 00           6526 	call	_itoa
   17C7 E8 04              6527 	lda	sp,4(sp)
                           6528 ;	battle/battle.c 822
                           6529 ;	genAssign
                           6530 ;	AOP_HL for _i
   17C9 21 00 00           6531 	ld	hl,#_i
   17CC 36 00              6532 	ld	(hl),#0x00
                           6533 ;	genLabel
   17CE                    6534 00112$:
                           6535 ;	genCast
                           6536 ;	AOP_HL for _i
   17CE 21 00 00           6537 	ld	hl,#_i
   17D1 4E                 6538 	ld	c,(hl)
   17D2 06 00              6539 	ld	b,#0x00
                           6540 ;	genLeftShift
   17D4 CB 21              6541 	sla	c
   17D6 CB 10              6542 	rl	b
                           6543 ;	genPlus
                           6544 ;	Can't optimise plus by inc, falling back to the normal way
   17D8 21 1F 00           6545 	ld	hl,#_h_hp
   17DB 09                 6546 	add	hl,bc
   17DC 4D                 6547 	ld	c,l
   17DD 44                 6548 	ld	b,h
                           6549 ;	genPointerGet
                           6550 ;	AOP_STK for _show_fighter_stats_sloc0_1_0
   17DE 59                 6551 	ld	e,c
   17DF 50                 6552 	ld	d,b
   17E0 1A                 6553 	ld	a,(de)
   17E1 F8 00              6554 	lda	hl,0(sp)
   17E3 77                 6555 	ld	(hl),a
   17E4 13                 6556 	inc	de
   17E5 1A                 6557 	ld	a,(de)
   17E6 23                 6558 	inc	hl
                           6559 ;	genCmpEq
                           6560 ;	AOP_STK for _show_fighter_stats_sloc0_1_0
                           6561 ; genCmpEq: left 2, right 2, result 0
   17E7 32                 6562 	ld      (hl-),a
   17E8 2A                 6563 	ld	a,(hl+)
   17E9 B6                 6564 	or	a,(hl)
   17EA CA 08 18           6565 	jp	z,00115$
   17ED                    6566 00127$:
                           6567 ;	battle/battle.c 823
                           6568 ;	genPlus
                           6569 ;	AOP_STK for _show_fighter_stats_sloc0_1_0
                           6570 ;	genPlusIncr
                           6571 ;	Can't optimise plus by inc, falling back to the normal way
   17ED F8 00              6572 	lda	hl,0(sp)
   17EF 5E                 6573 	ld	e,(hl)
   17F0 23                 6574 	inc	hl
   17F1 56                 6575 	ld	d,(hl)
   17F2 21 2B 00           6576 	ld	hl,#0x002B
   17F5 19                 6577 	add	hl,de
   17F6 7D                 6578 	ld	a,l
   17F7 54                 6579 	ld	d,h
   17F8 6F                 6580 	ld	l,a
   17F9 62                 6581 	ld	h,d
                           6582 ;	genAssign (pointer)
   17FA 59                 6583 	ld	e,c
   17FB 50                 6584 	ld	d,b
   17FC 7D                 6585 	ld	a,l
   17FD 12                 6586 	ld	(de),a
   17FE 13                 6587 	inc	de
   17FF 7C                 6588 	ld	a,h
   1800 12                 6589 	ld	(de),a
                           6590 ;	battle/battle.c 822
                           6591 ;	genPlus
                           6592 ;	AOP_HL for _i
                           6593 ;	genPlusIncr
   1801 21 00 00           6594 	ld	hl,#_i
   1804 34                 6595 	inc	(hl)
                           6596 ;	genGoto
   1805 C3 CE 17           6597 	jp	00112$
                           6598 ;	genLabel
   1808                    6599 00115$:
                           6600 ;	battle/battle.c 824
                           6601 ;	genIpush
                           6602 ; _saveRegsForCall: sendSetSize: 0 deInUse: 0 bcInUse: 0 deSending: 0
   1808 21 58 48           6603 	ld	hl,#0x4858
   180B E5                 6604 	push	hl
                           6605 ;	genIpush
   180C 21 1F 00           6606 	ld	hl,#_h_hp
   180F E5                 6607 	push	hl
                           6608 ;	genCall
   1810 CD 00 00           6609 	call	_battle_print
   1813 E8 04              6610 	lda	sp,4(sp)
                           6611 ;	battle/battle.c 826
                           6612 ;	genCmpEq
                           6613 ;	AOP_HL for _start_hp
                           6614 ; genCmpEq: left 1, right 1, result 0
   1815 21 00 00           6615 	ld	hl,#_start_hp
   1818 7E                 6616 	ld	a,(hl)
   1819 FE 0A              6617 	cp	a,#0x0A
   181B C2 59 18           6618 	jp	nz,00104$
   181E 18 03              6619 	jr	00129$
   1820                    6620 00128$:
   1820 C3 59 18           6621 	jp	00104$
   1823                    6622 00129$:
                           6623 ;	battle/battle.c 828
                           6624 ;	genCmpEq
                           6625 ;	AOP_HL for _HERO_HP
                           6626 ;	AOP_HL for _start_hp
                           6627 ; genCmpEq: left 1, right 1, result 0
   1823 21 00 00           6628 	ld	hl,#_start_hp
   1826 7E                 6629 	ld	a,(hl)
   1827 21 00 00           6630 	ld	hl,#_HERO_HP
   182A BE                 6631 	cp	(hl)
   182B 20 02              6632 	jr	nz,00130$
   182D 18 03              6633 	jr	00131$
   182F                    6634 00130$:
   182F C3 3F 18           6635 	jp	00102$
   1832                    6636 00131$:
                           6637 ;	battle/battle.c 829
                           6638 ;	genIpush
                           6639 ; _saveRegsForCall: sendSetSize: 0 deInUse: 0 bcInUse: 0 deSending: 0
   1832 21 60 48           6640 	ld	hl,#0x4860
   1835 E5                 6641 	push	hl
                           6642 ;	genIpush
   1836 21 E8 18           6643 	ld	hl,#__str_34
   1839 E5                 6644 	push	hl
                           6645 ;	genCall
   183A CD 00 00           6646 	call	_battle_print
   183D E8 04              6647 	lda	sp,4(sp)
                           6648 ;	genLabel
   183F                    6649 00102$:
                           6650 ;	battle/battle.c 830
                           6651 ;	genIpush
                           6652 ; _saveRegsForCall: sendSetSize: 0 deInUse: 0 bcInUse: 0 deSending: 0
   183F 21 58 28           6653 	ld	hl,#0x2858
   1842 E5                 6654 	push	hl
                           6655 ;	genIpush
   1843 21 EA 18           6656 	ld	hl,#__str_35
   1846 E5                 6657 	push	hl
                           6658 ;	genCall
   1847 CD 00 00           6659 	call	_battle_print
   184A E8 04              6660 	lda	sp,4(sp)
                           6661 ;	battle/battle.c 831
                           6662 ;	genIpush
                           6663 ; _saveRegsForCall: sendSetSize: 0 deInUse: 0 bcInUse: 0 deSending: 0
   184C 21 7A 48           6664 	ld	hl,#0x487A
   184F E5                 6665 	push	hl
                           6666 ;	genIpush
   1850 21 F1 18           6667 	ld	hl,#__str_36
   1853 E5                 6668 	push	hl
                           6669 ;	genCall
   1854 CD 00 00           6670 	call	_battle_print
   1857 E8 04              6671 	lda	sp,4(sp)
                           6672 ;	genLabel
   1859                    6673 00104$:
                           6674 ;	battle/battle.c 833
                           6675 ;	genCmpEq
                           6676 ;	AOP_HL for _start_hp
                           6677 ; genCmpEq: left 1, right 1, result 0
   1859 21 00 00           6678 	ld	hl,#_start_hp
   185C 7E                 6679 	ld	a,(hl)
   185D FE 32              6680 	cp	a,#0x32
   185F C2 8E 18           6681 	jp	nz,00106$
   1862 18 03              6682 	jr	00133$
   1864                    6683 00132$:
   1864 C3 8E 18           6684 	jp	00106$
   1867                    6685 00133$:
                           6686 ;	battle/battle.c 835
                           6687 ;	genIpush
                           6688 ; _saveRegsForCall: sendSetSize: 0 deInUse: 0 bcInUse: 0 deSending: 0
   1867 21 58 28           6689 	ld	hl,#0x2858
   186A E5                 6690 	push	hl
                           6691 ;	genIpush
   186B 21 F5 18           6692 	ld	hl,#__str_37
   186E E5                 6693 	push	hl
                           6694 ;	genCall
   186F CD 00 00           6695 	call	_battle_print
   1872 E8 04              6696 	lda	sp,4(sp)
                           6697 ;	battle/battle.c 836
                           6698 ;	genIpush
                           6699 ; _saveRegsForCall: sendSetSize: 0 deInUse: 0 bcInUse: 0 deSending: 0
   1874 21 60 48           6700 	ld	hl,#0x4860
   1877 E5                 6701 	push	hl
                           6702 ;	genIpush
   1878 21 FD 18           6703 	ld	hl,#__str_38
   187B E5                 6704 	push	hl
                           6705 ;	genCall
   187C CD 00 00           6706 	call	_battle_print
   187F E8 04              6707 	lda	sp,4(sp)
                           6708 ;	battle/battle.c 837
                           6709 ;	genIpush
                           6710 ; _saveRegsForCall: sendSetSize: 0 deInUse: 0 bcInUse: 0 deSending: 0
   1881 21 7A 48           6711 	ld	hl,#0x487A
   1884 E5                 6712 	push	hl
                           6713 ;	genIpush
   1885 21 FF 18           6714 	ld	hl,#__str_39
   1888 E5                 6715 	push	hl
                           6716 ;	genCall
   1889 CD 00 00           6717 	call	_battle_print
   188C E8 04              6718 	lda	sp,4(sp)
                           6719 ;	genLabel
   188E                    6720 00106$:
                           6721 ;	battle/battle.c 839
                           6722 ;	genCmpEq
                           6723 ;	AOP_HL for _start_hp
                           6724 ; genCmpEq: left 1, right 1, result 0
   188E 21 00 00           6725 	ld	hl,#_start_hp
   1891 7E                 6726 	ld	a,(hl)
   1892 FE 64              6727 	cp	a,#0x64
   1894 C2 E2 18           6728 	jp	nz,00116$
   1897 18 03              6729 	jr	00135$
   1899                    6730 00134$:
   1899 C3 E2 18           6731 	jp	00116$
   189C                    6732 00135$:
                           6733 ;	battle/battle.c 841
                           6734 ;	genIpush
                           6735 ; _saveRegsForCall: sendSetSize: 0 deInUse: 0 bcInUse: 0 deSending: 0
   189C 21 58 28           6736 	ld	hl,#0x2858
   189F E5                 6737 	push	hl
                           6738 ;	genIpush
   18A0 21 03 19           6739 	ld	hl,#__str_40
   18A3 E5                 6740 	push	hl
                           6741 ;	genCall
   18A4 CD 00 00           6742 	call	_battle_print
   18A7 E8 04              6743 	lda	sp,4(sp)
                           6744 ;	battle/battle.c 842
                           6745 ;	genCmpEq
                           6746 ;	AOP_HL for _HERO_HP
                           6747 ;	AOP_HL for _start_hp
                           6748 ; genCmpEq: left 1, right 1, result 0
   18A9 21 00 00           6749 	ld	hl,#_start_hp
   18AC 7E                 6750 	ld	a,(hl)
   18AD 21 00 00           6751 	ld	hl,#_HERO_HP
   18B0 BE                 6752 	cp	(hl)
   18B1 20 02              6753 	jr	nz,00136$
   18B3 18 03              6754 	jr	00137$
   18B5                    6755 00136$:
   18B5 C3 C8 18           6756 	jp	00108$
   18B8                    6757 00137$:
                           6758 ;	battle/battle.c 843
                           6759 ;	genIpush
                           6760 ; _saveRegsForCall: sendSetSize: 0 deInUse: 0 bcInUse: 0 deSending: 0
   18B8 21 60 48           6761 	ld	hl,#0x4860
   18BB E5                 6762 	push	hl
                           6763 ;	genIpush
   18BC 21 09 19           6764 	ld	hl,#__str_41
   18BF E5                 6765 	push	hl
                           6766 ;	genCall
   18C0 CD 00 00           6767 	call	_battle_print
   18C3 E8 04              6768 	lda	sp,4(sp)
                           6769 ;	genGoto
   18C5 C3 D5 18           6770 	jp	00109$
                           6771 ;	genLabel
   18C8                    6772 00108$:
                           6773 ;	battle/battle.c 845
                           6774 ;	genIpush
                           6775 ; _saveRegsForCall: sendSetSize: 0 deInUse: 0 bcInUse: 0 deSending: 0
   18C8 21 60 48           6776 	ld	hl,#0x4860
   18CB E5                 6777 	push	hl
                           6778 ;	genIpush
   18CC 21 0C 19           6779 	ld	hl,#__str_42
   18CF E5                 6780 	push	hl
                           6781 ;	genCall
   18D0 CD 00 00           6782 	call	_battle_print
   18D3 E8 04              6783 	lda	sp,4(sp)
                           6784 ;	genLabel
   18D5                    6785 00109$:
                           6786 ;	battle/battle.c 846
                           6787 ;	genIpush
                           6788 ; _saveRegsForCall: sendSetSize: 0 deInUse: 0 bcInUse: 0 deSending: 0
   18D5 21 7A 48           6789 	ld	hl,#0x487A
   18D8 E5                 6790 	push	hl
                           6791 ;	genIpush
   18D9 21 0E 19           6792 	ld	hl,#__str_43
   18DC E5                 6793 	push	hl
                           6794 ;	genCall
   18DD CD 00 00           6795 	call	_battle_print
   18E0 E8 04              6796 	lda	sp,4(sp)
                           6797 ;	genLabel
   18E2                    6798 00116$:
                           6799 ;	genEndFunction
   18E2 E8 02              6800 	lda	sp,2(sp)
   18E4 C9                 6801 	ret
   18E5                    6802 ___show_fighter_stats_end:
   18E5                    6803 __str_33:
   18E5 48 50              6804 	.ascii "HP"
   18E7 00                 6805 	.db 0x00
   18E8                    6806 __str_34:
   18E8 5B                 6807 	.ascii "["
   18E9 00                 6808 	.db 0x00
   18EA                    6809 __str_35:
   18EA 57 4F 52 4B 45 52  6810 	.ascii "WORKER"
   18F0 00                 6811 	.db 0x00
   18F1                    6812 __str_36:
   18F1 68                 6813 	.ascii "h"
   18F2 5C                 6814 	.db 0x5C
   18F3 5B                 6815 	.ascii "["
   18F4 00                 6816 	.db 0x00
   18F5                    6817 __str_37:
   18F5 4C 45 41 44 45 52  6818 	.ascii "LEADERS"
        53
   18FC 00                 6819 	.db 0x00
   18FD                    6820 __str_38:
   18FD 5B                 6821 	.ascii "["
   18FE 00                 6822 	.db 0x00
   18FF                    6823 __str_39:
   18FF 68 60 5B           6824 	.ascii "h`["
   1902 00                 6825 	.db 0x00
   1903                    6826 __str_40:
   1903 45 56 52 59        6827 	.ascii "EVRY"
   1907 5C                 6828 	.db 0x5C
   1908 00                 6829 	.db 0x00
   1909                    6830 __str_41:
   1909 5B 5B              6831 	.ascii "[["
   190B 00                 6832 	.db 0x00
   190C                    6833 __str_42:
   190C 5B                 6834 	.ascii "["
   190D 00                 6835 	.db 0x00
   190E                    6836 __str_43:
   190E 68                 6837 	.ascii "h"
   190F 5C                 6838 	.db 0x5C
   1910 5B 5B              6839 	.ascii "[["
   1912 00                 6840 	.db 0x00
                           6841 	.area _CODE
ASxxxx Assembler V01.75  (GameBoy Z80-like CPU), page 1.

Symbol Table

  1 _BATTLE_CHOICE                     0009 GR
  1 _BATTLE_NUM                        0011 GR
  1 _BATTLE_WIN                        000F GR
  1 _CHOOSING                          0014 GR
  1 _CHOSEN_ITEM                       0013 GR
  1 _CLAW                              0006 GR
  1 _CLUB                              0004 GR
    _CRAB_CAUGHT                       **** GX
  1 _DEAD                              000E GR
  1 _DEFEND                            0001 GR
  1 _ENEMY                             0010 GR
  1 _FIGHTING                          000D GR
  1 _FIGHT_CHOICE                      000A GR
    _GAME_OVER                         **** GX
    _HERO_HP                           **** GX
  1 _ITEM                              0002 GR
  1 _ITEMS                             0012 GR
  1 _ITEM_CHOICE                       000C GR
  1 _KING_CLAW                         0007 GR
    _LETTER_COUNT                      **** GX
  1 _NET                               0003 GR
  1 _PUNCH                             0000 GR
  1 _PUNCH_LOC                         0008 GR
    _REVOLUTION_2                      **** GX
  1 _RUN_CHOICE                        000B GR
  1 _SHOOT                             0005 GR
    _STATE                             **** GX
  0 ___back_end                        00DD R
  0 ___back_start                      00C1 R
  0 ___battle_menu_end                 0389 R
  0 ___battle_menu_start               0303 R
  0 ___battle_nav_end                  006A R
  0 ___battle_nav_start                0000 R
  0 ___battle_toggle_ctrl_end          050D R
  0 ___battle_toggle_ctrl_start        047E R
  0 ___battle_toggle_down_end          047E R
  0 ___battle_toggle_down_start        0414 R
  0 ___battle_toggle_up_end            0414 R
  0 ___battle_toggle_up_start          03A5 R
  0 ___choice_handler_end              055F R
  0 ___choice_handler_start            050D R
  0 ___choose_item_toggle_end          0303 R
  0 ___choose_item_toggle_start        022D R
  0 ___clear_screen_end                0C9D R
  0 ___clear_screen_start              0C7E R
  0 ___damage_end                      150D R
  0 ___damage_start                    1240 R
  0 ___enemy_damage_end                1728 R
  0 ___enemy_damage_start              15CE R
  0 ___enemy_defend_anim_end           0A02 R
  0 ___enemy_defend_anim_start         08D1 R
  0 ___enemy_fight_anim_end            0C7E R
  0 ___enemy_fight_anim_start          0B43 R
  0 ___fight_config_end                1240 R
  0 ___fight_config_start              11C9 R
  0 ___fight_end                       17A8 R
  0 ___fight_opt_end                   0126 R
  0 ___fight_opt_start                 00DD R
  0 ___fight_start                     1728 R
  0 ___hero_defend_anim_end            08D1 R
  0 ___hero_defend_anim_start          079F R
  0 ___hero_fight_anim_end             0B43 R
  0 ___hero_fight_anim_start           0A02 R
  0 ___hero_fight_end                  0750 R
  0 ___hero_fight_start                055F R
  0 ___item_opt_end                    01F9 R
  0 ___item_opt_start                  013F R
  0 ___lower_hp_end                    15CE R
  0 ___lower_hp_start                  150D R
  0 ___npc_fight_end                   118F R
  0 ___npc_fight_start                 0FA2 R
  0 ___run_end                         00AF R
  0 ___run_start                       006A R
  0 ___show_fighter_stats_end          18E5 R
  0 ___show_fighter_stats_start        17A8 R
  0 ___sprite_setup_end                0FA2 R
  0 ___sprite_setup_start              0C9D R
    __modschar_rrx_s                   **** GX
  0 __str_0                            00AF R
  0 __str_1                            00B3 R
  0 __str_10                           0210 R
  0 __str_11                           0212 R
  0 __str_12                           0218 R
  0 __str_13                           021D R
  0 __str_14                           0226 R
  0 __str_15                           0389 R
  0 __str_16                           038B R
  0 __str_17                           0392 R
  0 __str_18                           039A R
  0 __str_19                           039F R
  0 __str_2                            00B9 R
  0 __str_20                           0750 R
  0 __str_21                           076C R
  0 __str_22                           0774 R
  0 __str_23                           077C R
  0 __str_24                           0784 R
  0 __str_25                           078B R
  0 __str_26                           0795 R
  0 __str_27                           118F R
  0 __str_28                           119B R
  0 __str_29                           11A6 R
  0 __str_3                            0126 R
  0 __str_30                           11AE R
  0 __str_31                           11B7 R
  0 __str_32                           11C1 R
  0 __str_33                           18E5 R
  0 __str_34                           18E8 R
  0 __str_35                           18EA R
  0 __str_36                           18F1 R
  0 __str_37                           18F5 R
  0 __str_38                           18FD R
  0 __str_39                           18FF R
  0 __str_4                            0128 R
  0 __str_40                           1903 R
  0 __str_41                           1909 R
  0 __str_42                           190C R
  0 __str_43                           190E R
  0 __str_5                            012F R
  0 __str_6                            0138 R
  0 __str_7                            01F9 R
  0 __str_8                            0200 R
  0 __str_9                            0209 R
  1 _a                                 001E GR
    _arrow_x                           **** GX
    _arrow_y                           **** GX
    _asakawa_front_idle                **** GX
  0 _back                              00C1 GR
    _battle_bkg_clean                  **** GX
  0 _battle_menu                       0303 GR
  0 _battle_nav                        0000 GR
    _battle_print                      **** GX
  0 _battle_toggle_ctrl                047E GR
  0 _battle_toggle_down                0414 GR
  0 _battle_toggle_up                  03A5 GR
    _blank_screen                      **** GX
    _blank_screen_tiles                **** GX
    _chain_border_tiles                **** GX
    _choice                            **** GX
  0 _choice_handler                    050D GR
  0 _choose_item_toggle                022D GR
  0 _clear_screen                      0C7E GR
  0 _damage                            1240 GR
    _delay                             **** GX
    _display_off                       **** GX
  1 _e_hp                              0027 GR
  1 _enemy_choice                      0015 GR
  0 _enemy_damage                      15CE GR
  0 _enemy_defend_anim                 08D1 GR
  0 _enemy_fight_anim                  0B43 GR
  1 _enemy_y                           001D GR
  0 _fight                             1728 GR
  0 _fight_config                      11C9 GR
  0 _fight_opt                         00DD GR
  1 _first_fighter                     001B GR
    _fisherman_idle_back               **** GX
  1 _h_hp                              001F GR
  1 _hero_acc                          001A GR
    _hero_back_idle                    **** GX
  0 _hero_defend_anim                  079F GR
  0 _hero_fight                        055F GR
  0 _hero_fight_anim                   0A02 GR
    _hide_sprites                      **** GX
    _i                                 **** GX
    _initarand                         **** GX
  0 _item_opt                          013F GR
    _itoa                              **** GX
    _joypad                            **** GX
    _king_crab                         **** GX
  0 _lower_hp                          150D GR
    _move_sprite                       **** GX
    _norm_crab                         **** GX
  1 _npc_acc                           0019 GR
  1 _npc_act                           0018 GR
  0 _npc_fight                         0FA2 GR
    _option                            **** GX
    _print                             **** GX
    _rand                              **** GX
  0 _run                               006A GR
  1 _seed                              0016 GR
    _set_bkg_data                      **** GX
    _set_bkg_tiles                     **** GX
    _set_sprite_data                   **** GX
    _set_sprite_prop                   **** GX
    _set_sprite_tile                   **** GX
  0 _show_fighter_stats                17A8 GR
    _small_chain_border                **** GX
    _soldier                           **** GX
    _sprite_clean                      **** GX
  0 _sprite_setup                      0C9D GR
    _sprite_width                      **** GX
    _start_hp                          **** GX
    _striking                          **** GX
    _student_idle_back                 **** GX
  1 _y                                 001C GR

ASxxxx Assembler V01.75  (GameBoy Z80-like CPU), page 2.

Area Table

   0 _CODE                              size 1913   flags 0
   1 _DATA                              size   2F   flags 0
   2 _OVERLAY                           size    0   flags 0
   3 _ISEG                              size    0   flags 0
   4 _BSEG                              size    0   flags 0
   5 _XSEG                              size    0   flags 0
   6 _GSINIT                            size   7D   flags 0
   7 _GSFINAL                           size    0   flags 0
   8 _HOME                              size    0   flags 0
