                              1 ;--------------------------------------------------------
                              2 ; File Created by SDCC : FreeWare ANSI-C Compiler
                              3 ; Version 2.3.1 Sat Nov 10 16:44:50 2018
                              4 
                              5 ;--------------------------------------------------------
                              6 	.module lcc130130
                              7 	
                              8 ;--------------------------------------------------------
                              9 ; Public variables in this module
                             10 ;--------------------------------------------------------
                             11 	.globl _main
                             12 	.globl _update_swithces
                             13 	.globl _velocity
                             14 	.globl _player
                             15 	.globl _lives
                             16 	.globl _x
                             17 	.globl _t
                             18 	.globl _j
                             19 	.globl _i
                             20 	.globl _incr
                             21 	.globl _enemies
                             22 	.globl _enemy_count
                             23 	.globl _sound_on
                             24 	.globl _heart
                             25 	.globl _alpha
                             26 	.globl _sprites
                             27 	.globl _dungeon
                             28 	.globl _tiles
                             29 	.globl _collide_sound
                             30 	.globl _collision_check
                             31 	.globl _PRINT_MESSAGE
                             32 	.globl _score
                             33 	.globl _enemy_move
                             34 	.globl _init_enem
                             35 	.globl _level_change
                             36 	.globl _add_vect
                             37 	.globl _wall_check
                             38 	.globl _bounce
                             39 	.globl _init
                             40 	.globl _check_input
                             41 ;--------------------------------------------------------
                             42 ; special function registers
                             43 ;--------------------------------------------------------
                             44 ;--------------------------------------------------------
                             45 ; special function bits 
                             46 ;--------------------------------------------------------
                             47 ;--------------------------------------------------------
                             48 ; internal ram data
                             49 ;--------------------------------------------------------
                             50 	.area _DATA
   0000                      51 _tiles::
   0000                      52 	.ds 960
   03C0                      53 _dungeon::
   03C0                      54 	.ds 360
   0528                      55 _sprites::
   0528                      56 	.ds 32
   0548                      57 _alpha::
   0548                      58 	.ds 768
   0848                      59 _heart::
   0848                      60 	.ds 32
   0868                      61 _sound_on::
   0868                      62 	.ds 1
   0869                      63 _enemy_count::
   0869                      64 	.ds 2
   086B                      65 _enemies::
   086B                      66 	.ds 16
   087B                      67 _incr::
   087B                      68 	.ds 2
   087D                      69 _i::
   087D                      70 	.ds 2
   087F                      71 _j::
   087F                      72 	.ds 2
   0881                      73 _t::
   0881                      74 	.ds 2
   0883                      75 _x::
   0883                      76 	.ds 2
   0885                      77 _lives::
   0885                      78 	.ds 1
   0886                      79 _player::
   0886                      80 	.ds 2
   0888                      81 _velocity::
   0888                      82 	.ds 8
                             83 ;--------------------------------------------------------
                             84 ; overlayable items in internal ram 
                             85 ;--------------------------------------------------------
                             86 	.area _OVERLAY
                             87 ;--------------------------------------------------------
                             88 ; indirectly addressable internal ram data
                             89 ;--------------------------------------------------------
                             90 	.area _ISEG
                             91 ;--------------------------------------------------------
                             92 ; bit data
                             93 ;--------------------------------------------------------
                             94 	.area _BSEG
                             95 ;--------------------------------------------------------
                             96 ; external ram data
                             97 ;--------------------------------------------------------
                             98 	.area _XSEG
                             99 ;--------------------------------------------------------
                            100 ; global & static initialisations
                            101 ;--------------------------------------------------------
                            102 	.area _GSINIT
                            103 	.area _GSFINAL
                            104 	.area _GSINIT
                            105 ;	main.c 26
                            106 ;	main.c 343
                            107 ;	genArrayInit
                            108 ; _saveRegsForCall: sendSetSize: 0 deInUse: 0 bcInUse: 0 deSending: 0
   0000 21 00 00            109 	ld	hl,#_tiles
   0003 CD 00 00            110 	call	__initrleblock
   0006 F0 00               111 	.db	-16,0x00
   0008 4D                  112 	.db	77
   0009 27 FF 7F FF 9E FF   113 	.db	0x27, 0xFF, 0x7F, 0xFF, 0x9E, 0xFF, 0x0F, 0xFF
        0F FF
   0011 5B FF 3F FF 17 FF   114 	.db	0x5B, 0xFF, 0x3F, 0xFF, 0x17, 0xFF, 0x5B, 0xFF
        5B FF
   0019 68 17 31 0F 20 1F   115 	.db	0x68, 0x17, 0x31, 0x0F, 0x20, 0x1F, 0x69, 0x17
        69 17
   0021 60 1F 24 1F 20 1F   116 	.db	0x60, 0x1F, 0x24, 0x1F, 0x20, 0x1F, 0x68, 0x17
        68 17
   0029 DA FF E8 FF FC FF   117 	.db	0xDA, 0xFF, 0xE8, 0xFF, 0xFC, 0xFF, 0xDA, 0xFF
        DA FF
   0031 F0 FF 79 FF FE FF   118 	.db	0xF0, 0xFF, 0x79, 0xFF, 0xFE, 0xFF, 0xE4, 0xFF
        E4 FF
   0039 16 E8 8C F0 04 F8   119 	.db	0x16, 0xE8, 0x8C, 0xF0, 0x04, 0xF8, 0x96, 0xE8
        96 E8
   0041 06 F8 24 F8 04 F8   120 	.db	0x06, 0xF8, 0x24, 0xF8, 0x04, 0xF8, 0x16, 0xE8
        16 E8
   0049 0A FF 00 FF 20 FF   121 	.db	0x0A, 0xFF, 0x00, 0xFF, 0x20, 0xFF, 0x89, 0x76
        89 76
   0051 02 FD FF 00 99      122 	.db	0x02, 0xFD, 0xFF, 0x00, 0x99
   0056 FB 00               123 	.db	-5,0x00
   0058 5E                  124 	.db	94
   0059 99 00 FF 00 02 FD   125 	.db	0x99, 0x00, 0xFF, 0x00, 0x02, 0xFD, 0x89, 0x76
        89 76
   0061 20 FF 00 FF 0A FF   126 	.db	0x20, 0xFF, 0x00, 0xFF, 0x0A, 0xFF, 0x04, 0xFF
        04 FF
   0069 92 FF 23 FF F6 FF   127 	.db	0x92, 0xFF, 0x23, 0xFF, 0xF6, 0xFF, 0xBE, 0xFF
        BE FF
   0071 6F FF FF FF FB FF   128 	.db	0x6F, 0xFF, 0xFF, 0xFF, 0xFB, 0xFF, 0x04, 0xFF
        04 FF
   0079 92 FF 23 FF F6 FF   129 	.db	0x92, 0xFF, 0x23, 0xFF, 0xF6, 0xFF, 0xBE, 0xFF
        BE FF
   0081 6F FF FF FF FB FF   130 	.db	0x6F, 0xFF, 0xFF, 0xFF, 0xFB, 0xFF, 0x03, 0x00
        03 00
   0089 03 00 39 00 21 1E   131 	.db	0x03, 0x00, 0x39, 0x00, 0x21, 0x1E, 0x0B, 0x1C
        0B 1C
   0091 00 1F C8 17 F8 07   132 	.db	0x00, 0x1F, 0xC8, 0x17, 0xF8, 0x07, 0xC0, 0x00
        C0 00
   0099 C0 00 8C 00 84 78   133 	.db	0xC0, 0x00, 0x8C, 0x00, 0x84, 0x78, 0xD4, 0x38
        D4 38
   00A1 00 F8 13 E8 1F E0   134 	.db	0x00, 0xF8, 0x13, 0xE8, 0x1F, 0xE0, 0x1F, 0xE0
        1F E0
   00A9 13 E8 00 F8 D0 38   135 	.db	0x13, 0xE8, 0x00, 0xF8, 0xD0, 0x38, 0x84, 0x78
        84 78
   00B1 9C 00 C0 00 C0 00   136 	.db	0x9C, 0x00, 0xC0, 0x00, 0xC0, 0x00
   00B7 F0 FF               137 	.db	-16,0xFF
   00B9 12                  138 	.db	18
   00BA F8 07 C8 17 00 1F   139 	.db	0xF8, 0x07, 0xC8, 0x17, 0x00, 0x1F, 0x2B, 0x1C
        2B 1C
   00C2 21 1E 31 00 03 00   140 	.db	0x21, 0x1E, 0x31, 0x00, 0x03, 0x00, 0x03, 0x00
        03 00
   00CA FF FF               141 	.db	0xFF, 0xFF
   00CC FA 80               142 	.db	-6,0x80
   00CE F0 8F               143 	.db	-16,0x8F
   00D0 FA 80               144 	.db	-6,0x80
   00D2 02                  145 	.db	2
   00D3 FF FF               146 	.db	0xFF, 0xFF
   00D5 F0 8F               147 	.db	-16,0x8F
   00D7 F0 F1               148 	.db	-16,0xF1
   00D9 F8 FF               149 	.db	-8,0xFF
   00DB FA 00               150 	.db	-6,0x00
   00DD 04                  151 	.db	4
   00DE FF FF FF FF         152 	.db	0xFF, 0xFF, 0xFF, 0xFF
   00E2 FA 00               153 	.db	-6,0x00
   00E4 F6 FF               154 	.db	-10,0xFF
   00E6 FA 01               155 	.db	-6,0x01
   00E8 F0 F1               156 	.db	-16,0xF1
   00EA FA 01               157 	.db	-6,0x01
   00EC 46                  158 	.db	70
   00ED FF FF 83 7C 39 C6   159 	.db	0xFF, 0xFF, 0x83, 0x7C, 0x39, 0xC6, 0x4D, 0xB2
        4D B2
   00F5 5D A2 79 86 33 CC   160 	.db	0x5D, 0xA2, 0x79, 0x86, 0x33, 0xCC, 0x84, 0x7B
        84 7B
   00FD FA 05 31 CE 62 9D   161 	.db	0xFA, 0x05, 0x31, 0xCE, 0x62, 0x9D, 0xC4, 0x3B
        C4 3B
   0105 80 7F 13 EC 46 B9   162 	.db	0x80, 0x7F, 0x13, 0xEC, 0x46, 0xB9, 0x64, 0x9B
        64 9B
   010D 18 E7 38 38 44 44   163 	.db	0x18, 0xE7, 0x38, 0x38, 0x44, 0x44, 0x82, 0x82
        82 82
   0115 82 82 FE FE 82 82   164 	.db	0x82, 0x82, 0xFE, 0xFE, 0x82, 0x82, 0x82, 0x82
        82 82
   011D 00 00 FC FC 82 82   165 	.db	0x00, 0x00, 0xFC, 0xFC, 0x82, 0x82, 0x82, 0x82
        82 82
   0125 FC FC 82 82 82 82   166 	.db	0xFC, 0xFC, 0x82, 0x82, 0x82, 0x82, 0xFC, 0xFC
        FC FC
   012D 00 00 7C 7C 82 82   167 	.db	0x00, 0x00, 0x7C, 0x7C, 0x82, 0x82
   0133 FA 80               168 	.db	-6,0x80
   0135 0A                  169 	.db	10
   0136 82 82 7C 7C 00 00   170 	.db	0x82, 0x82, 0x7C, 0x7C, 0x00, 0x00, 0xF8, 0xF8
        F8 F8
   013E 84 84               171 	.db	0x84, 0x84
   0140 FA 82               172 	.db	-6,0x82
   0142 1E                  173 	.db	30
   0143 84 84 F8 F8 00 00   174 	.db	0x84, 0x84, 0xF8, 0xF8, 0x00, 0x00, 0xFE, 0xFE
        FE FE
   014B 80 80 80 80 FC FC   175 	.db	0x80, 0x80, 0x80, 0x80, 0xFC, 0xFC, 0x80, 0x80
        80 80
   0153 80 80 FE FE 00 00   176 	.db	0x80, 0x80, 0xFE, 0xFE, 0x00, 0x00, 0xFE, 0xFE
        FE FE
   015B 80 80 80 80 FC FC   177 	.db	0x80, 0x80, 0x80, 0x80, 0xFC, 0xFC
   0161 FA 80               178 	.db	-6,0x80
   0163 12                  179 	.db	18
   0164 00 00 7C 7C 82 82   180 	.db	0x00, 0x00, 0x7C, 0x7C, 0x82, 0x82, 0x80, 0x80
        80 80
   016C 80 80 8E 8E 82 82   181 	.db	0x80, 0x80, 0x8E, 0x8E, 0x82, 0x82, 0x7E, 0x7E
        7E 7E
   0174 00 00               182 	.db	0x00, 0x00
   0176 FA 82               183 	.db	-6,0x82
   0178 02                  184 	.db	2
   0179 FE FE               185 	.db	0xFE, 0xFE
   017B FA 82               186 	.db	-6,0x82
   017D 04                  187 	.db	4
   017E 00 00 7C 7C         188 	.db	0x00, 0x00, 0x7C, 0x7C
   0182 F6 10               189 	.db	-10,0x10
   0184 06                  190 	.db	6
   0185 7C 7C 00 00 1E 1E   191 	.db	0x7C, 0x7C, 0x00, 0x00, 0x1E, 0x1E
   018B F8 04               192 	.db	-8,0x04
   018D 16                  193 	.db	22
   018E 84 84 78 78 00 00   194 	.db	0x84, 0x84, 0x78, 0x78, 0x00, 0x00, 0x84, 0x84
        84 84
   0196 88 88 90 90 F0 F0   195 	.db	0x88, 0x88, 0x90, 0x90, 0xF0, 0xF0, 0x88, 0x88
        88 88
   019E 84 84 82 82 00 00   196 	.db	0x84, 0x84, 0x82, 0x82, 0x00, 0x00
   01A4 F4 40               197 	.db	-12,0x40
   01A6 0C                  198 	.db	12
   01A7 7E 7E 00 00 82 82   199 	.db	0x7E, 0x7E, 0x00, 0x00, 0x82, 0x82, 0xC6, 0xC6
        C6 C6
   01AF AA AA 92 92         200 	.db	0xAA, 0xAA, 0x92, 0x92
   01B3 FA 82               201 	.db	-6,0x82
   01B5 14                  202 	.db	20
   01B6 00 00 82 82 C2 C2   203 	.db	0x00, 0x00, 0x82, 0x82, 0xC2, 0xC2, 0xA2, 0xA2
        A2 A2
   01BE 92 92 8A 8A 86 86   204 	.db	0x92, 0x92, 0x8A, 0x8A, 0x86, 0x86, 0x82, 0x82
        82 82
   01C6 00 00 7C 7C         205 	.db	0x00, 0x00, 0x7C, 0x7C
   01CA F6 82               206 	.db	-10,0x82
   01CC 06                  207 	.db	6
   01CD 7C 7C 00 00 FC FC   208 	.db	0x7C, 0x7C, 0x00, 0x00, 0xFC, 0xFC
   01D3 FA 82               209 	.db	-6,0x82
   01D5 3A                  210 	.db	58
   01D6 FC FC 80 80 80 80   211 	.db	0xFC, 0xFC, 0x80, 0x80, 0x80, 0x80, 0x00, 0x00
        00 00
   01DE 7C 7C 82 82 82 82   212 	.db	0x7C, 0x7C, 0x82, 0x82, 0x82, 0x82, 0x92, 0x92
        92 92
   01E6 8A 8A 84 84 7A 7A   213 	.db	0x8A, 0x8A, 0x84, 0x84, 0x7A, 0x7A, 0x00, 0x00
        00 00
   01EE FC FC 82 82 82 82   214 	.db	0xFC, 0xFC, 0x82, 0x82, 0x82, 0x82, 0x84, 0x84
        84 84
   01F6 F8 F8 84 84 82 82   215 	.db	0xF8, 0xF8, 0x84, 0x84, 0x82, 0x82, 0x00, 0x00
        00 00
   01FE 7C 7C 80 80 80 80   216 	.db	0x7C, 0x7C, 0x80, 0x80, 0x80, 0x80, 0x7C, 0x7C
        7C 7C
   0206 02 02 02 02 FC FC   217 	.db	0x02, 0x02, 0x02, 0x02, 0xFC, 0xFC, 0x00, 0x00
        00 00
   020E FE FE               218 	.db	0xFE, 0xFE
   0210 F4 10               219 	.db	-12,0x10
   0212 02                  220 	.db	2
   0213 00 00               221 	.db	0x00, 0x00
   0215 F4 82               222 	.db	-12,0x82
   0217 04                  223 	.db	4
   0218 7C 7C 00 00         224 	.db	0x7C, 0x7C, 0x00, 0x00
   021C F8 82               225 	.db	-8,0x82
   021E 08                  226 	.db	8
   021F 44 44 28 28 10 10   227 	.db	0x44, 0x44, 0x28, 0x28, 0x10, 0x10, 0x00, 0x00
        00 00
   0227 FA 82               228 	.db	-6,0x82
   0229 20                  229 	.db	32
   022A 92 92 AA AA C6 C6   230 	.db	0x92, 0x92, 0xAA, 0xAA, 0xC6, 0xC6, 0x82, 0x82
        82 82
   0232 00 00 82 82 44 44   231 	.db	0x00, 0x00, 0x82, 0x82, 0x44, 0x44, 0x28, 0x28
        28 28
   023A 10 10 28 28 44 44   232 	.db	0x10, 0x10, 0x28, 0x28, 0x44, 0x44, 0x82, 0x82
        82 82
   0242 00 00 82 82 44 44   233 	.db	0x00, 0x00, 0x82, 0x82, 0x44, 0x44, 0x28, 0x28
        28 28
   024A F8 10               234 	.db	-8,0x10
   024C 26                  235 	.db	38
   024D 00 00 FE FE 04 04   236 	.db	0x00, 0x00, 0xFE, 0xFE, 0x04, 0x04, 0x08, 0x08
        08 08
   0255 10 10 20 20 40 40   237 	.db	0x10, 0x10, 0x20, 0x20, 0x40, 0x40, 0xFE, 0xFE
        FE FE
   025D 00 00 7C 7C 86 86   238 	.db	0x00, 0x00, 0x7C, 0x7C, 0x86, 0x86, 0x8A, 0x8A
        8A 8A
   0265 92 92 A2 A2 C2 C2   239 	.db	0x92, 0x92, 0xA2, 0xA2, 0xC2, 0xC2, 0x7C, 0x7C
        7C 7C
   026D 00 00 10 10 30 30   240 	.db	0x00, 0x00, 0x10, 0x10, 0x30, 0x30
   0273 F8 10               241 	.db	-8,0x10
   0275 5C                  242 	.db	92
   0276 7C 7C 00 00 7C 7C   243 	.db	0x7C, 0x7C, 0x00, 0x00, 0x7C, 0x7C, 0x82, 0x82
        82 82
   027E 02 02 1C 1C 60 60   244 	.db	0x02, 0x02, 0x1C, 0x1C, 0x60, 0x60, 0x80, 0x80
        80 80
   0286 FE FE 00 00 FE FE   245 	.db	0xFE, 0xFE, 0x00, 0x00, 0xFE, 0xFE, 0x04, 0x04
        04 04
   028E 18 18 04 04 02 02   246 	.db	0x18, 0x18, 0x04, 0x04, 0x02, 0x02, 0x82, 0x82
        82 82
   0296 7C 7C 00 00 0C 0C   247 	.db	0x7C, 0x7C, 0x00, 0x00, 0x0C, 0x0C, 0x14, 0x14
        14 14
   029E 24 24 44 44 84 84   248 	.db	0x24, 0x24, 0x44, 0x44, 0x84, 0x84, 0xFE, 0xFE
        FE FE
   02A6 04 04 00 00 FC FC   249 	.db	0x04, 0x04, 0x00, 0x00, 0xFC, 0xFC, 0x80, 0x80
        80 80
   02AE FC FC 02 02 02 02   250 	.db	0xFC, 0xFC, 0x02, 0x02, 0x02, 0x02, 0x82, 0x82
        82 82
   02B6 7C 7C 00 00 7C 7C   251 	.db	0x7C, 0x7C, 0x00, 0x00, 0x7C, 0x7C, 0x80, 0x80
        80 80
   02BE 80 80 FC FC 82 82   252 	.db	0x80, 0x80, 0xFC, 0xFC, 0x82, 0x82, 0x82, 0x82
        82 82
   02C6 7C 7C 00 00 FE FE   253 	.db	0x7C, 0x7C, 0x00, 0x00, 0xFE, 0xFE, 0x82, 0x82
        82 82
   02CE 04 04 08 08         254 	.db	0x04, 0x04, 0x08, 0x08
   02D2 FA 10               255 	.db	-6,0x10
   02D4 22                  256 	.db	34
   02D5 00 00 7C 7C 82 82   257 	.db	0x00, 0x00, 0x7C, 0x7C, 0x82, 0x82, 0x82, 0x82
        82 82
   02DD 7C 7C 82 82 82 82   258 	.db	0x7C, 0x7C, 0x82, 0x82, 0x82, 0x82, 0x7C, 0x7C
        7C 7C
   02E5 00 00 7C 7C 82 82   259 	.db	0x00, 0x00, 0x7C, 0x7C, 0x82, 0x82, 0x82, 0x82
        82 82
   02ED 7E 7E 02 02 02 02   260 	.db	0x7E, 0x7E, 0x02, 0x02, 0x02, 0x02, 0x7C, 0x7C
        7C 7C
   02F5 00 00               261 	.db	0x00, 0x00
   02F7 00                  262 	.db	0
                            263 ;	main.c 25
                            264 ;	main.c 343
                            265 ;	genArrayInit
                            266 ; _saveRegsForCall: sendSetSize: 0 deInUse: 0 bcInUse: 0 deSending: 0
   02F8 21 C0 03            267 	ld	hl,#_dungeon
   02FB CD 00 00            268 	call	__initrleblock
   02FE 01                  269 	.db	1
   02FF 09                  270 	.db	0x09
   0300 EE 06               271 	.db	-18,0x06
   0302 03                  272 	.db	3
   0303 0A 02 01            273 	.db	0x0A, 0x02, 0x01
   0306 F0 08               274 	.db	-16,0x08
   0308 04                  275 	.db	4
   0309 03 04 02 01         276 	.db	0x03, 0x04, 0x02, 0x01
   030D F0 00               277 	.db	-16,0x00
   030F 04                  278 	.db	4
   0310 03 04 02 01         279 	.db	0x03, 0x04, 0x02, 0x01
   0314 F0 00               280 	.db	-16,0x00
   0316 04                  281 	.db	4
   0317 03 04 02 01         282 	.db	0x03, 0x04, 0x02, 0x01
   031B F0 00               283 	.db	-16,0x00
   031D 04                  284 	.db	4
   031E 03 04 02 01         285 	.db	0x03, 0x04, 0x02, 0x01
   0322 F0 00               286 	.db	-16,0x00
   0324 04                  287 	.db	4
   0325 03 04 02 01         288 	.db	0x03, 0x04, 0x02, 0x01
   0329 F0 00               289 	.db	-16,0x00
   032B 04                  290 	.db	4
   032C 03 04 02 01         291 	.db	0x03, 0x04, 0x02, 0x01
   0330 F0 00               292 	.db	-16,0x00
   0332 04                  293 	.db	4
   0333 03 04 02 01         294 	.db	0x03, 0x04, 0x02, 0x01
   0337 F0 00               295 	.db	-16,0x00
   0339 04                  296 	.db	4
   033A 03 04 02 01         297 	.db	0x03, 0x04, 0x02, 0x01
   033E F0 00               298 	.db	-16,0x00
   0340 04                  299 	.db	4
   0341 03 04 02 01         300 	.db	0x03, 0x04, 0x02, 0x01
   0345 F0 00               301 	.db	-16,0x00
   0347 04                  302 	.db	4
   0348 03 04 02 01         303 	.db	0x03, 0x04, 0x02, 0x01
   034C F0 00               304 	.db	-16,0x00
   034E 04                  305 	.db	4
   034F 03 04 02 01         306 	.db	0x03, 0x04, 0x02, 0x01
   0353 F0 00               307 	.db	-16,0x00
   0355 04                  308 	.db	4
   0356 03 04 02 01         309 	.db	0x03, 0x04, 0x02, 0x01
   035A F0 00               310 	.db	-16,0x00
   035C 04                  311 	.db	4
   035D 03 04 02 01         312 	.db	0x03, 0x04, 0x02, 0x01
   0361 F0 00               313 	.db	-16,0x00
   0363 04                  314 	.db	4
   0364 03 04 02 01         315 	.db	0x03, 0x04, 0x02, 0x01
   0368 F0 00               316 	.db	-16,0x00
   036A 04                  317 	.db	4
   036B 03 04 02 01         318 	.db	0x03, 0x04, 0x02, 0x01
   036F F0 07               319 	.db	-16,0x07
   0371 03                  320 	.db	3
   0372 03 04 0D            321 	.db	0x03, 0x04, 0x0D
   0375 EE 05               322 	.db	-18,0x05
   0377 01                  323 	.db	1
   0378 0B                  324 	.db	0x0B
   0379 00                  325 	.db	0
                            326 ;	main.c 1
                            327 ;	main.c 343
                            328 ;	genArrayInit
                            329 ; _saveRegsForCall: sendSetSize: 0 deInUse: 0 bcInUse: 0 deSending: 0
   037A 21 28 05            330 	ld	hl,#_sprites
   037D CD 00 00            331 	call	__initrleblock
   0380 20                  332 	.db	32
   0381 7E 7E 81 81 A5 A5   333 	.db	0x7E, 0x7E, 0x81, 0x81, 0xA5, 0xA5, 0x81, 0x81
        81 81
   0389 81 81 BD BD 81 81   334 	.db	0x81, 0x81, 0xBD, 0xBD, 0x81, 0x81, 0x7E, 0x7E
        7E 7E
   0391 7E 7E 81 81 A5 A5   335 	.db	0x7E, 0x7E, 0x81, 0x81, 0xA5, 0xA5, 0x81, 0x81
        81 81
   0399 99 99 A5 A5 81 81   336 	.db	0x99, 0x99, 0xA5, 0xA5, 0x81, 0x81, 0x7E, 0x7E
        7E 7E
   03A1 00                  337 	.db	0
                            338 ;	main.c 1
                            339 ;	main.c 343
                            340 ;	genArrayInit
                            341 ; _saveRegsForCall: sendSetSize: 0 deInUse: 0 bcInUse: 0 deSending: 0
   03A2 21 48 05            342 	ld	hl,#_alpha
   03A5 CD 00 00            343 	call	__initrleblock
   03A8 14                  344 	.db	20
   03A9 7C 7C 86 86 8A 8A   345 	.db	0x7C, 0x7C, 0x86, 0x86, 0x8A, 0x8A, 0x92, 0x92
        92 92
   03B1 A2 A2 C2 C2 7C 7C   346 	.db	0xA2, 0xA2, 0xC2, 0xC2, 0x7C, 0x7C, 0x00, 0x00
        00 00
   03B9 10 10 30 30         347 	.db	0x10, 0x10, 0x30, 0x30
   03BD F8 10               348 	.db	-8,0x10
   03BF 5C                  349 	.db	92
   03C0 7C 7C 00 00 7C 7C   350 	.db	0x7C, 0x7C, 0x00, 0x00, 0x7C, 0x7C, 0x82, 0x82
        82 82
   03C8 02 02 1C 1C 60 60   351 	.db	0x02, 0x02, 0x1C, 0x1C, 0x60, 0x60, 0x80, 0x80
        80 80
   03D0 FE FE 00 00 FE FE   352 	.db	0xFE, 0xFE, 0x00, 0x00, 0xFE, 0xFE, 0x04, 0x04
        04 04
   03D8 18 18 04 04 02 02   353 	.db	0x18, 0x18, 0x04, 0x04, 0x02, 0x02, 0x82, 0x82
        82 82
   03E0 7C 7C 00 00 0C 0C   354 	.db	0x7C, 0x7C, 0x00, 0x00, 0x0C, 0x0C, 0x14, 0x14
        14 14
   03E8 24 24 44 44 84 84   355 	.db	0x24, 0x24, 0x44, 0x44, 0x84, 0x84, 0xFE, 0xFE
        FE FE
   03F0 04 04 00 00 FC FC   356 	.db	0x04, 0x04, 0x00, 0x00, 0xFC, 0xFC, 0x80, 0x80
        80 80
   03F8 FC FC 02 02 02 02   357 	.db	0xFC, 0xFC, 0x02, 0x02, 0x02, 0x02, 0x82, 0x82
        82 82
   0400 7C 7C 00 00 7C 7C   358 	.db	0x7C, 0x7C, 0x00, 0x00, 0x7C, 0x7C, 0x80, 0x80
        80 80
   0408 80 80 FC FC 82 82   359 	.db	0x80, 0x80, 0xFC, 0xFC, 0x82, 0x82, 0x82, 0x82
        82 82
   0410 7C 7C 00 00 FE FE   360 	.db	0x7C, 0x7C, 0x00, 0x00, 0xFE, 0xFE, 0x82, 0x82
        82 82
   0418 04 04 08 08         361 	.db	0x04, 0x04, 0x08, 0x08
   041C FA 10               362 	.db	-6,0x10
   041E 2E                  363 	.db	46
   041F 00 00 7C 7C 82 82   364 	.db	0x00, 0x00, 0x7C, 0x7C, 0x82, 0x82, 0x82, 0x82
        82 82
   0427 7C 7C 82 82 82 82   365 	.db	0x7C, 0x7C, 0x82, 0x82, 0x82, 0x82, 0x7C, 0x7C
        7C 7C
   042F 00 00 7C 7C 82 82   366 	.db	0x00, 0x00, 0x7C, 0x7C, 0x82, 0x82, 0x82, 0x82
        82 82
   0437 7E 7E 02 02 02 02   367 	.db	0x7E, 0x7E, 0x02, 0x02, 0x02, 0x02, 0x7C, 0x7C
        7C 7C
   043F 00 00 00 00 30 30   368 	.db	0x00, 0x00, 0x00, 0x00, 0x30, 0x30, 0x30, 0x30
        30 30
   0447 00 00 30 30 30 30   369 	.db	0x00, 0x00, 0x30, 0x30, 0x30, 0x30
   044D FA 00               370 	.db	-6,0x00
   044F 0C                  371 	.db	12
   0450 30 30 30 30 00 00   372 	.db	0x30, 0x30, 0x30, 0x30, 0x00, 0x00, 0x30, 0x30
        30 30
   0458 10 10 20 20         373 	.db	0x10, 0x10, 0x20, 0x20
   045C F6 00               374 	.db	-10,0x00
   045E 06                  375 	.db	6
   045F 18 18 08 08 10 10   376 	.db	0x18, 0x18, 0x08, 0x08, 0x10, 0x10
   0465 F8 00               377 	.db	-8,0x00
   0467 02                  378 	.db	2
   0468 3E 3E               379 	.db	0x3E, 0x3E
   046A EE 00               380 	.db	-18,0x00
   046C 4A                  381 	.db	74
   046D 18 18 18 18 00 00   382 	.db	0x18, 0x18, 0x18, 0x18, 0x00, 0x00, 0x01, 0x01
        01 01
   0475 02 02 04 04 08 08   383 	.db	0x02, 0x02, 0x04, 0x04, 0x08, 0x08, 0x10, 0x10
        10 10
   047D 20 20 40 40 00 00   384 	.db	0x20, 0x20, 0x40, 0x40, 0x00, 0x00, 0x7C, 0x7C
        7C 7C
   0485 82 82 9A 9A AA AA   385 	.db	0x82, 0x82, 0x9A, 0x9A, 0xAA, 0xAA, 0xBC, 0xBC
        BC BC
   048D 80 80 7C 7C 00 00   386 	.db	0x80, 0x80, 0x7C, 0x7C, 0x00, 0x00, 0x38, 0x38
        38 38
   0495 44 44 82 82 82 82   387 	.db	0x44, 0x44, 0x82, 0x82, 0x82, 0x82, 0xFE, 0xFE
        FE FE
   049D 82 82 82 82 00 00   388 	.db	0x82, 0x82, 0x82, 0x82, 0x00, 0x00, 0xFC, 0xFC
        FC FC
   04A5 82 82 82 82 FC FC   389 	.db	0x82, 0x82, 0x82, 0x82, 0xFC, 0xFC, 0x82, 0x82
        82 82
   04AD 82 82 FC FC 00 00   390 	.db	0x82, 0x82, 0xFC, 0xFC, 0x00, 0x00, 0x7C, 0x7C
        7C 7C
   04B5 82 82               391 	.db	0x82, 0x82
   04B7 FA 80               392 	.db	-6,0x80
   04B9 0A                  393 	.db	10
   04BA 82 82 7C 7C 00 00   394 	.db	0x82, 0x82, 0x7C, 0x7C, 0x00, 0x00, 0xF8, 0xF8
        F8 F8
   04C2 84 84               395 	.db	0x84, 0x84
   04C4 FA 82               396 	.db	-6,0x82
   04C6 1E                  397 	.db	30
   04C7 84 84 F8 F8 00 00   398 	.db	0x84, 0x84, 0xF8, 0xF8, 0x00, 0x00, 0xFE, 0xFE
        FE FE
   04CF 80 80 80 80 FC FC   399 	.db	0x80, 0x80, 0x80, 0x80, 0xFC, 0xFC, 0x80, 0x80
        80 80
   04D7 80 80 FE FE 00 00   400 	.db	0x80, 0x80, 0xFE, 0xFE, 0x00, 0x00, 0xFE, 0xFE
        FE FE
   04DF 80 80 80 80 FC FC   401 	.db	0x80, 0x80, 0x80, 0x80, 0xFC, 0xFC
   04E5 FA 80               402 	.db	-6,0x80
   04E7 12                  403 	.db	18
   04E8 00 00 7C 7C 82 82   404 	.db	0x00, 0x00, 0x7C, 0x7C, 0x82, 0x82, 0x80, 0x80
        80 80
   04F0 80 80 8E 8E 82 82   405 	.db	0x80, 0x80, 0x8E, 0x8E, 0x82, 0x82, 0x7E, 0x7E
        7E 7E
   04F8 00 00               406 	.db	0x00, 0x00
   04FA FA 82               407 	.db	-6,0x82
   04FC 02                  408 	.db	2
   04FD FE FE               409 	.db	0xFE, 0xFE
   04FF FA 82               410 	.db	-6,0x82
   0501 04                  411 	.db	4
   0502 00 00 7C 7C         412 	.db	0x00, 0x00, 0x7C, 0x7C
   0506 F6 10               413 	.db	-10,0x10
   0508 06                  414 	.db	6
   0509 7C 7C 00 00 1E 1E   415 	.db	0x7C, 0x7C, 0x00, 0x00, 0x1E, 0x1E
   050F F8 04               416 	.db	-8,0x04
   0511 16                  417 	.db	22
   0512 84 84 78 78 00 00   418 	.db	0x84, 0x84, 0x78, 0x78, 0x00, 0x00, 0x84, 0x84
        84 84
   051A 88 88 90 90 F0 F0   419 	.db	0x88, 0x88, 0x90, 0x90, 0xF0, 0xF0, 0x88, 0x88
        88 88
   0522 84 84 82 82 00 00   420 	.db	0x84, 0x84, 0x82, 0x82, 0x00, 0x00
   0528 F4 40               421 	.db	-12,0x40
   052A 0C                  422 	.db	12
   052B 7E 7E 00 00 82 82   423 	.db	0x7E, 0x7E, 0x00, 0x00, 0x82, 0x82, 0xC6, 0xC6
        C6 C6
   0533 AA AA 92 92         424 	.db	0xAA, 0xAA, 0x92, 0x92
   0537 FA 82               425 	.db	-6,0x82
   0539 14                  426 	.db	20
   053A 00 00 82 82 C2 C2   427 	.db	0x00, 0x00, 0x82, 0x82, 0xC2, 0xC2, 0xA2, 0xA2
        A2 A2
   0542 92 92 8A 8A 86 86   428 	.db	0x92, 0x92, 0x8A, 0x8A, 0x86, 0x86, 0x82, 0x82
        82 82
   054A 00 00 7C 7C         429 	.db	0x00, 0x00, 0x7C, 0x7C
   054E F6 82               430 	.db	-10,0x82
   0550 06                  431 	.db	6
   0551 7C 7C 00 00 FC FC   432 	.db	0x7C, 0x7C, 0x00, 0x00, 0xFC, 0xFC
   0557 FA 82               433 	.db	-6,0x82
   0559 3A                  434 	.db	58
   055A FC FC 80 80 80 80   435 	.db	0xFC, 0xFC, 0x80, 0x80, 0x80, 0x80, 0x00, 0x00
        00 00
   0562 7C 7C 82 82 82 82   436 	.db	0x7C, 0x7C, 0x82, 0x82, 0x82, 0x82, 0x92, 0x92
        92 92
   056A 8A 8A 84 84 7A 7A   437 	.db	0x8A, 0x8A, 0x84, 0x84, 0x7A, 0x7A, 0x00, 0x00
        00 00
   0572 FC FC 82 82 82 82   438 	.db	0xFC, 0xFC, 0x82, 0x82, 0x82, 0x82, 0x84, 0x84
        84 84
   057A F8 F8 84 84 82 82   439 	.db	0xF8, 0xF8, 0x84, 0x84, 0x82, 0x82, 0x00, 0x00
        00 00
   0582 7C 7C 80 80 80 80   440 	.db	0x7C, 0x7C, 0x80, 0x80, 0x80, 0x80, 0x7C, 0x7C
        7C 7C
   058A 02 02 02 02 FC FC   441 	.db	0x02, 0x02, 0x02, 0x02, 0xFC, 0xFC, 0x00, 0x00
        00 00
   0592 FE FE               442 	.db	0xFE, 0xFE
   0594 F4 10               443 	.db	-12,0x10
   0596 02                  444 	.db	2
   0597 00 00               445 	.db	0x00, 0x00
   0599 F4 82               446 	.db	-12,0x82
   059B 04                  447 	.db	4
   059C 7C 7C 00 00         448 	.db	0x7C, 0x7C, 0x00, 0x00
   05A0 F8 82               449 	.db	-8,0x82
   05A2 08                  450 	.db	8
   05A3 44 44 28 28 10 10   451 	.db	0x44, 0x44, 0x28, 0x28, 0x10, 0x10, 0x00, 0x00
        00 00
   05AB FA 82               452 	.db	-6,0x82
   05AD 20                  453 	.db	32
   05AE 92 92 AA AA C6 C6   454 	.db	0x92, 0x92, 0xAA, 0xAA, 0xC6, 0xC6, 0x82, 0x82
        82 82
   05B6 00 00 82 82 44 44   455 	.db	0x00, 0x00, 0x82, 0x82, 0x44, 0x44, 0x28, 0x28
        28 28
   05BE 10 10 28 28 44 44   456 	.db	0x10, 0x10, 0x28, 0x28, 0x44, 0x44, 0x82, 0x82
        82 82
   05C6 00 00 82 82 44 44   457 	.db	0x00, 0x00, 0x82, 0x82, 0x44, 0x44, 0x28, 0x28
        28 28
   05CE F8 10               458 	.db	-8,0x10
   05D0 14                  459 	.db	20
   05D1 00 00 FE FE 04 04   460 	.db	0x00, 0x00, 0xFE, 0xFE, 0x04, 0x04, 0x08, 0x08
        08 08
   05D9 10 10 20 20 40 40   461 	.db	0x10, 0x10, 0x20, 0x20, 0x40, 0x40, 0xFE, 0xFE
        FE FE
   05E1 00 00 1C 1C         462 	.db	0x00, 0x00, 0x1C, 0x1C
   05E5 F6 10               463 	.db	-10,0x10
   05E7 16                  464 	.db	22
   05E8 1C 1C 00 00 80 80   465 	.db	0x1C, 0x1C, 0x00, 0x00, 0x80, 0x80, 0x40, 0x40
        40 40
   05F0 20 20 10 10 08 08   466 	.db	0x20, 0x20, 0x10, 0x10, 0x08, 0x08, 0x04, 0x04
        04 04
   05F8 02 02 00 00 70 70   467 	.db	0x02, 0x02, 0x00, 0x00, 0x70, 0x70
   05FE F6 10               468 	.db	-10,0x10
   0600 0C                  469 	.db	12
   0601 70 70 00 00 10 10   470 	.db	0x70, 0x70, 0x00, 0x00, 0x10, 0x10, 0x28, 0x28
        28 28
   0609 44 44 82 82         471 	.db	0x44, 0x44, 0x82, 0x82
   060D EC 00               472 	.db	-20,0x00
   060F 04                  473 	.db	4
   0610 FE FE 00 00         474 	.db	0xFE, 0xFE, 0x00, 0x00
   0614 00                  475 	.db	0
                            476 ;	main.c 26
                            477 ;	main.c 343
                            478 ;	genArrayInit
                            479 ; _saveRegsForCall: sendSetSize: 0 deInUse: 0 bcInUse: 0 deSending: 0
   0615 21 48 08            480 	ld	hl,#_heart
   0618 CD 00 00            481 	call	__initrleblock
   061B 0E                  482 	.db	14
   061C 00 E7 04 F9 02 FD   483 	.db	0x00, 0xE7, 0x04, 0xF9, 0x02, 0xFD, 0x00, 0xFF
        00 FF
   0624 00 7E 00 3C 00 18   484 	.db	0x00, 0x7E, 0x00, 0x3C, 0x00, 0x18
   062A EE 00               485 	.db	-18,0x00
   062C 00                  486 	.db	0
                            487 ;	main.c 11
                            488 ;	genAssign
                            489 ;	AOP_HL for _sound_on
   062D 21 68 08            490 	ld	hl,#_sound_on
   0630 36 01               491 	ld	(hl),#0x01
                            492 ;	main.c 26
                            493 ;	genAssign
                            494 ;	AOP_HL for _enemy_count
   0632 21 69 08            495 	ld	hl,#_enemy_count
   0635 36 01               496 	ld	(hl),#0x01
   0637 23                  497 	inc	hl
   0638 36 00               498 	ld	(hl),#0x00
                            499 ;	main.c 30
                            500 ;	genAssign
                            501 ;	AOP_HL for _incr
   063A 21 7B 08            502 	ld	hl,#_incr
   063D 36 01               503 	ld	(hl),#0x01
   063F 23                  504 	inc	hl
   0640 36 00               505 	ld	(hl),#0x00
                            506 ;	main.c 32
                            507 ;	genAssign
                            508 ;	AOP_HL for _i
   0642 21 7D 08            509 	ld	hl,#_i
   0645 36 00               510 	ld	(hl),#0x00
   0647 23                  511 	inc	hl
   0648 36 00               512 	ld	(hl),#0x00
                            513 ;	main.c 33
                            514 ;	genAssign
                            515 ;	AOP_HL for _j
   064A 21 7F 08            516 	ld	hl,#_j
   064D 36 00               517 	ld	(hl),#0x00
   064F 23                  518 	inc	hl
   0650 36 00               519 	ld	(hl),#0x00
                            520 ;	main.c 32
                            521 ;	genAssign
                            522 ;	AOP_HL for _x
   0652 21 83 08            523 	ld	hl,#_x
   0655 36 59               524 	ld	(hl),#0x59
   0657 23                  525 	inc	hl
   0658 36 00               526 	ld	(hl),#0x00
                            527 ;	main.c 39
                            528 ;	genAssign
                            529 ;	AOP_HL for _lives
   065A 21 85 08            530 	ld	hl,#_lives
   065D 36 50               531 	ld	(hl),#0x50
                            532 ;--------------------------------------------------------
                            533 ; Home
                            534 ;--------------------------------------------------------
                            535 	.area _HOME
                            536 	.area _CODE
                            537 ;--------------------------------------------------------
                            538 ; code
                            539 ;--------------------------------------------------------
                            540 	.area _CODE
                            541 ;	music.h 13
                            542 ;	genLabel
                            543 ;	genFunction
                            544 ;	---------------------------------
                            545 ; Function collide_sound
                            546 ; ---------------------------------
   0000                     547 ___collide_sound_start:
   0000                     548 _collide_sound:
                            549 	
                            550 ;	music.h 18
                            551 ;	genIfx
                            552 ;	AOP_HL for _sound_on
   0000 AF                  553 	xor	a,a
   0001 21 68 08            554 	ld	hl,#_sound_on
   0004 B6                  555 	or	a,(hl)
   0005 CA 38 00            556 	jp	z,00103$
                            557 ;	music.h 20
                            558 ;	genAssign
   0008 01 26 FF            559 	ld	bc,#0xFF26
                            560 ;	genAssign (pointer)
   000B 3E 80               561 	ld	a,#0x80
   000D 02                  562 	ld	(bc),a
                            563 ;	music.h 21
                            564 ;	genAssign
   000E 01 25 FF            565 	ld	bc,#0xFF25
                            566 ;	genAssign (pointer)
   0011 3E 11               567 	ld	a,#0x11
   0013 02                  568 	ld	(bc),a
                            569 ;	music.h 22
                            570 ;	genAssign
   0014 01 24 FF            571 	ld	bc,#0xFF24
                            572 ;	genAssign (pointer)
   0017 3E 77               573 	ld	a,#0x77
   0019 02                  574 	ld	(bc),a
                            575 ;	music.h 24
                            576 ;	genAssign
   001A 01 10 FF            577 	ld	bc,#0xFF10
                            578 ;	genAssign (pointer)
   001D 3E F7               579 	ld	a,#0xF7
   001F 02                  580 	ld	(bc),a
                            581 ;	music.h 25
                            582 ;	genAssign
   0020 01 11 FF            583 	ld	bc,#0xFF11
                            584 ;	genAssign (pointer)
   0023 3E 80               585 	ld	a,#0x80
   0025 02                  586 	ld	(bc),a
                            587 ;	music.h 26
                            588 ;	genAssign
   0026 01 12 FF            589 	ld	bc,#0xFF12
                            590 ;	genAssign (pointer)
   0029 3E F0               591 	ld	a,#0xF0
   002B 02                  592 	ld	(bc),a
                            593 ;	music.h 27
                            594 ;	genAssign
   002C 01 13 FF            595 	ld	bc,#0xFF13
                            596 ;	genAssign (pointer)
   002F 3E B8               597 	ld	a,#0xB8
   0031 02                  598 	ld	(bc),a
                            599 ;	music.h 28
                            600 ;	genAssign
   0032 01 14 FF            601 	ld	bc,#0xFF14
                            602 ;	genAssign (pointer)
   0035 3E C1               603 	ld	a,#0xC1
   0037 02                  604 	ld	(bc),a
                            605 ;	genLabel
   0038                     606 00103$:
                            607 ;	genEndFunction
                            608 	
   0038 C9                  609 	ret
   0039                     610 ___collide_sound_end:
                            611 ;	my_functs.h 42
                            612 ;	genLabel
                            613 ;	genFunction
                            614 ;	---------------------------------
                            615 ; Function collision_check
                            616 ; ---------------------------------
   0039                     617 ___collision_check_start:
   0039                     618 _collision_check:
   0039 E8 FE               619 	lda	sp,-2(sp)
                            620 ;	my_functs.h 45
                            621 ;	genAssign
                            622 ;	AOP_STK for 
   003B F8 04               623 	lda	hl,4(sp)
   003D 4E                  624 	ld	c,(hl)
   003E 23                  625 	inc	hl
   003F 46                  626 	ld	b,(hl)
                            627 ;	genPointerGet
   0040 0A                  628 	ld	a,(bc)
   0041 4F                  629 	ld	c,a
                            630 ;	genAssign
                            631 ;	AOP_STK for 
                            632 ;	AOP_STK for _collision_check_sloc0_1_0
   0042 F8 0A               633 	lda	hl,10(sp)
   0044 2A                  634 	ld	a,(hl+)
   0045 5E                  635 	ld	e,(hl)
   0046 F8 00               636 	lda	hl,0(sp)
   0048 22                  637 	ld	(hl+),a
   0049 73                  638 	ld	(hl),e
                            639 ;	genPointerGet
                            640 ;	AOP_STK for _collision_check_sloc0_1_0
   004A 2B                  641 	dec	hl
   004B 5E                  642 	ld	e,(hl)
   004C 23                  643 	inc	hl
   004D 56                  644 	ld	d,(hl)
   004E 1A                  645 	ld	a,(de)
                            646 ;	genPlus
                            647 ;	AOP_STK for 
                            648 ;	AOP_STK for _collision_check_sloc0_1_0
                            649 ;	Can't optimise plus by inc, falling back to the normal way
   004F 47                  650 	ld	b,a
   0050 F8 0E               651 	lda	hl,14(sp)
   0052 86                  652 	add	a,(hl)
   0053 F8 00               653 	lda	hl,0(sp)
   0055 77                  654 	ld	(hl),a
                            655 ;	genCmpLt
                            656 ;	AOP_STK for _collision_check_sloc0_1_0
   0056 79                  657 	ld	a,c
   0057 96                  658 	sub	a,(hl)
   0058 D2 98 00            659 	jp	nc,00102$
                            660 ;	genPlus
                            661 ;	AOP_STK for 
                            662 ;	Can't optimise plus by inc, falling back to the normal way
   005B 79                  663 	ld	a,c
   005C F8 08               664 	lda	hl,8(sp)
   005E 86                  665 	add	a,(hl)
   005F 4F                  666 	ld	c,a
                            667 ;	genCmpGt
   0060 78                  668 	ld	a,b
   0061 91                  669 	sub	a,c
   0062 D2 98 00            670 	jp	nc,00102$
                            671 ;	my_functs.h 46
                            672 ;	genAssign
                            673 ;	AOP_STK for 
   0065 2B                  674 	dec	hl
   0066 2B                  675 	dec	hl
   0067 4E                  676 	ld	c,(hl)
   0068 23                  677 	inc	hl
   0069 46                  678 	ld	b,(hl)
                            679 ;	genPointerGet
   006A 0A                  680 	ld	a,(bc)
   006B 4F                  681 	ld	c,a
                            682 ;	genAssign
                            683 ;	AOP_STK for 
                            684 ;	AOP_STK for _collision_check_sloc0_1_0
   006C F8 0C               685 	lda	hl,12(sp)
   006E 2A                  686 	ld	a,(hl+)
   006F 5E                  687 	ld	e,(hl)
   0070 F8 00               688 	lda	hl,0(sp)
   0072 22                  689 	ld	(hl+),a
   0073 73                  690 	ld	(hl),e
                            691 ;	genPointerGet
                            692 ;	AOP_STK for _collision_check_sloc0_1_0
   0074 2B                  693 	dec	hl
   0075 5E                  694 	ld	e,(hl)
   0076 23                  695 	inc	hl
   0077 56                  696 	ld	d,(hl)
   0078 1A                  697 	ld	a,(de)
   0079 47                  698 	ld	b,a
                            699 ;	genPlus
                            700 ;	AOP_STK for 
                            701 ;	AOP_STK for _collision_check_sloc0_1_0
                            702 ;	Can't optimise plus by inc, falling back to the normal way
   007A F8 0F               703 	lda	hl,15(sp)
   007C 7E                  704 	ld	a,(hl)
   007D 80                  705 	add	a,b
   007E F8 00               706 	lda	hl,0(sp)
   0080 77                  707 	ld	(hl),a
                            708 ;	genCmpLt
                            709 ;	AOP_STK for _collision_check_sloc0_1_0
   0081 79                  710 	ld	a,c
   0082 96                  711 	sub	a,(hl)
   0083 D2 98 00            712 	jp	nc,00102$
                            713 ;	genPlus
                            714 ;	AOP_STK for 
                            715 ;	Can't optimise plus by inc, falling back to the normal way
   0086 79                  716 	ld	a,c
   0087 F8 09               717 	lda	hl,9(sp)
   0089 86                  718 	add	a,(hl)
   008A 4F                  719 	ld	c,a
                            720 ;	genCmpGt
   008B 78                  721 	ld	a,b
   008C 91                  722 	sub	a,c
   008D D2 98 00            723 	jp	nc,00102$
                            724 ;	my_functs.h 48
                            725 ;	genCall
                            726 ; _saveRegsForCall: sendSetSize: 0 deInUse: 0 bcInUse: 0 deSending: 0
   0090 CD 00 00            727 	call	_collide_sound
                            728 ;	my_functs.h 49
                            729 ;	genRet
   0093 1E 01               730 	ld	e,#0x01
   0095 C3 9A 00            731 	jp	00107$
                            732 ;	genLabel
   0098                     733 00102$:
                            734 ;	my_functs.h 53
                            735 ;	genRet
   0098 1E 00               736 	ld	e,#0x00
                            737 ;	genLabel
   009A                     738 00107$:
                            739 ;	genEndFunction
   009A E8 02               740 	lda	sp,2(sp)
   009C C9                  741 	ret
   009D                     742 ___collision_check_end:
                            743 ;	my_functs.h 57
                            744 ;	genLabel
                            745 ;	genFunction
                            746 ;	---------------------------------
                            747 ; Function PRINT_MESSAGE
                            748 ; ---------------------------------
   009D                     749 ___PRINT_MESSAGE_start:
   009D                     750 _PRINT_MESSAGE:
                            751 	
                            752 ;	my_functs.h 59
                            753 ;	genCast
                            754 ;	AOP_STK for 
   009D F8 04               755 	lda	hl,4(sp)
   009F 4E                  756 	ld	c,(hl)
                            757 ;	genCast
                            758 ;	AOP_STK for 
   00A0 2B                  759 	dec	hl
   00A1 2B                  760 	dec	hl
   00A2 46                  761 	ld	b,(hl)
                            762 ;	genIpush
                            763 ; _saveRegsForCall: sendSetSize: 0 deInUse: 0 bcInUse: 0 deSending: 0
   00A3 79                  764 	ld	a,c
   00A4 F5                  765 	push	af
   00A5 33                  766 	inc	sp
                            767 ;	genIpush
   00A6 78                  768 	ld	a,b
   00A7 F5                  769 	push	af
   00A8 33                  770 	inc	sp
                            771 ;	genCall
   00A9 CD 00 00            772 	call	_gotogxy
   00AC E8 02               773 	lda	sp,2(sp)
                            774 ;	my_functs.h 60
                            775 ;	genIpush
                            776 ; _saveRegsForCall: sendSetSize: 0 deInUse: 0 bcInUse: 0 deSending: 0
                            777 ;	AOP_STK for 
   00AE F8 06               778 	lda	hl,6(sp)
   00B0 2A                  779 	ld	a,(hl+)
   00B1 66                  780 	ld	h,(hl)
   00B2 6F                  781 	ld	l,a
   00B3 E5                  782 	push	hl
                            783 ;	genCall
   00B4 CD 00 00            784 	call	_gprintf
   00B7 E8 02               785 	lda	sp,2(sp)
                            786 ;	genLabel
   00B9                     787 00101$:
                            788 ;	genEndFunction
                            789 	
   00B9 C9                  790 	ret
   00BA                     791 ___PRINT_MESSAGE_end:
                            792 ;	my_functs.h 63
                            793 ;	genLabel
                            794 ;	genFunction
                            795 ;	---------------------------------
                            796 ; Function score
                            797 ; ---------------------------------
   00BA                     798 ___score_start:
   00BA                     799 _score:
   00BA E8 FE               800 	lda	sp,-2(sp)
                            801 ;	my_functs.h 65
                            802 ;	genIpush
                            803 ; _saveRegsForCall: sendSetSize: 0 deInUse: 0 bcInUse: 0 deSending: 0
   00BC 21 08 08            804 	ld	hl,#0x0808
   00BF E5                  805 	push	hl
                            806 ;	genIpush
                            807 ;	AOP_STK for 
   00C0 F8 0C               808 	lda	hl,12(sp)
   00C2 2A                  809 	ld	a,(hl+)
   00C3 66                  810 	ld	h,(hl)
   00C4 6F                  811 	ld	l,a
   00C5 E5                  812 	push	hl
                            813 ;	genIpush
                            814 ;	AOP_STK for 
   00C6 F8 0C               815 	lda	hl,12(sp)
   00C8 2A                  816 	ld	a,(hl+)
   00C9 66                  817 	ld	h,(hl)
   00CA 6F                  818 	ld	l,a
   00CB E5                  819 	push	hl
                            820 ;	genIpush
   00CC 21 08 08            821 	ld	hl,#0x0808
   00CF E5                  822 	push	hl
                            823 ;	genIpush
                            824 ;	AOP_STK for 
   00D0 F8 0E               825 	lda	hl,14(sp)
   00D2 2A                  826 	ld	a,(hl+)
   00D3 66                  827 	ld	h,(hl)
   00D4 6F                  828 	ld	l,a
   00D5 E5                  829 	push	hl
                            830 ;	genIpush
                            831 ;	AOP_STK for 
   00D6 F8 0E               832 	lda	hl,14(sp)
   00D8 2A                  833 	ld	a,(hl+)
   00D9 66                  834 	ld	h,(hl)
   00DA 6F                  835 	ld	l,a
   00DB E5                  836 	push	hl
                            837 ;	genCall
   00DC CD 39 00            838 	call	_collision_check
   00DF 4B                  839 	ld	c,e
   00E0 E8 0C               840 	lda	sp,12(sp)
                            841 ;	genCmpEq
                            842 ; genCmpEq: left 1, right 1, result 0
   00E2 79                  843 	ld	a,c
   00E3 FE 01               844 	cp	a,#0x01
   00E5 C2 FB 00            845 	jp	nz,00102$
   00E8 18 03               846 	jr	00107$
   00EA                     847 00106$:
   00EA C3 FB 00            848 	jp	00102$
   00ED                     849 00107$:
                            850 ;	my_functs.h 66
                            851 ;	genAssign
                            852 ;	AOP_STK for 
   00ED F8 0C               853 	lda	hl,12(sp)
   00EF 4E                  854 	ld	c,(hl)
   00F0 23                  855 	inc	hl
   00F1 46                  856 	ld	b,(hl)
                            857 ;	genPointerGet
                            858 ;	AOP_STK for _score_sloc0_1_0
   00F2 0A                  859 	ld	a,(bc)
   00F3 F8 01               860 	lda	hl,1(sp)
                            861 ;	genMinus
                            862 ;	AOP_STK for _score_sloc0_1_0
                            863 ;	AOP_STK for _score_sloc1_1_0
   00F5 77                  864 	ld      (hl),a
                            865 ; Removed redundent load
   00F6 C6 FF               866 	add	a,#0xFF
   00F8 2B                  867 	dec	hl
                            868 ;	genAssign (pointer)
                            869 ;	AOP_STK for _score_sloc1_1_0
   00F9 77                  870 	ld      (hl),a
                            871 ; Removed redundent load
   00FA 02                  872 	ld	(bc),a
                            873 ;	genLabel
   00FB                     874 00102$:
                            875 ;	my_functs.h 68
                            876 ;	genAssign
                            877 ;	AOP_STK for 
   00FB F8 0C               878 	lda	hl,12(sp)
   00FD 4E                  879 	ld	c,(hl)
   00FE 23                  880 	inc	hl
   00FF 46                  881 	ld	b,(hl)
                            882 ;	genPointerGet
   0100 0A                  883 	ld	a,(bc)
   0101 4F                  884 	ld	c,a
                            885 ;	genRet
   0102 59                  886 	ld	e,c
                            887 ;	genLabel
   0103                     888 00103$:
                            889 ;	genEndFunction
   0103 E8 02               890 	lda	sp,2(sp)
   0105 C9                  891 	ret
   0106                     892 ___score_end:
                            893 ;	my_functs.h 73
                            894 ;	genLabel
                            895 ;	genFunction
                            896 ;	---------------------------------
                            897 ; Function enemy_move
                            898 ; ---------------------------------
   0106                     899 ___enemy_move_start:
   0106                     900 _enemy_move:
   0106 E8 FE               901 	lda	sp,-2(sp)
                            902 ;	my_functs.h 76
                            903 ;	genIpush
                            904 ; _saveRegsForCall: sendSetSize: 0 deInUse: 0 bcInUse: 0 deSending: 0
                            905 ;	AOP_STK for 
   0108 F8 10               906 	lda	hl,16(sp)
   010A 2A                  907 	ld	a,(hl+)
   010B 66                  908 	ld	h,(hl)
   010C 6F                  909 	ld	l,a
   010D E5                  910 	push	hl
                            911 ;	genIpush
                            912 ;	AOP_STK for 
   010E F8 10               913 	lda	hl,16(sp)
   0110 2A                  914 	ld	a,(hl+)
   0111 66                  915 	ld	h,(hl)
   0112 6F                  916 	ld	l,a
   0113 E5                  917 	push	hl
                            918 ;	genIpush
                            919 ;	AOP_STK for 
   0114 F8 10               920 	lda	hl,16(sp)
   0116 2A                  921 	ld	a,(hl+)
   0117 66                  922 	ld	h,(hl)
   0118 6F                  923 	ld	l,a
   0119 E5                  924 	push	hl
                            925 ;	genIpush
                            926 ;	AOP_STK for 
   011A F8 10               927 	lda	hl,16(sp)
   011C 2A                  928 	ld	a,(hl+)
   011D 66                  929 	ld	h,(hl)
   011E 6F                  930 	ld	l,a
   011F E5                  931 	push	hl
                            932 ;	genIpush
                            933 ;	AOP_STK for 
   0120 F8 10               934 	lda	hl,16(sp)
   0122 2A                  935 	ld	a,(hl+)
   0123 66                  936 	ld	h,(hl)
   0124 6F                  937 	ld	l,a
   0125 E5                  938 	push	hl
                            939 ;	genIpush
                            940 ;	AOP_STK for 
   0126 F8 10               941 	lda	hl,16(sp)
   0128 2A                  942 	ld	a,(hl+)
   0129 66                  943 	ld	h,(hl)
   012A 6F                  944 	ld	l,a
   012B E5                  945 	push	hl
                            946 ;	genCall
   012C CD A1 02            947 	call	_bounce
   012F E8 0C               948 	lda	sp,12(sp)
                            949 ;	my_functs.h 77
                            950 ;	genAssign
                            951 ;	AOP_STK for 
   0131 F8 08               952 	lda	hl,8(sp)
   0133 4E                  953 	ld	c,(hl)
   0134 23                  954 	inc	hl
   0135 46                  955 	ld	b,(hl)
                            956 ;	genPointerGet
   0136 0A                  957 	ld	a,(bc)
   0137 4F                  958 	ld	c,a
                            959 ;	genAssign
                            960 ;	AOP_STK for 
                            961 ;	AOP_STK for _enemy_move_sloc0_1_0
   0138 F8 06               962 	lda	hl,6(sp)
   013A 2A                  963 	ld	a,(hl+)
   013B 5E                  964 	ld	e,(hl)
   013C F8 00               965 	lda	hl,0(sp)
   013E 22                  966 	ld	(hl+),a
   013F 73                  967 	ld	(hl),e
                            968 ;	genPointerGet
                            969 ;	AOP_STK for _enemy_move_sloc0_1_0
   0140 2B                  970 	dec	hl
   0141 5E                  971 	ld	e,(hl)
   0142 23                  972 	inc	hl
   0143 56                  973 	ld	d,(hl)
   0144 1A                  974 	ld	a,(de)
   0145 47                  975 	ld	b,a
                            976 ;	genCast
                            977 ;	AOP_STK for 
                            978 ;	AOP_STK for _enemy_move_sloc0_1_0
   0146 F8 04               979 	lda	hl,4(sp)
   0148 7E                  980 	ld	a,(hl)
   0149 F8 00               981 	lda	hl,0(sp)
   014B 77                  982 	ld	(hl),a
                            983 ;	genIpush
                            984 ; _saveRegsForCall: sendSetSize: 0 deInUse: 0 bcInUse: 0 deSending: 0
   014C 79                  985 	ld	a,c
   014D F5                  986 	push	af
   014E 33                  987 	inc	sp
                            988 ;	genIpush
   014F 78                  989 	ld	a,b
   0150 F5                  990 	push	af
   0151 33                  991 	inc	sp
                            992 ;	genIpush
                            993 ;	AOP_STK for _enemy_move_sloc0_1_0
   0152 7E                  994 	ld	a,(hl)
   0153 F5                  995 	push	af
   0154 33                  996 	inc	sp
                            997 ;	genCall
   0155 CD 00 00            998 	call	_move_sprite
   0158 E8 03               999 	lda	sp,3(sp)
                           1000 ;	genLabel
   015A                    1001 00101$:
                           1002 ;	genEndFunction
   015A E8 02              1003 	lda	sp,2(sp)
   015C C9                 1004 	ret
   015D                    1005 ___enemy_move_end:
                           1006 ;	my_functs.h 82
                           1007 ;	genLabel
                           1008 ;	genFunction
                           1009 ;	---------------------------------
                           1010 ; Function init_enem
                           1011 ; ---------------------------------
   015D                    1012 ___init_enem_start:
   015D                    1013 _init_enem:
   015D E8 FD              1014 	lda	sp,-3(sp)
                           1015 ;	my_functs.h 85
                           1016 ;	genIpush
                           1017 ; _saveRegsForCall: sendSetSize: 0 deInUse: 0 bcInUse: 0 deSending: 0
   015F 21 81 08           1018 	ld	hl,#_t
   0162 E5                 1019 	push	hl
                           1020 ;	genCall
   0163 CD 00 00           1021 	call	_time
   0166 42                 1022 	ld	b,d
   0167 4B                 1023 	ld	c,e
   0168 E8 02              1024 	lda	sp,2(sp)
                           1025 ;	genIpush
                           1026 ; _saveRegsForCall: sendSetSize: 0 deInUse: 0 bcInUse: 0 deSending: 0
   016A C5                 1027 	push	bc
                           1028 ;	genCall
   016B CD 00 00           1029 	call	_initrand
   016E E8 02              1030 	lda	sp,2(sp)
                           1031 ;	my_functs.h 89
                           1032 ;	genLeftShift
                           1033 ;	AOP_HL for _enemy_count
   0170 21 69 08           1034 	ld	hl,#_enemy_count
   0173 4E                 1035 	ld	c,(hl)
   0174 23                 1036 	inc	hl
   0175 46                 1037 	ld	b,(hl)
   0176 3E 03              1038 	ld	a,#0x02+1
   0178 18 04              1039 	jr	00104$
   017A                    1040 00103$:
   017A CB 21              1041 	sla	c
   017C CB 10              1042 	rl	b
   017E                    1043 00104$:
   017E 3D                 1044 	dec	a
   017F 20 F9              1045 	jr	nz,00103$
                           1046 ;	genPlus
                           1047 ;	Can't optimise plus by inc, falling back to the normal way
   0181 21 6B 08           1048 	ld	hl,#_enemies
   0184 09                 1049 	add	hl,bc
   0185 4D                 1050 	ld	c,l
   0186 44                 1051 	ld	b,h
                           1052 ;	genCall
                           1053 ; _saveRegsForCall: sendSetSize: 0 deInUse: 0 bcInUse: 1 deSending: 0
   0187 C5                 1054 	push	bc
   0188 CD 00 00           1055 	call	_rand
                           1056 ;	AOP_STK for _init_enem_sloc0_1_0
   018B F8 04              1057 	lda	hl,4(sp)
   018D 73                 1058 	ld	(hl),e
   018E C1                 1059 	pop	bc
                           1060 ;	genIpush
                           1061 ; _saveRegsForCall: sendSetSize: 0 deInUse: 0 bcInUse: 1 deSending: 0
   018F C5                 1062 	push	bc
   0190 3E 3C              1063 	ld	a,#0x3C
   0192 F5                 1064 	push	af
   0193 33                 1065 	inc	sp
                           1066 ;	genIpush
                           1067 ;	AOP_STK for _init_enem_sloc0_1_0
   0194 F8 05              1068 	lda	hl,5(sp)
   0196 7E                 1069 	ld	a,(hl)
   0197 F5                 1070 	push	af
   0198 33                 1071 	inc	sp
                           1072 ;	genCall
   0199 CD 00 00           1073 	call	__modschar_rrx_s
                           1074 ;	AOP_STK for _init_enem_sloc0_1_0
   019C F8 06              1075 	lda	hl,6(sp)
   019E 73                 1076 	ld	(hl),e
   019F E8 02              1077 	lda	sp,2(sp)
   01A1 C1                 1078 	pop	bc
                           1079 ;	genCast
                           1080 ;	AOP_STK for _init_enem_sloc0_1_0
                           1081 ;	AOP_STK for _init_enem_sloc1_1_0
   01A2 F8 02              1082 	lda	hl,2(sp)
   01A4 7E                 1083 	ld	a,(hl)
   01A5 2B                 1084 	dec	hl
   01A6 2B                 1085 	dec	hl
   01A7 22                 1086 	ld	(hl+),a
   01A8 23                 1087 	inc	hl
   01A9 7E                 1088 	ld	a,(hl)
   01AA 17                 1089 	rla	
   01AB 9F                 1090 	sbc	a,a
   01AC 2B                 1091 	dec	hl
   01AD 77                 1092 	ld	(hl),a
                           1093 ;	genAssign (pointer)
                           1094 ;	AOP_STK for _init_enem_sloc1_1_0
   01AE 59                 1095 	ld	e,c
   01AF 50                 1096 	ld	d,b
   01B0 2B                 1097 	dec	hl
   01B1 7E                 1098 	ld	a,(hl)
   01B2 12                 1099 	ld	(de),a
   01B3 13                 1100 	inc	de
   01B4 23                 1101 	inc	hl
   01B5 7E                 1102 	ld	a,(hl)
   01B6 12                 1103 	ld	(de),a
                           1104 ;	my_functs.h 90
                           1105 ;	genPlus
                           1106 ;	genPlusIncr
   01B7 69                 1107 	ld	l,c
   01B8 60                 1108 	ld	h,b
   01B9 23                 1109 	inc	hl
   01BA 23                 1110 	inc	hl
                           1111 ;	genAssign (pointer)
   01BB 5D                 1112 	ld	e,l
   01BC 54                 1113 	ld	d,h
   01BD 3E 28              1114 	ld	a,#0x28
   01BF 12                 1115 	ld	(de),a
   01C0 13                 1116 	inc	de
   01C1 3E 00              1117 	ld	a,#0x00
   01C3 12                 1118 	ld	(de),a
                           1119 ;	genLabel
   01C4                    1120 00101$:
                           1121 ;	genEndFunction
   01C4 E8 03              1122 	lda	sp,3(sp)
   01C6 C9                 1123 	ret
   01C7                    1124 ___init_enem_end:
                           1125 ;	my_functs.h 96
                           1126 ;	genLabel
                           1127 ;	genFunction
                           1128 ;	---------------------------------
                           1129 ; Function level_change
                           1130 ; ---------------------------------
   01C7                    1131 ___level_change_start:
   01C7                    1132 _level_change:
                           1133 	
                           1134 ;	my_functs.h 98
                           1135 ;	genCall
                           1136 ; _saveRegsForCall: sendSetSize: 0 deInUse: 0 bcInUse: 0 deSending: 0
   01C7 CD 00 00           1137 	call	_clock
   01CA 42                 1138 	ld	b,d
   01CB 4B                 1139 	ld	c,e
                           1140 ;	genIpush
                           1141 ; _saveRegsForCall: sendSetSize: 0 deInUse: 0 bcInUse: 0 deSending: 0
   01CC 21 2C 01           1142 	ld	hl,#0x012C
   01CF E5                 1143 	push	hl
                           1144 ;	genIpush
   01D0 C5                 1145 	push	bc
                           1146 ;	genCall
   01D1 CD 00 00           1147 	call	__moduint_rrx_s
   01D4 42                 1148 	ld	b,d
   01D5 4B                 1149 	ld	c,e
   01D6 E8 04              1150 	lda	sp,4(sp)
                           1151 ;	genCmpEq
                           1152 ; genCmpEq: left 2, right 2, result 0
   01D8 79                 1153 	ld	a,c
   01D9 FE 05              1154 	cp	a,#0x05
   01DB C2 E5 01           1155 	jp	nz,00112$
   01DE 78                 1156 	ld	a,b
   01DF B7                 1157 	or	a,a
   01E0 C2 19 02           1158 	jp	nz,00107$
   01E3 18 03              1159 	jr	00113$
   01E5                    1160 00112$:
   01E5 C3 19 02           1161 	jp	00107$
   01E8                    1162 00113$:
                           1163 ;	my_functs.h 100
                           1164 ;	genCmpGt
                           1165 ;	AOP_HL for _enemy_count
   01E8 1E 80              1166 	ld	e,#0x80
   01EA 21 6A 08           1167 	ld	hl,#_enemy_count + 1
   01ED 7E                 1168 	ld	a,(hl)
   01EE EE 80              1169 	xor	a,#0x80
   01F0 57                 1170 	ld	d,a
   01F1 3E 04              1171 	ld	a,#0x04
   01F3 2B                 1172 	dec	hl
   01F4 96                 1173 	sub	a,(hl)
   01F5 7B                 1174 	ld	a,e
   01F6 9A                 1175 	sbc	a,d
   01F7 DA 02 02           1176 	jp	c,00102$
                           1177 ;	my_functs.h 102
                           1178 ;	genPlus
                           1179 ;	AOP_HL for _enemy_count
                           1180 ;	genPlusIncr
   01FA 34                 1181 	inc	(hl)
   01FB 20 02              1182 	jr	nz,00114$
   01FD 23                 1183 	inc	hl
   01FE 34                 1184 	inc	(hl)
   01FF                    1185 00114$:
                           1186 ;	my_functs.h 103
                           1187 ;	genCall
                           1188 ; _saveRegsForCall: sendSetSize: 0 deInUse: 0 bcInUse: 0 deSending: 0
   01FF CD 5D 01           1189 	call	_init_enem
                           1190 ;	genLabel
   0202                    1191 00102$:
                           1192 ;	my_functs.h 107
                           1193 ;	genCmpGt
                           1194 ;	AOP_HL for _enemy_count
   0202 1E 80              1195 	ld	e,#0x80
   0204 21 6A 08           1196 	ld	hl,#_enemy_count + 1
   0207 7E                 1197 	ld	a,(hl)
   0208 EE 80              1198 	xor	a,#0x80
   020A 57                 1199 	ld	d,a
   020B 3E 04              1200 	ld	a,#0x04
   020D 2B                 1201 	dec	hl
   020E 96                 1202 	sub	a,(hl)
   020F 7B                 1203 	ld	a,e
   0210 9A                 1204 	sbc	a,d
   0211 D2 19 02           1205 	jp	nc,00107$
                           1206 ;	my_functs.h 108
                           1207 ;	genAssign
                           1208 ;	AOP_HL for _enemy_count
   0214 36 04              1209 	ld	(hl),#0x04
   0216 23                 1210 	inc	hl
   0217 36 00              1211 	ld	(hl),#0x00
                           1212 ;	genLabel
   0219                    1213 00107$:
                           1214 ;	genEndFunction
                           1215 	
   0219 C9                 1216 	ret
   021A                    1217 ___level_change_end:
                           1218 ;	my_functs.h 113
                           1219 ;	genLabel
                           1220 ;	genFunction
                           1221 ;	---------------------------------
                           1222 ; Function add_vect
                           1223 ; ---------------------------------
   021A                    1224 ___add_vect_start:
   021A                    1225 _add_vect:
   021A E8 FC              1226 	lda	sp,-4(sp)
                           1227 ;	my_functs.h 115
                           1228 ;	genAssign
                           1229 ;	AOP_STK for 
   021C F8 06              1230 	lda	hl,6(sp)
   021E 4E                 1231 	ld	c,(hl)
   021F 23                 1232 	inc	hl
   0220 46                 1233 	ld	b,(hl)
                           1234 ;	genPointerGet
                           1235 ;	AOP_STK for _add_vect_sloc0_1_0
   0221 0A                 1236 	ld	a,(bc)
   0222 F8 03              1237 	lda	hl,3(sp)
   0224 77                 1238 	ld	(hl),a
                           1239 ;	genAssign
                           1240 ;	AOP_STK for 
                           1241 ;	AOP_STK for _add_vect_sloc1_1_0
   0225 F8 0A              1242 	lda	hl,10(sp)
   0227 2A                 1243 	ld	a,(hl+)
   0228 5E                 1244 	ld	e,(hl)
   0229 F8 01              1245 	lda	hl,1(sp)
   022B 22                 1246 	ld	(hl+),a
   022C 73                 1247 	ld	(hl),e
                           1248 ;	genPointerGet
                           1249 ;	AOP_STK for _add_vect_sloc1_1_0
                           1250 ;	AOP_STK for _add_vect_sloc2_1_0
   022D 2B                 1251 	dec	hl
   022E 5E                 1252 	ld	e,(hl)
   022F 23                 1253 	inc	hl
   0230 56                 1254 	ld	d,(hl)
   0231 1A                 1255 	ld	a,(de)
   0232 2B                 1256 	dec	hl
   0233 2B                 1257 	dec	hl
   0234 77                 1258 	ld	(hl),a
                           1259 ;	genPlus
                           1260 ;	AOP_STK for _add_vect_sloc0_1_0
                           1261 ;	AOP_STK for _add_vect_sloc2_1_0
                           1262 ;	Can't optimise plus by inc, falling back to the normal way
   0235 F8 03              1263 	lda	hl,3(sp)
   0237 7E                 1264 	ld	a,(hl)
   0238 F8 00              1265 	lda	hl,0(sp)
   023A 86                 1266 	add	a,(hl)
                           1267 ;	genAssign (pointer)
   023B 02                 1268 	ld	(bc),a
                           1269 ;	my_functs.h 116
                           1270 ;	genAssign
                           1271 ;	AOP_STK for 
   023C F8 08              1272 	lda	hl,8(sp)
   023E 4E                 1273 	ld	c,(hl)
   023F 23                 1274 	inc	hl
   0240 46                 1275 	ld	b,(hl)
                           1276 ;	genPointerGet
                           1277 ;	AOP_STK for _add_vect_sloc2_1_0
   0241 0A                 1278 	ld	a,(bc)
   0242 F8 00              1279 	lda	hl,0(sp)
   0244 77                 1280 	ld	(hl),a
                           1281 ;	genAssign
                           1282 ;	AOP_STK for 
                           1283 ;	AOP_STK for _add_vect_sloc1_1_0
   0245 F8 0C              1284 	lda	hl,12(sp)
   0247 2A                 1285 	ld	a,(hl+)
   0248 5E                 1286 	ld	e,(hl)
   0249 F8 01              1287 	lda	hl,1(sp)
   024B 22                 1288 	ld	(hl+),a
   024C 73                 1289 	ld	(hl),e
                           1290 ;	genPointerGet
                           1291 ;	AOP_STK for _add_vect_sloc1_1_0
                           1292 ;	AOP_STK for _add_vect_sloc0_1_0
   024D 2B                 1293 	dec	hl
   024E 5E                 1294 	ld	e,(hl)
   024F 23                 1295 	inc	hl
   0250 56                 1296 	ld	d,(hl)
   0251 1A                 1297 	ld	a,(de)
   0252 23                 1298 	inc	hl
   0253 77                 1299 	ld	(hl),a
                           1300 ;	genPlus
                           1301 ;	AOP_STK for _add_vect_sloc2_1_0
                           1302 ;	AOP_STK for _add_vect_sloc0_1_0
                           1303 ;	Can't optimise plus by inc, falling back to the normal way
   0254 F8 00              1304 	lda	hl,0(sp)
   0256 7E                 1305 	ld	a,(hl)
   0257 F8 03              1306 	lda	hl,3(sp)
   0259 86                 1307 	add	a,(hl)
                           1308 ;	genAssign (pointer)
   025A 02                 1309 	ld	(bc),a
                           1310 ;	genLabel
   025B                    1311 00101$:
                           1312 ;	genEndFunction
   025B E8 04              1313 	lda	sp,4(sp)
   025D C9                 1314 	ret
   025E                    1315 ___add_vect_end:
                           1316 ;	my_functs.h 121
                           1317 ;	genLabel
                           1318 ;	genFunction
                           1319 ;	---------------------------------
                           1320 ; Function wall_check
                           1321 ; ---------------------------------
   025E                    1322 ___wall_check_start:
   025E                    1323 _wall_check:
   025E E8 FF              1324 	lda	sp,-1(sp)
                           1325 ;	my_functs.h 124
                           1326 ;	genAssign
                           1327 ;	AOP_STK for 
   0260 F8 03              1328 	lda	hl,3(sp)
   0262 4E                 1329 	ld	c,(hl)
   0263 23                 1330 	inc	hl
   0264 46                 1331 	ld	b,(hl)
                           1332 ;	genPointerGet
                           1333 ;	AOP_STK for _wall_check_sloc0_1_0
   0265 0A                 1334 	ld	a,(bc)
   0266 F8 00              1335 	lda	hl,0(sp)
                           1336 ;	genCmpLt
                           1337 ;	AOP_STK for _wall_check_sloc0_1_0
   0268 77                 1338 	ld      (hl),a
   0269 7F                 1339 	ld      a,a
   026A FE 18              1340 	cp	#0x18
   026C D2 72 02           1341 	jp	nc,00102$
                           1342 ;	my_functs.h 125
                           1343 ;	genAssign (pointer)
   026F 3E 18              1344 	ld	a,#0x18
   0271 02                 1345 	ld	(bc),a
                           1346 ;	genLabel
   0272                    1347 00102$:
                           1348 ;	my_functs.h 128
                           1349 ;	genPointerGet
                           1350 ;	AOP_STK for _wall_check_sloc0_1_0
   0272 0A                 1351 	ld	a,(bc)
   0273 F8 00              1352 	lda	hl,0(sp)
   0275 77                 1353 	ld	(hl),a
                           1354 ;	genCmpGt
                           1355 ;	AOP_STK for _wall_check_sloc0_1_0
   0276 3E 90              1356 	ld	a,#0x90
   0278 96                 1357 	sub	a,(hl)
   0279 D2 7F 02           1358 	jp	nc,00104$
                           1359 ;	my_functs.h 129
                           1360 ;	genAssign (pointer)
   027C 3E 90              1361 	ld	a,#0x90
   027E 02                 1362 	ld	(bc),a
                           1363 ;	genLabel
   027F                    1364 00104$:
                           1365 ;	my_functs.h 132
                           1366 ;	genAssign
                           1367 ;	AOP_STK for 
   027F F8 05              1368 	lda	hl,5(sp)
   0281 4E                 1369 	ld	c,(hl)
   0282 23                 1370 	inc	hl
   0283 46                 1371 	ld	b,(hl)
                           1372 ;	genPointerGet
                           1373 ;	AOP_STK for _wall_check_sloc0_1_0
   0284 0A                 1374 	ld	a,(bc)
   0285 F8 00              1375 	lda	hl,0(sp)
                           1376 ;	genCmpLt
                           1377 ;	AOP_STK for _wall_check_sloc0_1_0
   0287 77                 1378 	ld      (hl),a
   0288 7F                 1379 	ld      a,a
   0289 FE 20              1380 	cp	#0x20
   028B D2 91 02           1381 	jp	nc,00106$
                           1382 ;	my_functs.h 133
                           1383 ;	genAssign (pointer)
   028E 3E 20              1384 	ld	a,#0x20
   0290 02                 1385 	ld	(bc),a
                           1386 ;	genLabel
   0291                    1387 00106$:
                           1388 ;	my_functs.h 136
                           1389 ;	genPointerGet
                           1390 ;	AOP_STK for _wall_check_sloc0_1_0
   0291 0A                 1391 	ld	a,(bc)
   0292 F8 00              1392 	lda	hl,0(sp)
   0294 77                 1393 	ld	(hl),a
                           1394 ;	genCmpGt
                           1395 ;	AOP_STK for _wall_check_sloc0_1_0
   0295 3E 88              1396 	ld	a,#0x88
   0297 96                 1397 	sub	a,(hl)
   0298 D2 9E 02           1398 	jp	nc,00109$
                           1399 ;	my_functs.h 137
                           1400 ;	genAssign (pointer)
   029B 3E 88              1401 	ld	a,#0x88
   029D 02                 1402 	ld	(bc),a
                           1403 ;	genLabel
   029E                    1404 00109$:
                           1405 ;	genEndFunction
   029E E8 01              1406 	lda	sp,1(sp)
   02A0 C9                 1407 	ret
   02A1                    1408 ___wall_check_end:
                           1409 ;	my_functs.h 141
                           1410 ;	genLabel
                           1411 ;	genFunction
                           1412 ;	---------------------------------
                           1413 ; Function bounce
                           1414 ; ---------------------------------
   02A1                    1415 ___bounce_start:
   02A1                    1416 _bounce:
   02A1 E8 F4              1417 	lda	sp,-12(sp)
                           1418 ;	my_functs.h 145
                           1419 ;	genIpush
                           1420 ; _saveRegsForCall: sendSetSize: 0 deInUse: 0 bcInUse: 0 deSending: 0
   02A3 21 08 08           1421 	ld	hl,#0x0808
   02A6 E5                 1422 	push	hl
                           1423 ;	genIpush
                           1424 ;	AOP_STK for 
   02A7 F8 16              1425 	lda	hl,22(sp)
   02A9 2A                 1426 	ld	a,(hl+)
   02AA 66                 1427 	ld	h,(hl)
   02AB 6F                 1428 	ld	l,a
   02AC E5                 1429 	push	hl
                           1430 ;	genIpush
                           1431 ;	AOP_STK for 
   02AD F8 16              1432 	lda	hl,22(sp)
   02AF 2A                 1433 	ld	a,(hl+)
   02B0 66                 1434 	ld	h,(hl)
   02B1 6F                 1435 	ld	l,a
   02B2 E5                 1436 	push	hl
                           1437 ;	genIpush
   02B3 21 08 08           1438 	ld	hl,#0x0808
   02B6 E5                 1439 	push	hl
                           1440 ;	genIpush
                           1441 ;	AOP_STK for 
   02B7 F8 18              1442 	lda	hl,24(sp)
   02B9 2A                 1443 	ld	a,(hl+)
   02BA 66                 1444 	ld	h,(hl)
   02BB 6F                 1445 	ld	l,a
   02BC E5                 1446 	push	hl
                           1447 ;	genIpush
                           1448 ;	AOP_STK for 
   02BD F8 18              1449 	lda	hl,24(sp)
   02BF 2A                 1450 	ld	a,(hl+)
   02C0 66                 1451 	ld	h,(hl)
   02C1 6F                 1452 	ld	l,a
   02C2 E5                 1453 	push	hl
                           1454 ;	genCall
   02C3 CD 39 00           1455 	call	_collision_check
   02C6 4B                 1456 	ld	c,e
   02C7 E8 0C              1457 	lda	sp,12(sp)
                           1458 ;	genCmpEq
                           1459 ; genCmpEq: left 1, right 1, result 0
   02C9 79                 1460 	ld	a,c
   02CA FE 01              1461 	cp	a,#0x01
   02CC C2 1E 03           1462 	jp	nz,00102$
   02CF 18 03              1463 	jr	00119$
   02D1                    1464 00118$:
   02D1 C3 1E 03           1465 	jp	00102$
   02D4                    1466 00119$:
                           1467 ;	my_functs.h 147
                           1468 ;	genAssign
                           1469 ;	AOP_STK for 
   02D4 F8 16              1470 	lda	hl,22(sp)
   02D6 4E                 1471 	ld	c,(hl)
   02D7 23                 1472 	inc	hl
   02D8 46                 1473 	ld	b,(hl)
                           1474 ;	genPointerGet
                           1475 ;	AOP_STK for _bounce_sloc0_1_0
   02D9 0A                 1476 	ld	a,(bc)
   02DA F8 0B              1477 	lda	hl,11(sp)
                           1478 ;	genMult
                           1479 ;	AOP_STK for _bounce_sloc0_1_0
                           1480 ;	AOP_STK for _bounce_sloc1_1_0
   02DC 77                 1481 	ld      (hl),a
   02DD 5F                 1482 	ld      e,a
   02DE 16 00              1483 	ld	d,#0x00
   02E0 6B                 1484 	ld	l,e
   02E1 62                 1485 	ld	h,d
   02E2 29                 1486 	add	hl,hl
   02E3 19                 1487 	add	hl,de
   02E4 29                 1488 	add	hl,hl
   02E5 19                 1489 	add	hl,de
   02E6 29                 1490 	add	hl,hl
   02E7 19                 1491 	add	hl,de
   02E8 29                 1492 	add	hl,hl
   02E9 19                 1493 	add	hl,de
   02EA 29                 1494 	add	hl,hl
   02EB 19                 1495 	add	hl,de
   02EC 29                 1496 	add	hl,hl
   02ED 19                 1497 	add	hl,de
   02EE 29                 1498 	add	hl,hl
   02EF 19                 1499 	add	hl,de
   02F0 7D                 1500 	ld	a,l
   02F1 54                 1501 	ld	d,h
   02F2 F8 09              1502 	lda	hl,9(sp)
   02F4 22                 1503 	ld	(hl+),a
   02F5 72                 1504 	ld	(hl),d
                           1505 ;	genCast
                           1506 ;	AOP_STK for _bounce_sloc1_1_0
   02F6 2B                 1507 	dec	hl
   02F7 7E                 1508 	ld	a,(hl)
                           1509 ;	genAssign (pointer)
   02F8 02                 1510 	ld	(bc),a
                           1511 ;	my_functs.h 148
                           1512 ;	genAssign
                           1513 ;	AOP_STK for 
   02F9 F8 18              1514 	lda	hl,24(sp)
   02FB 4E                 1515 	ld	c,(hl)
   02FC 23                 1516 	inc	hl
   02FD 46                 1517 	ld	b,(hl)
                           1518 ;	genPointerGet
                           1519 ;	AOP_STK for _bounce_sloc1_1_0
   02FE 0A                 1520 	ld	a,(bc)
   02FF F8 09              1521 	lda	hl,9(sp)
                           1522 ;	genMult
                           1523 ;	AOP_STK for _bounce_sloc1_1_0
                           1524 ;	AOP_STK for _bounce_sloc2_1_0
   0301 77                 1525 	ld      (hl),a
   0302 5F                 1526 	ld      e,a
   0303 16 00              1527 	ld	d,#0x00
   0305 6B                 1528 	ld	l,e
   0306 62                 1529 	ld	h,d
   0307 29                 1530 	add	hl,hl
   0308 19                 1531 	add	hl,de
   0309 29                 1532 	add	hl,hl
   030A 19                 1533 	add	hl,de
   030B 29                 1534 	add	hl,hl
   030C 19                 1535 	add	hl,de
   030D 29                 1536 	add	hl,hl
   030E 19                 1537 	add	hl,de
   030F 29                 1538 	add	hl,hl
   0310 19                 1539 	add	hl,de
   0311 29                 1540 	add	hl,hl
   0312 19                 1541 	add	hl,de
   0313 29                 1542 	add	hl,hl
   0314 19                 1543 	add	hl,de
   0315 7D                 1544 	ld	a,l
   0316 54                 1545 	ld	d,h
   0317 F8 07              1546 	lda	hl,7(sp)
   0319 22                 1547 	ld	(hl+),a
   031A 72                 1548 	ld	(hl),d
                           1549 ;	genCast
                           1550 ;	AOP_STK for _bounce_sloc2_1_0
   031B 2B                 1551 	dec	hl
   031C 7E                 1552 	ld	a,(hl)
                           1553 ;	genAssign (pointer)
   031D 02                 1554 	ld	(bc),a
                           1555 ;	genLabel
   031E                    1556 00102$:
                           1557 ;	my_functs.h 151
                           1558 ;	genAssign
                           1559 ;	AOP_STK for 
   031E F8 0E              1560 	lda	hl,14(sp)
   0320 4E                 1561 	ld	c,(hl)
   0321 23                 1562 	inc	hl
   0322 46                 1563 	ld	b,(hl)
                           1564 ;	genPointerGet
                           1565 ;	AOP_STK for _bounce_sloc2_1_0
   0323 0A                 1566 	ld	a,(bc)
   0324 F8 07              1567 	lda	hl,7(sp)
   0326 77                 1568 	ld	(hl),a
                           1569 ;	genAssign
                           1570 ;	AOP_STK for 
                           1571 ;	AOP_STK for _bounce_sloc1_1_0
   0327 F8 16              1572 	lda	hl,22(sp)
   0329 2A                 1573 	ld	a,(hl+)
   032A 5E                 1574 	ld	e,(hl)
   032B F8 09              1575 	lda	hl,9(sp)
   032D 22                 1576 	ld	(hl+),a
   032E 73                 1577 	ld	(hl),e
                           1578 ;	genPointerGet
                           1579 ;	AOP_STK for _bounce_sloc1_1_0
                           1580 ;	AOP_STK for _bounce_sloc0_1_0
   032F 2B                 1581 	dec	hl
   0330 5E                 1582 	ld	e,(hl)
   0331 23                 1583 	inc	hl
   0332 56                 1584 	ld	d,(hl)
   0333 1A                 1585 	ld	a,(de)
   0334 23                 1586 	inc	hl
   0335 77                 1587 	ld	(hl),a
                           1588 ;	genPlus
                           1589 ;	AOP_STK for _bounce_sloc2_1_0
                           1590 ;	AOP_STK for _bounce_sloc0_1_0
                           1591 ;	AOP_STK for _bounce_sloc3_1_0
                           1592 ;	Can't optimise plus by inc, falling back to the normal way
   0336 F8 07              1593 	lda	hl,7(sp)
   0338 7E                 1594 	ld	a,(hl)
   0339 F8 0B              1595 	lda	hl,11(sp)
   033B 86                 1596 	add	a,(hl)
   033C F8 06              1597 	lda	hl,6(sp)
                           1598 ;	genAssign (pointer)
                           1599 ;	AOP_STK for _bounce_sloc3_1_0
   033E 77                 1600 	ld      (hl),a
                           1601 ; Removed redundent load
   033F 02                 1602 	ld	(bc),a
                           1603 ;	my_functs.h 152
                           1604 ;	genAssign
                           1605 ;	AOP_STK for 
                           1606 ;	AOP_STK for _bounce_sloc2_1_0
   0340 F8 10              1607 	lda	hl,16(sp)
   0342 2A                 1608 	ld	a,(hl+)
   0343 5E                 1609 	ld	e,(hl)
   0344 F8 07              1610 	lda	hl,7(sp)
   0346 22                 1611 	ld	(hl+),a
   0347 73                 1612 	ld	(hl),e
                           1613 ;	genPointerGet
                           1614 ;	AOP_STK for _bounce_sloc2_1_0
                           1615 ;	AOP_STK for _bounce_sloc4_1_0
   0348 2B                 1616 	dec	hl
   0349 5E                 1617 	ld	e,(hl)
   034A 23                 1618 	inc	hl
   034B 56                 1619 	ld	d,(hl)
   034C 1A                 1620 	ld	a,(de)
   034D F8 05              1621 	lda	hl,5(sp)
   034F 77                 1622 	ld	(hl),a
                           1623 ;	genAssign
                           1624 ;	AOP_STK for 
                           1625 ;	AOP_STK for _bounce_sloc5_1_0
   0350 F8 18              1626 	lda	hl,24(sp)
   0352 2A                 1627 	ld	a,(hl+)
   0353 5E                 1628 	ld	e,(hl)
   0354 F8 03              1629 	lda	hl,3(sp)
   0356 22                 1630 	ld	(hl+),a
   0357 73                 1631 	ld	(hl),e
                           1632 ;	genPointerGet
                           1633 ;	AOP_STK for _bounce_sloc5_1_0
                           1634 ;	AOP_STK for _bounce_sloc6_1_0
   0358 2B                 1635 	dec	hl
   0359 5E                 1636 	ld	e,(hl)
   035A 23                 1637 	inc	hl
   035B 56                 1638 	ld	d,(hl)
   035C 1A                 1639 	ld	a,(de)
   035D 2B                 1640 	dec	hl
   035E 2B                 1641 	dec	hl
   035F 77                 1642 	ld	(hl),a
                           1643 ;	genPlus
                           1644 ;	AOP_STK for _bounce_sloc4_1_0
                           1645 ;	AOP_STK for _bounce_sloc6_1_0
                           1646 ;	Can't optimise plus by inc, falling back to the normal way
   0360 F8 05              1647 	lda	hl,5(sp)
   0362 7E                 1648 	ld	a,(hl)
   0363 F8 02              1649 	lda	hl,2(sp)
   0365 86                 1650 	add	a,(hl)
                           1651 ;	genAssign (pointer)
                           1652 ;	AOP_STK for _bounce_sloc2_1_0
   0366 F8 07              1653 	lda	hl,7(sp)
   0368 5E                 1654 	ld	e,(hl)
   0369 23                 1655 	inc	hl
   036A 56                 1656 	ld	d,(hl)
   036B 12                 1657 	ld	(de),a
                           1658 ;	my_functs.h 154
                           1659 ;	genCmpLt
                           1660 ;	AOP_STK for _bounce_sloc3_1_0
   036C 2B                 1661 	dec	hl
   036D 2B                 1662 	dec	hl
   036E 7E                 1663 	ld	a,(hl)
   036F FE 18              1664 	cp	#0x18
   0371 DA 97 03           1665 	jp	c,00104$
                           1666 ;	my_functs.h 155
                           1667 ;	genMult
                           1668 ;	AOP_STK for _bounce_sloc0_1_0
                           1669 ;	AOP_STK for _bounce_sloc7_1_0
   0374 F8 0B              1670 	lda	hl,11(sp)
   0376 5E                 1671 	ld	e,(hl)
   0377 16 00              1672 	ld	d,#0x00
   0379 6B                 1673 	ld	l,e
   037A 62                 1674 	ld	h,d
   037B 29                 1675 	add	hl,hl
   037C 19                 1676 	add	hl,de
   037D 29                 1677 	add	hl,hl
   037E 19                 1678 	add	hl,de
   037F 29                 1679 	add	hl,hl
   0380 19                 1680 	add	hl,de
   0381 29                 1681 	add	hl,hl
   0382 19                 1682 	add	hl,de
   0383 29                 1683 	add	hl,hl
   0384 19                 1684 	add	hl,de
   0385 29                 1685 	add	hl,hl
   0386 19                 1686 	add	hl,de
   0387 29                 1687 	add	hl,hl
   0388 19                 1688 	add	hl,de
   0389 7D                 1689 	ld	a,l
   038A 54                 1690 	ld	d,h
   038B F8 00              1691 	lda	hl,0(sp)
   038D 22                 1692 	ld	(hl+),a
   038E 72                 1693 	ld	(hl),d
                           1694 ;	genCast
                           1695 ;	AOP_STK for _bounce_sloc7_1_0
   038F 2B                 1696 	dec	hl
   0390 7E                 1697 	ld	a,(hl)
                           1698 ;	genAssign (pointer)
                           1699 ;	AOP_STK for _bounce_sloc1_1_0
   0391 F8 09              1700 	lda	hl,9(sp)
   0393 5E                 1701 	ld	e,(hl)
   0394 23                 1702 	inc	hl
   0395 56                 1703 	ld	d,(hl)
   0396 12                 1704 	ld	(de),a
                           1705 ;	genLabel
   0397                    1706 00104$:
                           1707 ;	my_functs.h 158
                           1708 ;	genPointerGet
   0397 0A                 1709 	ld	a,(bc)
   0398 4F                 1710 	ld	c,a
                           1711 ;	genCmpGt
   0399 3E 90              1712 	ld	a,#0x90
   039B 91                 1713 	sub	a,c
   039C DA C2 03           1714 	jp	c,00106$
                           1715 ;	my_functs.h 159
                           1716 ;	genPointerGet
                           1717 ;	AOP_STK for _bounce_sloc1_1_0
   039F F8 09              1718 	lda	hl,9(sp)
   03A1 5E                 1719 	ld	e,(hl)
   03A2 23                 1720 	inc	hl
   03A3 56                 1721 	ld	d,(hl)
   03A4 1A                 1722 	ld	a,(de)
   03A5 4F                 1723 	ld	c,a
                           1724 ;	genMult
   03A6 59                 1725 	ld	e,c
   03A7 16 00              1726 	ld	d,#0x00
   03A9 6B                 1727 	ld	l,e
   03AA 62                 1728 	ld	h,d
   03AB 29                 1729 	add	hl,hl
   03AC 19                 1730 	add	hl,de
   03AD 29                 1731 	add	hl,hl
   03AE 19                 1732 	add	hl,de
   03AF 29                 1733 	add	hl,hl
   03B0 19                 1734 	add	hl,de
   03B1 29                 1735 	add	hl,hl
   03B2 19                 1736 	add	hl,de
   03B3 29                 1737 	add	hl,hl
   03B4 19                 1738 	add	hl,de
   03B5 29                 1739 	add	hl,hl
   03B6 19                 1740 	add	hl,de
   03B7 29                 1741 	add	hl,hl
   03B8 19                 1742 	add	hl,de
   03B9 4D                 1743 	ld	c,l
   03BA 44                 1744 	ld	b,h
                           1745 ;	genCast
   03BB 79                 1746 	ld	a,c
                           1747 ;	genAssign (pointer)
                           1748 ;	AOP_STK for _bounce_sloc1_1_0
   03BC F8 09              1749 	lda	hl,9(sp)
   03BE 5E                 1750 	ld	e,(hl)
   03BF 23                 1751 	inc	hl
   03C0 56                 1752 	ld	d,(hl)
   03C1 12                 1753 	ld	(de),a
                           1754 ;	genLabel
   03C2                    1755 00106$:
                           1756 ;	my_functs.h 162
                           1757 ;	genPointerGet
                           1758 ;	AOP_STK for _bounce_sloc2_1_0
   03C2 F8 07              1759 	lda	hl,7(sp)
   03C4 5E                 1760 	ld	e,(hl)
   03C5 23                 1761 	inc	hl
   03C6 56                 1762 	ld	d,(hl)
   03C7 1A                 1763 	ld	a,(de)
   03C8 4F                 1764 	ld	c,a
                           1765 ;	genCmpGt
   03C9 3E 20              1766 	ld	a,#0x20
   03CB 91                 1767 	sub	a,c
   03CC DA ED 03           1768 	jp	c,00108$
                           1769 ;	my_functs.h 163
                           1770 ;	genMult
                           1771 ;	AOP_STK for _bounce_sloc6_1_0
   03CF F8 02              1772 	lda	hl,2(sp)
   03D1 5E                 1773 	ld	e,(hl)
   03D2 16 00              1774 	ld	d,#0x00
   03D4 6B                 1775 	ld	l,e
   03D5 62                 1776 	ld	h,d
   03D6 29                 1777 	add	hl,hl
   03D7 19                 1778 	add	hl,de
   03D8 29                 1779 	add	hl,hl
   03D9 19                 1780 	add	hl,de
   03DA 29                 1781 	add	hl,hl
   03DB 19                 1782 	add	hl,de
   03DC 29                 1783 	add	hl,hl
   03DD 19                 1784 	add	hl,de
   03DE 29                 1785 	add	hl,hl
   03DF 19                 1786 	add	hl,de
   03E0 29                 1787 	add	hl,hl
   03E1 19                 1788 	add	hl,de
   03E2 29                 1789 	add	hl,hl
   03E3 19                 1790 	add	hl,de
   03E4 4D                 1791 	ld	c,l
   03E5 44                 1792 	ld	b,h
                           1793 ;	genCast
   03E6 79                 1794 	ld	a,c
                           1795 ;	genAssign (pointer)
                           1796 ;	AOP_STK for _bounce_sloc5_1_0
   03E7 F8 03              1797 	lda	hl,3(sp)
   03E9 5E                 1798 	ld	e,(hl)
   03EA 23                 1799 	inc	hl
   03EB 56                 1800 	ld	d,(hl)
   03EC 12                 1801 	ld	(de),a
                           1802 ;	genLabel
   03ED                    1803 00108$:
                           1804 ;	my_functs.h 166
                           1805 ;	genPointerGet
                           1806 ;	AOP_STK for _bounce_sloc2_1_0
   03ED F8 07              1807 	lda	hl,7(sp)
   03EF 5E                 1808 	ld	e,(hl)
   03F0 23                 1809 	inc	hl
   03F1 56                 1810 	ld	d,(hl)
   03F2 1A                 1811 	ld	a,(de)
                           1812 ;	genCmpLt
   03F3 4F                 1813 	ld	c,a
   03F4 FE 88              1814 	cp	#0x88
   03F6 DA 1C 04           1815 	jp	c,00111$
                           1816 ;	my_functs.h 167
                           1817 ;	genPointerGet
                           1818 ;	AOP_STK for _bounce_sloc5_1_0
   03F9 F8 03              1819 	lda	hl,3(sp)
   03FB 5E                 1820 	ld	e,(hl)
   03FC 23                 1821 	inc	hl
   03FD 56                 1822 	ld	d,(hl)
   03FE 1A                 1823 	ld	a,(de)
   03FF 4F                 1824 	ld	c,a
                           1825 ;	genMult
   0400 59                 1826 	ld	e,c
   0401 16 00              1827 	ld	d,#0x00
   0403 6B                 1828 	ld	l,e
   0404 62                 1829 	ld	h,d
   0405 29                 1830 	add	hl,hl
   0406 19                 1831 	add	hl,de
   0407 29                 1832 	add	hl,hl
   0408 19                 1833 	add	hl,de
   0409 29                 1834 	add	hl,hl
   040A 19                 1835 	add	hl,de
   040B 29                 1836 	add	hl,hl
   040C 19                 1837 	add	hl,de
   040D 29                 1838 	add	hl,hl
   040E 19                 1839 	add	hl,de
   040F 29                 1840 	add	hl,hl
   0410 19                 1841 	add	hl,de
   0411 29                 1842 	add	hl,hl
   0412 19                 1843 	add	hl,de
   0413 4D                 1844 	ld	c,l
   0414 44                 1845 	ld	b,h
                           1846 ;	genCast
   0415 79                 1847 	ld	a,c
                           1848 ;	genAssign (pointer)
                           1849 ;	AOP_STK for _bounce_sloc5_1_0
   0416 F8 03              1850 	lda	hl,3(sp)
   0418 5E                 1851 	ld	e,(hl)
   0419 23                 1852 	inc	hl
   041A 56                 1853 	ld	d,(hl)
   041B 12                 1854 	ld	(de),a
                           1855 ;	genLabel
   041C                    1856 00111$:
                           1857 ;	genEndFunction
   041C E8 0C              1858 	lda	sp,12(sp)
   041E C9                 1859 	ret
   041F                    1860 ___bounce_end:
                           1861 ;	main.c 49
                           1862 ;	genLabel
                           1863 ;	genFunction
                           1864 ;	---------------------------------
                           1865 ; Function init
                           1866 ; ---------------------------------
   041F                    1867 ___init_start:
   041F                    1868 _init:
   041F E8 FB              1869 	lda	sp,-5(sp)
                           1870 ;	main.c 56
                           1871 ;	genAssign
   0421 01 40 FF           1872 	ld	bc,#0xFF40
                           1873 ;	genAssign
                           1874 ;	AOP_STK for _init_sloc0_1_0
   0424 F8 03              1875 	lda	hl,3(sp)
   0426 36 40              1876 	ld	(hl),#0x40
   0428 23                 1877 	inc	hl
   0429 36 FF              1878 	ld	(hl),#0xFF
                           1879 ;	genPointerGet
                           1880 ;	AOP_STK for _init_sloc0_1_0
                           1881 ;	AOP_STK for _init_sloc1_1_0
   042B 2B                 1882 	dec	hl
   042C 5E                 1883 	ld	e,(hl)
   042D 23                 1884 	inc	hl
   042E 56                 1885 	ld	d,(hl)
   042F 1A                 1886 	ld	a,(de)
   0430 2B                 1887 	dec	hl
   0431 2B                 1888 	dec	hl
                           1889 ;	genOr
                           1890 ;	AOP_STK for _init_sloc1_1_0
   0432 77                 1891 	ld      (hl),a
                           1892 ; Removed redundent load
   0433 F6 80              1893 	or	a,#0x80
                           1894 ;	genAssign (pointer)
   0435 02                 1895 	ld	(bc),a
                           1896 ;	main.c 58
                           1897 ;	genIpush
                           1898 ; _saveRegsForCall: sendSetSize: 0 deInUse: 0 bcInUse: 0 deSending: 0
   0436 21 00 00           1899 	ld	hl,#_tiles
   0439 E5                 1900 	push	hl
                           1901 ;	genIpush
   043A 21 00 64           1902 	ld	hl,#0x6400
   043D E5                 1903 	push	hl
                           1904 ;	genCall
   043E CD 00 00           1905 	call	_set_bkg_data
   0441 E8 04              1906 	lda	sp,4(sp)
                           1907 ;	main.c 59
                           1908 ;	genIpush
                           1909 ; _saveRegsForCall: sendSetSize: 0 deInUse: 0 bcInUse: 0 deSending: 0
   0443 21 C0 03           1910 	ld	hl,#_dungeon
   0446 E5                 1911 	push	hl
                           1912 ;	genIpush
   0447 21 14 12           1913 	ld	hl,#0x1214
   044A E5                 1914 	push	hl
                           1915 ;	genIpush
   044B 21 00 00           1916 	ld	hl,#0x0000
   044E E5                 1917 	push	hl
                           1918 ;	genCall
   044F CD 00 00           1919 	call	_set_bkg_tiles
   0452 E8 06              1920 	lda	sp,6(sp)
                           1921 ;	main.c 62
                           1922 ;	genIpush
                           1923 ; _saveRegsForCall: sendSetSize: 0 deInUse: 0 bcInUse: 0 deSending: 0
   0454 21 28 05           1924 	ld	hl,#_sprites
   0457 E5                 1925 	push	hl
                           1926 ;	genIpush
   0458 21 00 0E           1927 	ld	hl,#0x0E00
   045B E5                 1928 	push	hl
                           1929 ;	genCall
   045C CD 00 00           1930 	call	_set_sprite_data
   045F E8 04              1931 	lda	sp,4(sp)
                           1932 ;	main.c 65
                           1933 ;	genIpush
                           1934 ; _saveRegsForCall: sendSetSize: 0 deInUse: 0 bcInUse: 0 deSending: 0
   0461 21 48 08           1935 	ld	hl,#_heart
   0464 E5                 1936 	push	hl
                           1937 ;	genIpush
   0465 21 0E 16           1938 	ld	hl,#0x160E
   0468 E5                 1939 	push	hl
                           1940 ;	genCall
   0469 CD 00 00           1941 	call	_set_sprite_data
   046C E8 04              1942 	lda	sp,4(sp)
                           1943 ;	main.c 71
                           1944 ;	genIpush
                           1945 ; _saveRegsForCall: sendSetSize: 0 deInUse: 0 bcInUse: 0 deSending: 0
   046E 21 00 00           1946 	ld	hl,#0x0000
   0471 E5                 1947 	push	hl
                           1948 ;	genCall
   0472 CD 00 00           1949 	call	_set_sprite_tile
   0475 E8 02              1950 	lda	sp,2(sp)
                           1951 ;	main.c 75
                           1952 ;	genIpush
                           1953 ; _saveRegsForCall: sendSetSize: 0 deInUse: 0 bcInUse: 0 deSending: 0
   0477 21 01 01           1954 	ld	hl,#0x0101
   047A E5                 1955 	push	hl
                           1956 ;	genCall
   047B CD 00 00           1957 	call	_set_sprite_tile
   047E E8 02              1958 	lda	sp,2(sp)
                           1959 ;	main.c 76
                           1960 ;	genIpush
                           1961 ; _saveRegsForCall: sendSetSize: 0 deInUse: 0 bcInUse: 0 deSending: 0
   0480 21 02 01           1962 	ld	hl,#0x0102
   0483 E5                 1963 	push	hl
                           1964 ;	genCall
   0484 CD 00 00           1965 	call	_set_sprite_tile
   0487 E8 02              1966 	lda	sp,2(sp)
                           1967 ;	main.c 77
                           1968 ;	genIpush
                           1969 ; _saveRegsForCall: sendSetSize: 0 deInUse: 0 bcInUse: 0 deSending: 0
   0489 21 03 01           1970 	ld	hl,#0x0103
   048C E5                 1971 	push	hl
                           1972 ;	genCall
   048D CD 00 00           1973 	call	_set_sprite_tile
   0490 E8 02              1974 	lda	sp,2(sp)
                           1975 ;	main.c 78
                           1976 ;	genIpush
                           1977 ; _saveRegsForCall: sendSetSize: 0 deInUse: 0 bcInUse: 0 deSending: 0
   0492 21 04 01           1978 	ld	hl,#0x0104
   0495 E5                 1979 	push	hl
                           1980 ;	genCall
   0496 CD 00 00           1981 	call	_set_sprite_tile
   0499 E8 02              1982 	lda	sp,2(sp)
                           1983 ;	main.c 79
                           1984 ;	genIpush
                           1985 ; _saveRegsForCall: sendSetSize: 0 deInUse: 0 bcInUse: 0 deSending: 0
   049B 21 05 01           1986 	ld	hl,#0x0105
   049E E5                 1987 	push	hl
                           1988 ;	genCall
   049F CD 00 00           1989 	call	_set_sprite_tile
   04A2 E8 02              1990 	lda	sp,2(sp)
                           1991 ;	main.c 80
                           1992 ;	genIpush
                           1993 ; _saveRegsForCall: sendSetSize: 0 deInUse: 0 bcInUse: 0 deSending: 0
   04A4 21 06 01           1994 	ld	hl,#0x0106
   04A7 E5                 1995 	push	hl
                           1996 ;	genCall
   04A8 CD 00 00           1997 	call	_set_sprite_tile
   04AB E8 02              1998 	lda	sp,2(sp)
                           1999 ;	main.c 81
                           2000 ;	genIpush
                           2001 ; _saveRegsForCall: sendSetSize: 0 deInUse: 0 bcInUse: 0 deSending: 0
   04AD 21 07 01           2002 	ld	hl,#0x0107
   04B0 E5                 2003 	push	hl
                           2004 ;	genCall
   04B1 CD 00 00           2005 	call	_set_sprite_tile
   04B4 E8 02              2006 	lda	sp,2(sp)
                           2007 ;	main.c 82
                           2008 ;	genIpush
                           2009 ; _saveRegsForCall: sendSetSize: 0 deInUse: 0 bcInUse: 0 deSending: 0
   04B6 21 08 01           2010 	ld	hl,#0x0108
   04B9 E5                 2011 	push	hl
                           2012 ;	genCall
   04BA CD 00 00           2013 	call	_set_sprite_tile
   04BD E8 02              2014 	lda	sp,2(sp)
                           2015 ;	main.c 83
                           2016 ;	genIpush
                           2017 ; _saveRegsForCall: sendSetSize: 0 deInUse: 0 bcInUse: 0 deSending: 0
   04BF 21 09 01           2018 	ld	hl,#0x0109
   04C2 E5                 2019 	push	hl
                           2020 ;	genCall
   04C3 CD 00 00           2021 	call	_set_sprite_tile
   04C6 E8 02              2022 	lda	sp,2(sp)
                           2023 ;	main.c 84
                           2024 ;	genIpush
                           2025 ; _saveRegsForCall: sendSetSize: 0 deInUse: 0 bcInUse: 0 deSending: 0
   04C8 21 0A 01           2026 	ld	hl,#0x010A
   04CB E5                 2027 	push	hl
                           2028 ;	genCall
   04CC CD 00 00           2029 	call	_set_sprite_tile
   04CF E8 02              2030 	lda	sp,2(sp)
                           2031 ;	main.c 85
                           2032 ;	genIpush
                           2033 ; _saveRegsForCall: sendSetSize: 0 deInUse: 0 bcInUse: 0 deSending: 0
   04D1 21 0B 01           2034 	ld	hl,#0x010B
   04D4 E5                 2035 	push	hl
                           2036 ;	genCall
   04D5 CD 00 00           2037 	call	_set_sprite_tile
   04D8 E8 02              2038 	lda	sp,2(sp)
                           2039 ;	main.c 86
                           2040 ;	genIpush
                           2041 ; _saveRegsForCall: sendSetSize: 0 deInUse: 0 bcInUse: 0 deSending: 0
   04DA 21 0C 01           2042 	ld	hl,#0x010C
   04DD E5                 2043 	push	hl
                           2044 ;	genCall
   04DE CD 00 00           2045 	call	_set_sprite_tile
   04E1 E8 02              2046 	lda	sp,2(sp)
                           2047 ;	main.c 87
                           2048 ;	genIpush
                           2049 ; _saveRegsForCall: sendSetSize: 0 deInUse: 0 bcInUse: 0 deSending: 0
   04E3 21 0D 01           2050 	ld	hl,#0x010D
   04E6 E5                 2051 	push	hl
                           2052 ;	genCall
   04E7 CD 00 00           2053 	call	_set_sprite_tile
   04EA E8 02              2054 	lda	sp,2(sp)
                           2055 ;	main.c 91
                           2056 ;	genIpush
                           2057 ; _saveRegsForCall: sendSetSize: 0 deInUse: 0 bcInUse: 0 deSending: 0
   04EC 21 0E 0E           2058 	ld	hl,#0x0E0E
   04EF E5                 2059 	push	hl
                           2060 ;	genCall
   04F0 CD 00 00           2061 	call	_set_sprite_tile
   04F3 E8 02              2062 	lda	sp,2(sp)
                           2063 ;	main.c 92
                           2064 ;	genIpush
                           2065 ; _saveRegsForCall: sendSetSize: 0 deInUse: 0 bcInUse: 0 deSending: 0
   04F5 21 0F 0E           2066 	ld	hl,#0x0E0F
   04F8 E5                 2067 	push	hl
                           2068 ;	genCall
   04F9 CD 00 00           2069 	call	_set_sprite_tile
   04FC E8 02              2070 	lda	sp,2(sp)
                           2071 ;	main.c 93
                           2072 ;	genIpush
                           2073 ; _saveRegsForCall: sendSetSize: 0 deInUse: 0 bcInUse: 0 deSending: 0
   04FE 21 10 0E           2074 	ld	hl,#0x0E10
   0501 E5                 2075 	push	hl
                           2076 ;	genCall
   0502 CD 00 00           2077 	call	_set_sprite_tile
   0505 E8 02              2078 	lda	sp,2(sp)
                           2079 ;	main.c 94
                           2080 ;	genIpush
                           2081 ; _saveRegsForCall: sendSetSize: 0 deInUse: 0 bcInUse: 0 deSending: 0
   0507 21 11 0E           2082 	ld	hl,#0x0E11
   050A E5                 2083 	push	hl
                           2084 ;	genCall
   050B CD 00 00           2085 	call	_set_sprite_tile
   050E E8 02              2086 	lda	sp,2(sp)
                           2087 ;	main.c 95
                           2088 ;	genIpush
                           2089 ; _saveRegsForCall: sendSetSize: 0 deInUse: 0 bcInUse: 0 deSending: 0
   0510 21 12 0E           2090 	ld	hl,#0x0E12
   0513 E5                 2091 	push	hl
                           2092 ;	genCall
   0514 CD 00 00           2093 	call	_set_sprite_tile
   0517 E8 02              2094 	lda	sp,2(sp)
                           2095 ;	main.c 96
                           2096 ;	genIpush
                           2097 ; _saveRegsForCall: sendSetSize: 0 deInUse: 0 bcInUse: 0 deSending: 0
   0519 21 13 0E           2098 	ld	hl,#0x0E13
   051C E5                 2099 	push	hl
                           2100 ;	genCall
   051D CD 00 00           2101 	call	_set_sprite_tile
   0520 E8 02              2102 	lda	sp,2(sp)
                           2103 ;	main.c 97
                           2104 ;	genIpush
                           2105 ; _saveRegsForCall: sendSetSize: 0 deInUse: 0 bcInUse: 0 deSending: 0
   0522 21 14 0E           2106 	ld	hl,#0x0E14
   0525 E5                 2107 	push	hl
                           2108 ;	genCall
   0526 CD 00 00           2109 	call	_set_sprite_tile
   0529 E8 02              2110 	lda	sp,2(sp)
                           2111 ;	main.c 98
                           2112 ;	genIpush
                           2113 ; _saveRegsForCall: sendSetSize: 0 deInUse: 0 bcInUse: 0 deSending: 0
   052B 21 15 0E           2114 	ld	hl,#0x0E15
   052E E5                 2115 	push	hl
                           2116 ;	genCall
   052F CD 00 00           2117 	call	_set_sprite_tile
   0532 E8 02              2118 	lda	sp,2(sp)
                           2119 ;	main.c 111
                           2120 ;	genAssign (pointer)
   0534 11 86 08           2121 	ld	de,#_player
   0537 3E 50              2122 	ld	a,#0x50
   0539 12                 2123 	ld	(de),a
                           2124 ;	main.c 112
                           2125 ;	genPlus
                           2126 ;	genPlusIncr
   053A 21 87 08           2127 	ld	hl,#_player + 1
                           2128 ;	genAssign (pointer)
   053D 36 46              2129 	ld	(hl),#0x46
                           2130 ;	main.c 120
                           2131 ;	genCall
                           2132 ; _saveRegsForCall: sendSetSize: 0 deInUse: 0 bcInUse: 0 deSending: 0
   053F CD 00 00           2133 	call	_rand
   0542 4B                 2134 	ld	c,e
                           2135 ;	genIpush
                           2136 ; _saveRegsForCall: sendSetSize: 0 deInUse: 0 bcInUse: 0 deSending: 0
   0543 3E A0              2137 	ld	a,#0xA0
   0545 F5                 2138 	push	af
   0546 33                 2139 	inc	sp
                           2140 ;	genIpush
   0547 79                 2141 	ld	a,c
   0548 F5                 2142 	push	af
   0549 33                 2143 	inc	sp
                           2144 ;	genCall
   054A CD 00 00           2145 	call	__modschar_rrx_s
   054D 4B                 2146 	ld	c,e
   054E E8 02              2147 	lda	sp,2(sp)
                           2148 ;	genCast
                           2149 ; Removed redundent load
   0550 79                 2150 	ld	a,c
   0551 17                 2151 	rla	
   0552 9F                 2152 	sbc	a,a
   0553 47                 2153 	ld	b,a
                           2154 ;	genAssign (pointer)
   0554 11 6B 08           2155 	ld	de,#_enemies
   0557 79                 2156 	ld	a,c
   0558 12                 2157 	ld	(de),a
   0559 13                 2158 	inc	de
   055A 78                 2159 	ld	a,b
   055B 12                 2160 	ld	(de),a
                           2161 ;	main.c 121
                           2162 ;	genPlus
                           2163 ;	genPlusIncr
   055C 21 6D 08           2164 	ld	hl,#_enemies + 2
                           2165 ;	genAssign (pointer)
   055F 5D                 2166 	ld	e,l
   0560 54                 2167 	ld	d,h
   0561 3E 28              2168 	ld	a,#0x28
   0563 12                 2169 	ld	(de),a
   0564 13                 2170 	inc	de
   0565 3E 00              2171 	ld	a,#0x00
   0567 12                 2172 	ld	(de),a
                           2173 ;	genAssign
                           2174 ;	AOP_HL for _i
   0568 21 7D 08           2175 	ld	hl,#_i
   056B 36 04              2176 	ld	(hl),#0x04
   056D 23                 2177 	inc	hl
   056E 36 00              2178 	ld	(hl),#0x00
                           2179 ;	genLabel
   0570                    2180 00103$:
                           2181 ;	main.c 132
                           2182 ;	genMinus
                           2183 ;	AOP_HL for _i
   0570 21 7D 08           2184 	ld	hl,#_i
   0573 4E                 2185 	ld	c,(hl)
   0574 23                 2186 	inc	hl
   0575 46                 2187 	ld	b,(hl)
   0576 0B                 2188 	dec	bc
                           2189 ;	genLeftShift
                           2190 ;	AOP_STK for _init_sloc0_1_0
   0577 F8 03              2191 	lda	hl,3(sp)
   0579 71                 2192 	ld	(hl),c
   057A 23                 2193 	inc	hl
   057B 70                 2194 	ld	(hl),b
   057C 2B                 2195 	dec	hl
   057D CB 26              2196 	sla	(hl)
   057F 23                 2197 	inc	hl
   0580 CB 16              2198 	rl	(hl)
                           2199 ;	genPlus
                           2200 ;	AOP_STK for _init_sloc0_1_0
                           2201 ;	AOP_STK for _init_sloc2_1_0
                           2202 ;	Can't optimise plus by inc, falling back to the normal way
   0582 11 88 08           2203 	ld	de,#_velocity
   0585 2B                 2204 	dec	hl
   0586 2A                 2205 	ld	a,(hl+)
   0587 66                 2206 	ld	h,(hl)
   0588 6F                 2207 	ld	l,a
   0589 19                 2208 	add	hl,de
   058A 7D                 2209 	ld	a,l
   058B 54                 2210 	ld	d,h
   058C F8 00              2211 	lda	hl,0(sp)
   058E 22                 2212 	ld	(hl+),a
   058F 72                 2213 	ld	(hl),d
                           2214 ;	genAssign (pointer)
                           2215 ;	AOP_STK for _init_sloc2_1_0
   0590 2B                 2216 	dec	hl
   0591 5E                 2217 	ld	e,(hl)
   0592 23                 2218 	inc	hl
   0593 56                 2219 	ld	d,(hl)
   0594 3E 01              2220 	ld	a,#0x01
   0596 12                 2221 	ld	(de),a
                           2222 ;	main.c 133
                           2223 ;	genPlus
                           2224 ;	AOP_STK for _init_sloc2_1_0
                           2225 ;	genPlusIncr
   0597 2B                 2226 	dec	hl
   0598 2A                 2227 	ld	a,(hl+)
   0599 66                 2228 	ld	h,(hl)
   059A 6F                 2229 	ld	l,a
   059B 23                 2230 	inc	hl
                           2231 ;	genAssign (pointer)
   059C 36 01              2232 	ld	(hl),#0x01
                           2233 ;	genAssign
                           2234 ;	AOP_HL for _i
   059E 21 7D 08           2235 	ld	hl,#_i
   05A1 71                 2236 	ld	(hl),c
   05A2 23                 2237 	inc	hl
   05A3 70                 2238 	ld	(hl),b
                           2239 ;	genIfx
                           2240 ;	AOP_HL for _i
   05A4 2B                 2241 	dec	hl
   05A5 2A                 2242 	ld	a,(hl+)
   05A6 B6                 2243 	or	a,(hl)
   05A7 C2 70 05           2244 	jp	nz,00103$
                           2245 ;	genAssign
                           2246 ;	AOP_HL for _i
   05AA 2B                 2247 	dec	hl
   05AB 36 04              2248 	ld	(hl),#0x04
   05AD 23                 2249 	inc	hl
   05AE 36 00              2250 	ld	(hl),#0x00
                           2251 ;	genLabel
   05B0                    2252 00104$:
                           2253 ;	genEndFunction
   05B0 E8 05              2254 	lda	sp,5(sp)
   05B2 C9                 2255 	ret
   05B3                    2256 ___init_end:
                           2257 ;	main.c 137
                           2258 ;	genLabel
                           2259 ;	genFunction
                           2260 ;	---------------------------------
                           2261 ; Function update_swithces
                           2262 ; ---------------------------------
   05B3                    2263 ___update_swithces_start:
   05B3                    2264 _update_swithces:
   05B3 E8 FD              2265 	lda	sp,-3(sp)
                           2266 ;	main.c 143
                           2267 ;	genAssign
   05B5 01 40 FF           2268 	ld	bc,#0xFF40
                           2269 ;	genAssign
                           2270 ;	AOP_STK for _update_swithces_sloc0_1_0
   05B8 F8 01              2271 	lda	hl,1(sp)
   05BA 36 40              2272 	ld	(hl),#0x40
   05BC 23                 2273 	inc	hl
   05BD 36 FF              2274 	ld	(hl),#0xFF
                           2275 ;	genPointerGet
                           2276 ;	AOP_STK for _update_swithces_sloc0_1_0
                           2277 ;	AOP_STK for _update_swithces_sloc1_1_0
   05BF 2B                 2278 	dec	hl
   05C0 5E                 2279 	ld	e,(hl)
   05C1 23                 2280 	inc	hl
   05C2 56                 2281 	ld	d,(hl)
   05C3 1A                 2282 	ld	a,(de)
   05C4 2B                 2283 	dec	hl
   05C5 2B                 2284 	dec	hl
                           2285 ;	genOr
                           2286 ;	AOP_STK for _update_swithces_sloc1_1_0
   05C6 77                 2287 	ld      (hl),a
   05C7 7F                 2288 	ld      a,a
   05C8 F6 02              2289 	or	a,#0x02
                           2290 ;	genAssign (pointer)
   05CA 02                 2291 	ld	(bc),a
                           2292 ;	main.c 144
                           2293 ;	genAssign
   05CB 01 40 FF           2294 	ld	bc,#0xFF40
                           2295 ;	genAssign
                           2296 ;	AOP_STK for _update_swithces_sloc0_1_0
   05CE 23                 2297 	inc	hl
   05CF 36 40              2298 	ld	(hl),#0x40
   05D1 23                 2299 	inc	hl
   05D2 36 FF              2300 	ld	(hl),#0xFF
                           2301 ;	genPointerGet
                           2302 ;	AOP_STK for _update_swithces_sloc0_1_0
                           2303 ;	AOP_STK for _update_swithces_sloc1_1_0
   05D4 2B                 2304 	dec	hl
   05D5 5E                 2305 	ld	e,(hl)
   05D6 23                 2306 	inc	hl
   05D7 56                 2307 	ld	d,(hl)
   05D8 1A                 2308 	ld	a,(de)
   05D9 2B                 2309 	dec	hl
   05DA 2B                 2310 	dec	hl
                           2311 ;	genAnd
                           2312 ;	AOP_STK for _update_swithces_sloc1_1_0
   05DB 77                 2313 	ld      (hl),a
   05DC 7F                 2314 	ld      a,a
   05DD E6 DF              2315 	and	a,#0xDF
                           2316 ;	genAssign (pointer)
   05DF 02                 2317 	ld	(bc),a
                           2318 ;	main.c 145
                           2319 ;	genAssign
   05E0 01 40 FF           2320 	ld	bc,#0xFF40
                           2321 ;	genAssign
                           2322 ;	AOP_STK for _update_swithces_sloc0_1_0
   05E3 23                 2323 	inc	hl
   05E4 36 40              2324 	ld	(hl),#0x40
   05E6 23                 2325 	inc	hl
   05E7 36 FF              2326 	ld	(hl),#0xFF
                           2327 ;	genPointerGet
                           2328 ;	AOP_STK for _update_swithces_sloc0_1_0
                           2329 ;	AOP_STK for _update_swithces_sloc1_1_0
   05E9 2B                 2330 	dec	hl
   05EA 5E                 2331 	ld	e,(hl)
   05EB 23                 2332 	inc	hl
   05EC 56                 2333 	ld	d,(hl)
   05ED 1A                 2334 	ld	a,(de)
   05EE 2B                 2335 	dec	hl
   05EF 2B                 2336 	dec	hl
                           2337 ;	genOr
                           2338 ;	AOP_STK for _update_swithces_sloc1_1_0
   05F0 77                 2339 	ld      (hl),a
   05F1 7F                 2340 	ld      a,a
   05F2 F6 01              2341 	or	a,#0x01
                           2342 ;	genAssign (pointer)
   05F4 02                 2343 	ld	(bc),a
                           2344 ;	genLabel
   05F5                    2345 00101$:
                           2346 ;	genEndFunction
   05F5 E8 03              2347 	lda	sp,3(sp)
   05F7 C9                 2348 	ret
   05F8                    2349 ___update_swithces_end:
                           2350 ;	main.c 149
                           2351 ;	genLabel
                           2352 ;	genFunction
                           2353 ;	---------------------------------
                           2354 ; Function check_input
                           2355 ; ---------------------------------
   05F8                    2356 ___check_input_start:
   05F8                    2357 _check_input:
   05F8 E8 FA              2358 	lda	sp,-6(sp)
                           2359 ;	main.c 152
                           2360 ;	genCall
                           2361 ; _saveRegsForCall: sendSetSize: 0 deInUse: 0 bcInUse: 0 deSending: 0
   05FA CD 00 00           2362 	call	_joypad
                           2363 ;	main.c 163
                           2364 ;	genCall
                           2365 ; _saveRegsForCall: sendSetSize: 0 deInUse: 0 bcInUse: 0 deSending: 0
   05FD CD 00 00           2366 	call	_joypad
   0600 4B                 2367 	ld	c,e
                           2368 ;	genAnd
   0601 79                 2369 	ld	a,c
   0602 E6 04              2370 	and	a,#0x04
   0604 20 03              2371 	jr	nz,00133$
   0606 C3 15 06           2372 	jp	00104$
   0609                    2373 00133$:
                           2374 ;	main.c 165
                           2375 ;	genPlus
                           2376 ;	genPlusIncr
   0609 01 87 08           2377 	ld	bc,#_player + 1
                           2378 ;	genPointerGet
                           2379 ;	AOP_STK for _check_input_sloc0_1_0
   060C 0A                 2380 	ld	a,(bc)
   060D F8 05              2381 	lda	hl,5(sp)
                           2382 ;	genMinus
                           2383 ;	AOP_STK for _check_input_sloc0_1_0
                           2384 ;	AOP_STK for _check_input_sloc1_1_0
   060F 77                 2385 	ld      (hl),a
                           2386 ; Removed redundent load
   0610 C6 FF              2387 	add	a,#0xFF
   0612 2B                 2388 	dec	hl
                           2389 ;	genAssign (pointer)
                           2390 ;	AOP_STK for _check_input_sloc1_1_0
   0613 77                 2391 	ld      (hl),a
                           2392 ; Removed redundent load
   0614 02                 2393 	ld	(bc),a
                           2394 ;	genLabel
   0615                    2395 00104$:
                           2396 ;	main.c 169
                           2397 ;	genCall
                           2398 ; _saveRegsForCall: sendSetSize: 0 deInUse: 0 bcInUse: 0 deSending: 0
   0615 CD 00 00           2399 	call	_joypad
   0618 4B                 2400 	ld	c,e
                           2401 ;	genAnd
   0619 79                 2402 	ld	a,c
   061A E6 08              2403 	and	a,#0x08
   061C 20 03              2404 	jr	nz,00134$
   061E C3 2B 06           2405 	jp	00106$
   0621                    2406 00134$:
                           2407 ;	main.c 171
                           2408 ;	genPlus
                           2409 ;	genPlusIncr
   0621 01 87 08           2410 	ld	bc,#_player + 1
                           2411 ;	genPointerGet
                           2412 ;	AOP_STK for _check_input_sloc1_1_0
   0624 0A                 2413 	ld	a,(bc)
   0625 F8 04              2414 	lda	hl,4(sp)
                           2415 ;	genPlus
                           2416 ;	AOP_STK for _check_input_sloc1_1_0
                           2417 ;	genPlusIncr
                           2418 ;	Can't optimise plus by inc, falling back to the normal way
   0627 77                 2419 	ld      (hl),a
                           2420 ; Removed redundent load
   0628 C6 01              2421 	add	a,#0x01
                           2422 ;	genAssign (pointer)
   062A 02                 2423 	ld	(bc),a
                           2424 ;	genLabel
   062B                    2425 00106$:
                           2426 ;	main.c 175
                           2427 ;	genCall
                           2428 ; _saveRegsForCall: sendSetSize: 0 deInUse: 0 bcInUse: 0 deSending: 0
   062B CD 00 00           2429 	call	_joypad
   062E 4B                 2430 	ld	c,e
                           2431 ;	genAnd
   062F 79                 2432 	ld	a,c
   0630 E6 02              2433 	and	a,#0x02
   0632 20 03              2434 	jr	nz,00135$
   0634 C3 42 06           2435 	jp	00108$
   0637                    2436 00135$:
                           2437 ;	main.c 177
                           2438 ;	genPointerGet
   0637 11 86 08           2439 	ld	de,#_player
   063A 1A                 2440 	ld	a,(de)
   063B 4F                 2441 	ld	c,a
                           2442 ;	genMinus
   063C 0D                 2443 	dec	c
                           2444 ;	genAssign (pointer)
   063D 11 86 08           2445 	ld	de,#_player
   0640 79                 2446 	ld	a,c
   0641 12                 2447 	ld	(de),a
                           2448 ;	genLabel
   0642                    2449 00108$:
                           2450 ;	main.c 181
                           2451 ;	genCall
                           2452 ; _saveRegsForCall: sendSetSize: 0 deInUse: 0 bcInUse: 0 deSending: 0
   0642 CD 00 00           2453 	call	_joypad
   0645 4B                 2454 	ld	c,e
                           2455 ;	genAnd
   0646 79                 2456 	ld	a,c
   0647 E6 01              2457 	and	a,#0x01
   0649 20 03              2458 	jr	nz,00136$
   064B C3 59 06           2459 	jp	00110$
   064E                    2460 00136$:
                           2461 ;	main.c 183
                           2462 ;	genPointerGet
   064E 11 86 08           2463 	ld	de,#_player
   0651 1A                 2464 	ld	a,(de)
                           2465 ;	genPlus
                           2466 ;	genPlusIncr
                           2467 ;	Can't optimise plus by inc, falling back to the normal way
   0652 4F                 2468 	ld	c,a
   0653 C6 01              2469 	add	a,#0x01
                           2470 ;	genAssign (pointer)
   0655 11 86 08           2471 	ld	de,#_player
   0658 12                 2472 	ld	(de),a
                           2473 ;	genLabel
   0659                    2474 00110$:
                           2475 ;	main.c 190
                           2476 ;	genPlus
                           2477 ;	genPlusIncr
   0659 01 87 08           2478 	ld	bc,#_player + 1
                           2479 ;	genPointerGet
   065C 0A                 2480 	ld	a,(bc)
   065D 4F                 2481 	ld	c,a
                           2482 ;	genPointerGet
   065E 11 86 08           2483 	ld	de,#_player
   0661 1A                 2484 	ld	a,(de)
   0662 47                 2485 	ld	b,a
                           2486 ;	genIpush
                           2487 ; _saveRegsForCall: sendSetSize: 0 deInUse: 0 bcInUse: 0 deSending: 0
   0663 79                 2488 	ld	a,c
   0664 F5                 2489 	push	af
   0665 33                 2490 	inc	sp
                           2491 ;	genIpush
   0666 78                 2492 	ld	a,b
   0667 F5                 2493 	push	af
   0668 33                 2494 	inc	sp
                           2495 ;	genIpush
   0669 3E 00              2496 	ld	a,#0x00
   066B F5                 2497 	push	af
   066C 33                 2498 	inc	sp
                           2499 ;	genCall
   066D CD 00 00           2500 	call	_move_sprite
   0670 E8 03              2501 	lda	sp,3(sp)
                           2502 ;	main.c 195
                           2503 ;	genPlus
                           2504 ;	genPlusIncr
   0672 01 6D 08           2505 	ld	bc,#_enemies + 2
                           2506 ;	genPointerGet
   0675 59                 2507 	ld	e,c
   0676 50                 2508 	ld	d,b
   0677 1A                 2509 	ld	a,(de)
   0678 4F                 2510 	ld	c,a
   0679 13                 2511 	inc	de
   067A 1A                 2512 	ld	a,(de)
   067B 47                 2513 	ld	b,a
                           2514 ;	genCast
                           2515 ; Removed redundent load
                           2516 ;	genPointerGet
                           2517 ;	AOP_STK for _check_input_sloc2_1_0
   067C 11 6B 08           2518 	ld	de,#_enemies
   067F 1A                 2519 	ld	a,(de)
   0680 F8 02              2520 	lda	hl,2(sp)
   0682 77                 2521 	ld	(hl),a
   0683 13                 2522 	inc	de
   0684 1A                 2523 	ld	a,(de)
   0685 23                 2524 	inc	hl
                           2525 ;	genCast
                           2526 ;	AOP_STK for _check_input_sloc2_1_0
   0686 32                 2527 	ld      (hl-),a
   0687 46                 2528 	ld	b,(hl)
                           2529 ;	genIpush
                           2530 ; _saveRegsForCall: sendSetSize: 0 deInUse: 0 bcInUse: 0 deSending: 0
   0688 79                 2531 	ld	a,c
   0689 F5                 2532 	push	af
   068A 33                 2533 	inc	sp
                           2534 ;	genIpush
   068B 78                 2535 	ld	a,b
   068C F5                 2536 	push	af
   068D 33                 2537 	inc	sp
                           2538 ;	genIpush
   068E 3E 01              2539 	ld	a,#0x01
   0690 F5                 2540 	push	af
   0691 33                 2541 	inc	sp
                           2542 ;	genCall
   0692 CD 00 00           2543 	call	_move_sprite
   0695 E8 03              2544 	lda	sp,3(sp)
                           2545 ;	main.c 198
                           2546 ;	genIpush
                           2547 ; _saveRegsForCall: sendSetSize: 0 deInUse: 0 bcInUse: 0 deSending: 0
   0697 21 1E 23           2548 	ld	hl,#0x231E
   069A E5                 2549 	push	hl
                           2550 ;	genIpush
   069B 3E 0E              2551 	ld	a,#0x0E
   069D F5                 2552 	push	af
   069E 33                 2553 	inc	sp
                           2554 ;	genCall
   069F CD 00 00           2555 	call	_move_sprite
   06A2 E8 03              2556 	lda	sp,3(sp)
                           2557 ;	main.c 199
                           2558 ;	genIpush
                           2559 ; _saveRegsForCall: sendSetSize: 0 deInUse: 0 bcInUse: 0 deSending: 0
   06A4 21 28 23           2560 	ld	hl,#0x2328
   06A7 E5                 2561 	push	hl
                           2562 ;	genIpush
   06A8 3E 0F              2563 	ld	a,#0x0F
   06AA F5                 2564 	push	af
   06AB 33                 2565 	inc	sp
                           2566 ;	genCall
   06AC CD 00 00           2567 	call	_move_sprite
   06AF E8 03              2568 	lda	sp,3(sp)
                           2569 ;	main.c 200
                           2570 ;	genIpush
                           2571 ; _saveRegsForCall: sendSetSize: 0 deInUse: 0 bcInUse: 0 deSending: 0
   06B1 21 32 23           2572 	ld	hl,#0x2332
   06B4 E5                 2573 	push	hl
                           2574 ;	genIpush
   06B5 3E 10              2575 	ld	a,#0x10
   06B7 F5                 2576 	push	af
   06B8 33                 2577 	inc	sp
                           2578 ;	genCall
   06B9 CD 00 00           2579 	call	_move_sprite
   06BC E8 03              2580 	lda	sp,3(sp)
                           2581 ;	main.c 201
                           2582 ;	genIpush
                           2583 ; _saveRegsForCall: sendSetSize: 0 deInUse: 0 bcInUse: 0 deSending: 0
   06BE 21 3C 23           2584 	ld	hl,#0x233C
   06C1 E5                 2585 	push	hl
                           2586 ;	genIpush
   06C2 3E 11              2587 	ld	a,#0x11
   06C4 F5                 2588 	push	af
   06C5 33                 2589 	inc	sp
                           2590 ;	genCall
   06C6 CD 00 00           2591 	call	_move_sprite
   06C9 E8 03              2592 	lda	sp,3(sp)
                           2593 ;	main.c 202
                           2594 ;	genIpush
                           2595 ; _saveRegsForCall: sendSetSize: 0 deInUse: 0 bcInUse: 0 deSending: 0
   06CB 21 46 23           2596 	ld	hl,#0x2346
   06CE E5                 2597 	push	hl
                           2598 ;	genIpush
   06CF 3E 12              2599 	ld	a,#0x12
   06D1 F5                 2600 	push	af
   06D2 33                 2601 	inc	sp
                           2602 ;	genCall
   06D3 CD 00 00           2603 	call	_move_sprite
   06D6 E8 03              2604 	lda	sp,3(sp)
                           2605 ;	main.c 203
                           2606 ;	genIpush
                           2607 ; _saveRegsForCall: sendSetSize: 0 deInUse: 0 bcInUse: 0 deSending: 0
   06D8 21 50 23           2608 	ld	hl,#0x2350
   06DB E5                 2609 	push	hl
                           2610 ;	genIpush
   06DC 3E 13              2611 	ld	a,#0x13
   06DE F5                 2612 	push	af
   06DF 33                 2613 	inc	sp
                           2614 ;	genCall
   06E0 CD 00 00           2615 	call	_move_sprite
   06E3 E8 03              2616 	lda	sp,3(sp)
                           2617 ;	main.c 204
                           2618 ;	genIpush
                           2619 ; _saveRegsForCall: sendSetSize: 0 deInUse: 0 bcInUse: 0 deSending: 0
   06E5 21 5A 23           2620 	ld	hl,#0x235A
   06E8 E5                 2621 	push	hl
                           2622 ;	genIpush
   06E9 3E 14              2623 	ld	a,#0x14
   06EB F5                 2624 	push	af
   06EC 33                 2625 	inc	sp
                           2626 ;	genCall
   06ED CD 00 00           2627 	call	_move_sprite
   06F0 E8 03              2628 	lda	sp,3(sp)
                           2629 ;	main.c 205
                           2630 ;	genIpush
                           2631 ; _saveRegsForCall: sendSetSize: 0 deInUse: 0 bcInUse: 0 deSending: 0
   06F2 21 64 23           2632 	ld	hl,#0x2364
   06F5 E5                 2633 	push	hl
                           2634 ;	genIpush
   06F6 3E 15              2635 	ld	a,#0x15
   06F8 F5                 2636 	push	af
   06F9 33                 2637 	inc	sp
                           2638 ;	genCall
   06FA CD 00 00           2639 	call	_move_sprite
   06FD E8 03              2640 	lda	sp,3(sp)
                           2641 ;	main.c 219
                           2642 ;	genAssign
                           2643 ;	AOP_HL for _i
   06FF 21 7D 08           2644 	ld	hl,#_i
   0702 36 00              2645 	ld	(hl),#0x00
   0704 23                 2646 	inc	hl
   0705 36 00              2647 	ld	(hl),#0x00
                           2648 ;	genLabel
   0707                    2649 00114$:
                           2650 ;	genCmpLt
                           2651 ;	AOP_HL for _i
                           2652 ;	AOP_HL for _enemy_count
   0707 21 7E 08           2653 	ld	hl,#_i + 1
   070A 7E                 2654 	ld	a,(hl)
   070B EE 80              2655 	xor	a,#0x80
   070D 5F                 2656 	ld	e,a
   070E 21 6A 08           2657 	ld	hl,#_enemy_count + 1
   0711 7E                 2658 	ld	a,(hl)
   0712 EE 80              2659 	xor	a,#0x80
   0714 57                 2660 	ld	d,a
   0715 21 7D 08           2661 	ld	hl,#_i
   0718 7E                 2662 	ld	a,(hl)
   0719 21 69 08           2663 	ld	hl,#_enemy_count
   071C 96                 2664 	sub	a,(hl)
   071D 7B                 2665 	ld	a,e
   071E 9A                 2666 	sbc	a,d
   071F D2 A8 07           2667 	jp	nc,00117$
                           2668 ;	main.c 222
                           2669 ;	genPlus
                           2670 ;	genPlusIncr
   0722 01 87 08           2671 	ld	bc,#_player + 1
                           2672 ;	main.c 221
                           2673 ;	genLeftShift
                           2674 ;	AOP_HL for _i
                           2675 ;	AOP_STK for _check_input_sloc2_1_0
   0725 21 7D 08           2676 	ld	hl,#_i
   0728 7E                 2677 	ld	a,(hl)
   0729 F8 02              2678 	lda	hl,2(sp)
   072B 77                 2679 	ld	(hl),a
   072C 21 7E 08           2680 	ld	hl,#_i + 1
   072F 7E                 2681 	ld	a,(hl)
   0730 F8 03              2682 	lda	hl,3(sp)
   0732 77                 2683 	ld	(hl),a
   0733 3E 03              2684 	ld	a,#0x02+1
   0735 18 07              2685 	jr	00138$
   0737                    2686 00137$:
   0737 F8 02              2687 	lda	hl,2(sp)
   0739 CB 26              2688 	sla	(hl)
   073B 23                 2689 	inc	hl
   073C CB 16              2690 	rl	(hl)
   073E                    2691 00138$:
   073E 3D                 2692 	dec	a
   073F 20 F6              2693 	jr	nz,00137$
                           2694 ;	genPlus
                           2695 ;	AOP_STK for _check_input_sloc2_1_0
                           2696 ;	AOP_STK for _check_input_sloc3_1_0
                           2697 ;	Can't optimise plus by inc, falling back to the normal way
   0741 11 6B 08           2698 	ld	de,#_enemies
   0744 F8 02              2699 	lda	hl,2(sp)
   0746 2A                 2700 	ld	a,(hl+)
   0747 66                 2701 	ld	h,(hl)
   0748 6F                 2702 	ld	l,a
   0749 19                 2703 	add	hl,de
   074A 7D                 2704 	ld	a,l
   074B 54                 2705 	ld	d,h
   074C F8 00              2706 	lda	hl,0(sp)
   074E 22                 2707 	ld	(hl+),a
   074F 72                 2708 	ld	(hl),d
                           2709 ;	genPlus
                           2710 ;	AOP_STK for _check_input_sloc3_1_0
                           2711 ;	AOP_STK for _check_input_sloc2_1_0
                           2712 ;	genPlusIncr
                           2713 ;	Can't optimise plus by inc, falling back to the normal way
   0750 2B                 2714 	dec	hl
   0751 5E                 2715 	ld	e,(hl)
   0752 23                 2716 	inc	hl
   0753 56                 2717 	ld	d,(hl)
   0754 21 02 00           2718 	ld	hl,#0x0002
   0757 19                 2719 	add	hl,de
   0758 7D                 2720 	ld	a,l
   0759 54                 2721 	ld	d,h
   075A F8 02              2722 	lda	hl,2(sp)
   075C 22                 2723 	ld	(hl+),a
   075D 72                 2724 	ld	(hl),d
                           2725 ;	genIpush
                           2726 ; _saveRegsForCall: sendSetSize: 0 deInUse: 0 bcInUse: 0 deSending: 0
   075E 21 08 08           2727 	ld	hl,#0x0808
   0761 E5                 2728 	push	hl
                           2729 ;	genIpush
   0762 C5                 2730 	push	bc
                           2731 ;	genIpush
   0763 21 86 08           2732 	ld	hl,#_player
   0766 E5                 2733 	push	hl
                           2734 ;	genIpush
   0767 21 08 08           2735 	ld	hl,#0x0808
   076A E5                 2736 	push	hl
                           2737 ;	genIpush
                           2738 ;	AOP_STK for _check_input_sloc2_1_0
   076B F8 0A              2739 	lda	hl,10(sp)
   076D 2A                 2740 	ld	a,(hl+)
   076E 66                 2741 	ld	h,(hl)
   076F 6F                 2742 	ld	l,a
   0770 E5                 2743 	push	hl
                           2744 ;	genIpush
                           2745 ;	AOP_STK for _check_input_sloc3_1_0
   0771 F8 0A              2746 	lda	hl,10(sp)
   0773 2A                 2747 	ld	a,(hl+)
   0774 66                 2748 	ld	h,(hl)
   0775 6F                 2749 	ld	l,a
   0776 E5                 2750 	push	hl
                           2751 ;	genCall
   0777 CD 39 00           2752 	call	_collision_check
   077A 4B                 2753 	ld	c,e
   077B E8 0C              2754 	lda	sp,12(sp)
                           2755 ;	genCmpEq
                           2756 ; genCmpEq: left 1, right 1, result 0
   077D 79                 2757 	ld	a,c
   077E FE 01              2758 	cp	a,#0x01
   0780 C2 94 07           2759 	jp	nz,00112$
   0783 18 03              2760 	jr	00140$
   0785                    2761 00139$:
   0785 C3 94 07           2762 	jp	00112$
   0788                    2763 00140$:
                           2764 ;	main.c 223
                           2765 ;	genIpush
                           2766 ; _saveRegsForCall: sendSetSize: 0 deInUse: 0 bcInUse: 0 deSending: 0
   0788 21 00 01           2767 	ld	hl,#0x0100
   078B E5                 2768 	push	hl
                           2769 ;	genCall
   078C CD 00 00           2770 	call	_set_sprite_tile
   078F E8 02              2771 	lda	sp,2(sp)
                           2772 ;	genGoto
   0791 C3 9D 07           2773 	jp	00116$
                           2774 ;	genLabel
   0794                    2775 00112$:
                           2776 ;	main.c 226
                           2777 ;	genIpush
                           2778 ; _saveRegsForCall: sendSetSize: 0 deInUse: 0 bcInUse: 0 deSending: 0
   0794 21 00 00           2779 	ld	hl,#0x0000
   0797 E5                 2780 	push	hl
                           2781 ;	genCall
   0798 CD 00 00           2782 	call	_set_sprite_tile
   079B E8 02              2783 	lda	sp,2(sp)
                           2784 ;	genLabel
   079D                    2785 00116$:
                           2786 ;	main.c 219
                           2787 ;	genPlus
                           2788 ;	AOP_HL for _i
                           2789 ;	genPlusIncr
   079D 21 7D 08           2790 	ld	hl,#_i
   07A0 34                 2791 	inc	(hl)
   07A1 20 02              2792 	jr	nz,00141$
   07A3 23                 2793 	inc	hl
   07A4 34                 2794 	inc	(hl)
   07A5                    2795 00141$:
                           2796 ;	genGoto
   07A5 C3 07 07           2797 	jp	00114$
                           2798 ;	genLabel
   07A8                    2799 00117$:
                           2800 ;	main.c 230
                           2801 ;	genPlus
                           2802 ;	genPlusIncr
   07A8 01 87 08           2803 	ld	bc,#_player + 1
                           2804 ;	genIpush
                           2805 ; _saveRegsForCall: sendSetSize: 0 deInUse: 0 bcInUse: 0 deSending: 0
   07AB C5                 2806 	push	bc
                           2807 ;	genIpush
   07AC 21 86 08           2808 	ld	hl,#_player
   07AF E5                 2809 	push	hl
                           2810 ;	genCall
   07B0 CD 5E 02           2811 	call	_wall_check
   07B3 E8 04              2812 	lda	sp,4(sp)
                           2813 ;	main.c 231
                           2814 ;	genAssign
                           2815 ;	AOP_HL for _i
   07B5 21 7D 08           2816 	ld	hl,#_i
   07B8 36 00              2817 	ld	(hl),#0x00
   07BA 23                 2818 	inc	hl
   07BB 36 00              2819 	ld	(hl),#0x00
                           2820 ;	genLabel
   07BD                    2821 00118$:
                           2822 ;	genCmpLt
                           2823 ;	AOP_HL for _i
                           2824 ;	AOP_HL for _enemy_count
   07BD 21 7E 08           2825 	ld	hl,#_i + 1
   07C0 7E                 2826 	ld	a,(hl)
   07C1 EE 80              2827 	xor	a,#0x80
   07C3 5F                 2828 	ld	e,a
   07C4 21 6A 08           2829 	ld	hl,#_enemy_count + 1
   07C7 7E                 2830 	ld	a,(hl)
   07C8 EE 80              2831 	xor	a,#0x80
   07CA 57                 2832 	ld	d,a
   07CB 21 7D 08           2833 	ld	hl,#_i
   07CE 7E                 2834 	ld	a,(hl)
   07CF 21 69 08           2835 	ld	hl,#_enemy_count
   07D2 96                 2836 	sub	a,(hl)
   07D3 7B                 2837 	ld	a,e
   07D4 9A                 2838 	sbc	a,d
   07D5 D2 05 08           2839 	jp	nc,00122$
                           2840 ;	main.c 232
                           2841 ;	genLeftShift
                           2842 ;	AOP_HL for _i
   07D8 21 7D 08           2843 	ld	hl,#_i
   07DB 4E                 2844 	ld	c,(hl)
   07DC 23                 2845 	inc	hl
   07DD 46                 2846 	ld	b,(hl)
   07DE 3E 03              2847 	ld	a,#0x02+1
   07E0 18 04              2848 	jr	00143$
   07E2                    2849 00142$:
   07E2 CB 21              2850 	sla	c
   07E4 CB 10              2851 	rl	b
   07E6                    2852 00143$:
   07E6 3D                 2853 	dec	a
   07E7 20 F9              2854 	jr	nz,00142$
                           2855 ;	genPlus
                           2856 ;	Can't optimise plus by inc, falling back to the normal way
   07E9 21 6B 08           2857 	ld	hl,#_enemies
   07EC 09                 2858 	add	hl,bc
   07ED 4D                 2859 	ld	c,l
   07EE 44                 2860 	ld	b,h
                           2861 ;	genPlus
                           2862 ;	genPlusIncr
   07EF 69                 2863 	ld	l,c
   07F0 60                 2864 	ld	h,b
   07F1 23                 2865 	inc	hl
   07F2 23                 2866 	inc	hl
                           2867 ;	genIpush
                           2868 ; _saveRegsForCall: sendSetSize: 0 deInUse: 0 bcInUse: 0 deSending: 0
   07F3 E5                 2869 	push	hl
                           2870 ;	genIpush
   07F4 C5                 2871 	push	bc
                           2872 ;	genCall
   07F5 CD 5E 02           2873 	call	_wall_check
   07F8 E8 04              2874 	lda	sp,4(sp)
                           2875 ;	main.c 231
                           2876 ;	genPlus
                           2877 ;	AOP_HL for _i
                           2878 ;	genPlusIncr
   07FA 21 7D 08           2879 	ld	hl,#_i
   07FD 34                 2880 	inc	(hl)
   07FE 20 02              2881 	jr	nz,00144$
   0800 23                 2882 	inc	hl
   0801 34                 2883 	inc	(hl)
   0802                    2884 00144$:
                           2885 ;	genGoto
   0802 C3 BD 07           2886 	jp	00118$
                           2887 ;	genLabel
   0805                    2888 00122$:
                           2889 ;	genEndFunction
   0805 E8 06              2890 	lda	sp,6(sp)
   0807 C9                 2891 	ret
   0808                    2892 ___check_input_end:
                           2893 ;	main.c 236
                           2894 ;	genLabel
                           2895 ;	genFunction
                           2896 ;	---------------------------------
                           2897 ; Function main
                           2898 ; ---------------------------------
   0808                    2899 ___main_start:
   0808                    2900 _main:
   0808 E8 CF              2901 	lda	sp,-49(sp)
                           2902 ;	main.c 238
                           2903 ;	genCall
                           2904 ; _saveRegsForCall: sendSetSize: 0 deInUse: 0 bcInUse: 0 deSending: 0
   080A CD 1F 04           2905 	call	_init
                           2906 ;	main.c 252
                           2907 ;	genLabel
   080D                    2908 00123$:
                           2909 ;	main.c 254
                           2910 ;	genCall
                           2911 ; _saveRegsForCall: sendSetSize: 0 deInUse: 0 bcInUse: 0 deSending: 0
   080D CD F8 05           2912 	call	_check_input
                           2913 ;	main.c 255
                           2914 ;	genCall
                           2915 ; _saveRegsForCall: sendSetSize: 0 deInUse: 0 bcInUse: 0 deSending: 0
   0810 CD B3 05           2916 	call	_update_swithces
                           2917 ;	main.c 256
                           2918 ;	genCall
                           2919 ; _saveRegsForCall: sendSetSize: 0 deInUse: 0 bcInUse: 0 deSending: 0
   0813 CD 00 00           2920 	call	_wait_vbl_done
                           2921 ;	main.c 259
                           2922 ;	genAssign
                           2923 ;	AOP_HL for _i
   0816 21 7D 08           2924 	ld	hl,#_i
   0819 36 00              2925 	ld	(hl),#0x00
   081B 23                 2926 	inc	hl
   081C 36 00              2927 	ld	(hl),#0x00
                           2928 ;	genLabel
   081E                    2929 00125$:
                           2930 ;	genCmpLt
                           2931 ;	AOP_HL for _i
                           2932 ;	AOP_HL for _enemy_count
                           2933 ;	AOP_STK for _main_sloc34_1_0
   081E 21 7E 08           2934 	ld	hl,#_i + 1
   0821 7E                 2935 	ld	a,(hl)
   0822 EE 80              2936 	xor	a,#0x80
   0824 5F                 2937 	ld	e,a
   0825 21 6A 08           2938 	ld	hl,#_enemy_count + 1
   0828 7E                 2939 	ld	a,(hl)
   0829 EE 80              2940 	xor	a,#0x80
   082B 57                 2941 	ld	d,a
   082C 21 7D 08           2942 	ld	hl,#_i
   082F 7E                 2943 	ld	a,(hl)
   0830 21 69 08           2944 	ld	hl,#_enemy_count
   0833 96                 2945 	sub	a,(hl)
   0834 7B                 2946 	ld	a,e
   0835 9A                 2947 	sbc	a,d
   0836 3E 00              2948 	ld	a,#0x00
   0838 17                 2949 	rla
   0839 F8 00              2950 	lda	hl,0(sp)
   083B 77                 2951 	ld	(hl),a
                           2952 ;	genIfx
                           2953 ;	AOP_STK for _main_sloc34_1_0
   083C AF                 2954 	xor	a,a
   083D B6                 2955 	or	a,(hl)
   083E CA 51 0B           2956 	jp	z,00128$
                           2957 ;	main.c 263
                           2958 ;	genPlus
                           2959 ;	AOP_STK for _main_sloc0_1_0
                           2960 ;	genPlusIncr
                           2961 ;	Can't optimise plus by inc, falling back to the normal way
   0841 11 86 08           2962 	ld	de,#_player
   0844 21 01 00           2963 	ld	hl,#0x0001
   0847 19                 2964 	add	hl,de
   0848 7D                 2965 	ld	a,l
   0849 54                 2966 	ld	d,h
   084A F8 2F              2967 	lda	hl,47(sp)
   084C 22                 2968 	ld	(hl+),a
   084D 72                 2969 	ld	(hl),d
                           2970 ;	main.c 262
                           2971 ;	genLeftShift
                           2972 ;	AOP_HL for _i
                           2973 ;	AOP_STK for _main_sloc1_1_0
   084E 21 7D 08           2974 	ld	hl,#_i
   0851 7E                 2975 	ld	a,(hl)
   0852 F8 2D              2976 	lda	hl,45(sp)
   0854 77                 2977 	ld	(hl),a
   0855 21 7E 08           2978 	ld	hl,#_i + 1
   0858 7E                 2979 	ld	a,(hl)
   0859 F8 2E              2980 	lda	hl,46(sp)
   085B 77                 2981 	ld	(hl),a
   085C 3E 03              2982 	ld	a,#0x02+1
   085E 18 07              2983 	jr	00151$
   0860                    2984 00150$:
   0860 F8 2D              2985 	lda	hl,45(sp)
   0862 CB 26              2986 	sla	(hl)
   0864 23                 2987 	inc	hl
   0865 CB 16              2988 	rl	(hl)
   0867                    2989 00151$:
   0867 3D                 2990 	dec	a
   0868 20 F6              2991 	jr	nz,00150$
                           2992 ;	genPlus
                           2993 ;	AOP_STK for _main_sloc1_1_0
                           2994 ;	AOP_STK for _main_sloc2_1_0
                           2995 ;	Can't optimise plus by inc, falling back to the normal way
   086A 11 6B 08           2996 	ld	de,#_enemies
   086D F8 2D              2997 	lda	hl,45(sp)
   086F 2A                 2998 	ld	a,(hl+)
   0870 66                 2999 	ld	h,(hl)
   0871 6F                 3000 	ld	l,a
   0872 19                 3001 	add	hl,de
   0873 7D                 3002 	ld	a,l
   0874 54                 3003 	ld	d,h
   0875 F8 2B              3004 	lda	hl,43(sp)
   0877 22                 3005 	ld	(hl+),a
   0878 72                 3006 	ld	(hl),d
                           3007 ;	genPlus
                           3008 ;	AOP_STK for _main_sloc2_1_0
                           3009 ;	AOP_STK for _main_sloc3_1_0
                           3010 ;	genPlusIncr
                           3011 ;	Can't optimise plus by inc, falling back to the normal way
   0879 2B                 3012 	dec	hl
   087A 5E                 3013 	ld	e,(hl)
   087B 23                 3014 	inc	hl
   087C 56                 3015 	ld	d,(hl)
   087D 21 02 00           3016 	ld	hl,#0x0002
   0880 19                 3017 	add	hl,de
   0881 7D                 3018 	ld	a,l
   0882 54                 3019 	ld	d,h
   0883 F8 29              3020 	lda	hl,41(sp)
   0885 22                 3021 	ld	(hl+),a
   0886 72                 3022 	ld	(hl),d
                           3023 ;	genIpush
                           3024 ; _saveRegsForCall: sendSetSize: 0 deInUse: 0 bcInUse: 0 deSending: 0
   0887 21 85 08           3025 	ld	hl,#_lives
   088A E5                 3026 	push	hl
                           3027 ;	genIpush
                           3028 ;	AOP_STK for _main_sloc0_1_0
   088B F8 31              3029 	lda	hl,49(sp)
   088D 2A                 3030 	ld	a,(hl+)
   088E 66                 3031 	ld	h,(hl)
   088F 6F                 3032 	ld	l,a
   0890 E5                 3033 	push	hl
                           3034 ;	genIpush
   0891 21 86 08           3035 	ld	hl,#_player
   0894 E5                 3036 	push	hl
                           3037 ;	genIpush
                           3038 ;	AOP_STK for _main_sloc3_1_0
   0895 F8 2F              3039 	lda	hl,47(sp)
   0897 2A                 3040 	ld	a,(hl+)
   0898 66                 3041 	ld	h,(hl)
   0899 6F                 3042 	ld	l,a
   089A E5                 3043 	push	hl
                           3044 ;	genIpush
                           3045 ;	AOP_STK for _main_sloc2_1_0
   089B F8 33              3046 	lda	hl,51(sp)
   089D 2A                 3047 	ld	a,(hl+)
   089E 66                 3048 	ld	h,(hl)
   089F 6F                 3049 	ld	l,a
   08A0 E5                 3050 	push	hl
                           3051 ;	genCall
   08A1 CD BA 00           3052 	call	_score
                           3053 ;	AOP_STK for _main_sloc33_1_0
   08A4 F8 0B              3054 	lda	hl,11(sp)
   08A6 73                 3055 	ld	(hl),e
   08A7 E8 0A              3056 	lda	sp,10(sp)
                           3057 ;	genCmpLt
                           3058 ;	AOP_STK for _main_sloc33_1_0
                           3059 ;	AOP_STK for _main_sloc4_1_0
   08A9 F8 01              3060 	lda	hl,1(sp)
   08AB 7E                 3061 	ld	a,(hl)
   08AC FE 50              3062 	cp	#0x50
   08AE 3E 00              3063 	ld	a,#0x00
   08B0 17                 3064 	rla
   08B1 F8 28              3065 	lda	hl,40(sp)
   08B3 77                 3066 	ld	(hl),a
                           3067 ;	genIfx
                           3068 ;	AOP_STK for _main_sloc4_1_0
   08B4 AF                 3069 	xor	a,a
   08B5 B6                 3070 	or	a,(hl)
   08B6 CA C2 08           3071 	jp	z,00102$
                           3072 ;	main.c 264
                           3073 ;	genIpush
                           3074 ; _saveRegsForCall: sendSetSize: 0 deInUse: 0 bcInUse: 0 deSending: 0
   08B9 21 15 13           3075 	ld	hl,#0x1315
   08BC E5                 3076 	push	hl
                           3077 ;	genCall
   08BD CD 00 00           3078 	call	_set_sprite_tile
   08C0 E8 02              3079 	lda	sp,2(sp)
                           3080 ;	genLabel
   08C2                    3081 00102$:
                           3082 ;	main.c 267
                           3083 ;	genPlus
                           3084 ;	AOP_STK for _main_sloc5_1_0
                           3085 ;	genPlusIncr
                           3086 ;	Can't optimise plus by inc, falling back to the normal way
   08C2 11 86 08           3087 	ld	de,#_player
   08C5 21 01 00           3088 	ld	hl,#0x0001
   08C8 19                 3089 	add	hl,de
   08C9 7D                 3090 	ld	a,l
   08CA 54                 3091 	ld	d,h
   08CB F8 26              3092 	lda	hl,38(sp)
   08CD 22                 3093 	ld	(hl+),a
   08CE 72                 3094 	ld	(hl),d
                           3095 ;	main.c 266
                           3096 ;	genIpush
                           3097 ; _saveRegsForCall: sendSetSize: 0 deInUse: 0 bcInUse: 0 deSending: 0
   08CF 21 85 08           3098 	ld	hl,#_lives
   08D2 E5                 3099 	push	hl
                           3100 ;	genIpush
                           3101 ;	AOP_STK for _main_sloc5_1_0
   08D3 F8 28              3102 	lda	hl,40(sp)
   08D5 2A                 3103 	ld	a,(hl+)
   08D6 66                 3104 	ld	h,(hl)
   08D7 6F                 3105 	ld	l,a
   08D8 E5                 3106 	push	hl
                           3107 ;	genIpush
   08D9 21 86 08           3108 	ld	hl,#_player
   08DC E5                 3109 	push	hl
                           3110 ;	genIpush
                           3111 ;	AOP_STK for _main_sloc3_1_0
   08DD F8 2F              3112 	lda	hl,47(sp)
   08DF 2A                 3113 	ld	a,(hl+)
   08E0 66                 3114 	ld	h,(hl)
   08E1 6F                 3115 	ld	l,a
   08E2 E5                 3116 	push	hl
                           3117 ;	genIpush
                           3118 ;	AOP_STK for _main_sloc2_1_0
   08E3 F8 33              3119 	lda	hl,51(sp)
   08E5 2A                 3120 	ld	a,(hl+)
   08E6 66                 3121 	ld	h,(hl)
   08E7 6F                 3122 	ld	l,a
   08E8 E5                 3123 	push	hl
                           3124 ;	genCall
   08E9 CD BA 00           3125 	call	_score
                           3126 ;	AOP_STK for _main_sloc6_1_0
   08EC F8 2F              3127 	lda	hl,47(sp)
   08EE 73                 3128 	ld	(hl),e
   08EF E8 0A              3129 	lda	sp,10(sp)
                           3130 ;	genCmpLt
                           3131 ;	AOP_STK for _main_sloc6_1_0
                           3132 ;	AOP_STK for _main_sloc7_1_0
   08F1 F8 25              3133 	lda	hl,37(sp)
   08F3 7E                 3134 	ld	a,(hl)
   08F4 FE 46              3135 	cp	#0x46
   08F6 3E 00              3136 	ld	a,#0x00
   08F8 17                 3137 	rla
   08F9 2B                 3138 	dec	hl
   08FA 77                 3139 	ld	(hl),a
                           3140 ;	genIfx
                           3141 ;	AOP_STK for _main_sloc7_1_0
   08FB AF                 3142 	xor	a,a
   08FC B6                 3143 	or	a,(hl)
   08FD CA 09 09           3144 	jp	z,00104$
                           3145 ;	main.c 268
                           3146 ;	genIpush
                           3147 ; _saveRegsForCall: sendSetSize: 0 deInUse: 0 bcInUse: 0 deSending: 0
   0900 21 14 13           3148 	ld	hl,#0x1314
   0903 E5                 3149 	push	hl
                           3150 ;	genCall
   0904 CD 00 00           3151 	call	_set_sprite_tile
   0907 E8 02              3152 	lda	sp,2(sp)
                           3153 ;	genLabel
   0909                    3154 00104$:
                           3155 ;	main.c 271
                           3156 ;	genPlus
                           3157 ;	AOP_STK for _main_sloc8_1_0
                           3158 ;	genPlusIncr
                           3159 ;	Can't optimise plus by inc, falling back to the normal way
   0909 11 86 08           3160 	ld	de,#_player
   090C 21 01 00           3161 	ld	hl,#0x0001
   090F 19                 3162 	add	hl,de
   0910 7D                 3163 	ld	a,l
   0911 54                 3164 	ld	d,h
   0912 F8 22              3165 	lda	hl,34(sp)
   0914 22                 3166 	ld	(hl+),a
   0915 72                 3167 	ld	(hl),d
                           3168 ;	main.c 270
                           3169 ;	genIpush
                           3170 ; _saveRegsForCall: sendSetSize: 0 deInUse: 0 bcInUse: 0 deSending: 0
   0916 21 85 08           3171 	ld	hl,#_lives
   0919 E5                 3172 	push	hl
                           3173 ;	genIpush
                           3174 ;	AOP_STK for _main_sloc8_1_0
   091A F8 24              3175 	lda	hl,36(sp)
   091C 2A                 3176 	ld	a,(hl+)
   091D 66                 3177 	ld	h,(hl)
   091E 6F                 3178 	ld	l,a
   091F E5                 3179 	push	hl
                           3180 ;	genIpush
   0920 21 86 08           3181 	ld	hl,#_player
   0923 E5                 3182 	push	hl
                           3183 ;	genIpush
                           3184 ;	AOP_STK for _main_sloc3_1_0
   0924 F8 2F              3185 	lda	hl,47(sp)
   0926 2A                 3186 	ld	a,(hl+)
   0927 66                 3187 	ld	h,(hl)
   0928 6F                 3188 	ld	l,a
   0929 E5                 3189 	push	hl
                           3190 ;	genIpush
                           3191 ;	AOP_STK for _main_sloc2_1_0
   092A F8 33              3192 	lda	hl,51(sp)
   092C 2A                 3193 	ld	a,(hl+)
   092D 66                 3194 	ld	h,(hl)
   092E 6F                 3195 	ld	l,a
   092F E5                 3196 	push	hl
                           3197 ;	genCall
   0930 CD BA 00           3198 	call	_score
                           3199 ;	AOP_STK for _main_sloc9_1_0
   0933 F8 2B              3200 	lda	hl,43(sp)
   0935 73                 3201 	ld	(hl),e
   0936 E8 0A              3202 	lda	sp,10(sp)
                           3203 ;	genCmpLt
                           3204 ;	AOP_STK for _main_sloc9_1_0
                           3205 ;	AOP_STK for _main_sloc10_1_0
   0938 F8 21              3206 	lda	hl,33(sp)
   093A 7E                 3207 	ld	a,(hl)
   093B FE 3C              3208 	cp	#0x3C
   093D 3E 00              3209 	ld	a,#0x00
   093F 17                 3210 	rla
   0940 2B                 3211 	dec	hl
   0941 77                 3212 	ld	(hl),a
                           3213 ;	genIfx
                           3214 ;	AOP_STK for _main_sloc10_1_0
   0942 AF                 3215 	xor	a,a
   0943 B6                 3216 	or	a,(hl)
   0944 CA 50 09           3217 	jp	z,00106$
                           3218 ;	main.c 272
                           3219 ;	genIpush
                           3220 ; _saveRegsForCall: sendSetSize: 0 deInUse: 0 bcInUse: 0 deSending: 0
   0947 21 13 13           3221 	ld	hl,#0x1313
   094A E5                 3222 	push	hl
                           3223 ;	genCall
   094B CD 00 00           3224 	call	_set_sprite_tile
   094E E8 02              3225 	lda	sp,2(sp)
                           3226 ;	genLabel
   0950                    3227 00106$:
                           3228 ;	main.c 275
                           3229 ;	genPlus
                           3230 ;	AOP_STK for _main_sloc11_1_0
                           3231 ;	genPlusIncr
                           3232 ;	Can't optimise plus by inc, falling back to the normal way
   0950 11 86 08           3233 	ld	de,#_player
   0953 21 01 00           3234 	ld	hl,#0x0001
   0956 19                 3235 	add	hl,de
   0957 7D                 3236 	ld	a,l
   0958 54                 3237 	ld	d,h
   0959 F8 1E              3238 	lda	hl,30(sp)
   095B 22                 3239 	ld	(hl+),a
   095C 72                 3240 	ld	(hl),d
                           3241 ;	main.c 274
                           3242 ;	genIpush
                           3243 ; _saveRegsForCall: sendSetSize: 0 deInUse: 0 bcInUse: 0 deSending: 0
   095D 21 85 08           3244 	ld	hl,#_lives
   0960 E5                 3245 	push	hl
                           3246 ;	genIpush
                           3247 ;	AOP_STK for _main_sloc11_1_0
   0961 F8 20              3248 	lda	hl,32(sp)
   0963 2A                 3249 	ld	a,(hl+)
   0964 66                 3250 	ld	h,(hl)
   0965 6F                 3251 	ld	l,a
   0966 E5                 3252 	push	hl
                           3253 ;	genIpush
   0967 21 86 08           3254 	ld	hl,#_player
   096A E5                 3255 	push	hl
                           3256 ;	genIpush
                           3257 ;	AOP_STK for _main_sloc3_1_0
   096B F8 2F              3258 	lda	hl,47(sp)
   096D 2A                 3259 	ld	a,(hl+)
   096E 66                 3260 	ld	h,(hl)
   096F 6F                 3261 	ld	l,a
   0970 E5                 3262 	push	hl
                           3263 ;	genIpush
                           3264 ;	AOP_STK for _main_sloc2_1_0
   0971 F8 33              3265 	lda	hl,51(sp)
   0973 2A                 3266 	ld	a,(hl+)
   0974 66                 3267 	ld	h,(hl)
   0975 6F                 3268 	ld	l,a
   0976 E5                 3269 	push	hl
                           3270 ;	genCall
   0977 CD BA 00           3271 	call	_score
                           3272 ;	AOP_STK for _main_sloc12_1_0
   097A F8 27              3273 	lda	hl,39(sp)
   097C 73                 3274 	ld	(hl),e
   097D E8 0A              3275 	lda	sp,10(sp)
                           3276 ;	genCmpLt
                           3277 ;	AOP_STK for _main_sloc12_1_0
                           3278 ;	AOP_STK for _main_sloc13_1_0
   097F F8 1D              3279 	lda	hl,29(sp)
   0981 7E                 3280 	ld	a,(hl)
   0982 FE 32              3281 	cp	#0x32
   0984 3E 00              3282 	ld	a,#0x00
   0986 17                 3283 	rla
   0987 2B                 3284 	dec	hl
   0988 77                 3285 	ld	(hl),a
                           3286 ;	genIfx
                           3287 ;	AOP_STK for _main_sloc13_1_0
   0989 AF                 3288 	xor	a,a
   098A B6                 3289 	or	a,(hl)
   098B CA 97 09           3290 	jp	z,00108$
                           3291 ;	main.c 276
                           3292 ;	genIpush
                           3293 ; _saveRegsForCall: sendSetSize: 0 deInUse: 0 bcInUse: 0 deSending: 0
   098E 21 12 13           3294 	ld	hl,#0x1312
   0991 E5                 3295 	push	hl
                           3296 ;	genCall
   0992 CD 00 00           3297 	call	_set_sprite_tile
   0995 E8 02              3298 	lda	sp,2(sp)
                           3299 ;	genLabel
   0997                    3300 00108$:
                           3301 ;	main.c 279
                           3302 ;	genPlus
                           3303 ;	AOP_STK for _main_sloc14_1_0
                           3304 ;	genPlusIncr
                           3305 ;	Can't optimise plus by inc, falling back to the normal way
   0997 11 86 08           3306 	ld	de,#_player
   099A 21 01 00           3307 	ld	hl,#0x0001
   099D 19                 3308 	add	hl,de
   099E 7D                 3309 	ld	a,l
   099F 54                 3310 	ld	d,h
   09A0 F8 1A              3311 	lda	hl,26(sp)
   09A2 22                 3312 	ld	(hl+),a
   09A3 72                 3313 	ld	(hl),d
                           3314 ;	main.c 278
                           3315 ;	genIpush
                           3316 ; _saveRegsForCall: sendSetSize: 0 deInUse: 0 bcInUse: 0 deSending: 0
   09A4 21 85 08           3317 	ld	hl,#_lives
   09A7 E5                 3318 	push	hl
                           3319 ;	genIpush
                           3320 ;	AOP_STK for _main_sloc14_1_0
   09A8 F8 1C              3321 	lda	hl,28(sp)
   09AA 2A                 3322 	ld	a,(hl+)
   09AB 66                 3323 	ld	h,(hl)
   09AC 6F                 3324 	ld	l,a
   09AD E5                 3325 	push	hl
                           3326 ;	genIpush
   09AE 21 86 08           3327 	ld	hl,#_player
   09B1 E5                 3328 	push	hl
                           3329 ;	genIpush
                           3330 ;	AOP_STK for _main_sloc3_1_0
   09B2 F8 2F              3331 	lda	hl,47(sp)
   09B4 2A                 3332 	ld	a,(hl+)
   09B5 66                 3333 	ld	h,(hl)
   09B6 6F                 3334 	ld	l,a
   09B7 E5                 3335 	push	hl
                           3336 ;	genIpush
                           3337 ;	AOP_STK for _main_sloc2_1_0
   09B8 F8 33              3338 	lda	hl,51(sp)
   09BA 2A                 3339 	ld	a,(hl+)
   09BB 66                 3340 	ld	h,(hl)
   09BC 6F                 3341 	ld	l,a
   09BD E5                 3342 	push	hl
                           3343 ;	genCall
   09BE CD BA 00           3344 	call	_score
                           3345 ;	AOP_STK for _main_sloc15_1_0
   09C1 F8 23              3346 	lda	hl,35(sp)
   09C3 73                 3347 	ld	(hl),e
   09C4 E8 0A              3348 	lda	sp,10(sp)
                           3349 ;	genCmpLt
                           3350 ;	AOP_STK for _main_sloc15_1_0
                           3351 ;	AOP_STK for _main_sloc16_1_0
   09C6 F8 19              3352 	lda	hl,25(sp)
   09C8 7E                 3353 	ld	a,(hl)
   09C9 FE 28              3354 	cp	#0x28
   09CB 3E 00              3355 	ld	a,#0x00
   09CD 17                 3356 	rla
   09CE 2B                 3357 	dec	hl
   09CF 77                 3358 	ld	(hl),a
                           3359 ;	genIfx
                           3360 ;	AOP_STK for _main_sloc16_1_0
   09D0 AF                 3361 	xor	a,a
   09D1 B6                 3362 	or	a,(hl)
   09D2 CA DE 09           3363 	jp	z,00110$
                           3364 ;	main.c 280
                           3365 ;	genIpush
                           3366 ; _saveRegsForCall: sendSetSize: 0 deInUse: 0 bcInUse: 0 deSending: 0
   09D5 21 11 13           3367 	ld	hl,#0x1311
   09D8 E5                 3368 	push	hl
                           3369 ;	genCall
   09D9 CD 00 00           3370 	call	_set_sprite_tile
   09DC E8 02              3371 	lda	sp,2(sp)
                           3372 ;	genLabel
   09DE                    3373 00110$:
                           3374 ;	main.c 283
                           3375 ;	genPlus
                           3376 ;	AOP_STK for _main_sloc17_1_0
                           3377 ;	genPlusIncr
                           3378 ;	Can't optimise plus by inc, falling back to the normal way
   09DE 11 86 08           3379 	ld	de,#_player
   09E1 21 01 00           3380 	ld	hl,#0x0001
   09E4 19                 3381 	add	hl,de
   09E5 7D                 3382 	ld	a,l
   09E6 54                 3383 	ld	d,h
   09E7 F8 16              3384 	lda	hl,22(sp)
   09E9 22                 3385 	ld	(hl+),a
   09EA 72                 3386 	ld	(hl),d
                           3387 ;	main.c 282
                           3388 ;	genIpush
                           3389 ; _saveRegsForCall: sendSetSize: 0 deInUse: 0 bcInUse: 0 deSending: 0
   09EB 21 85 08           3390 	ld	hl,#_lives
   09EE E5                 3391 	push	hl
                           3392 ;	genIpush
                           3393 ;	AOP_STK for _main_sloc17_1_0
   09EF F8 18              3394 	lda	hl,24(sp)
   09F1 2A                 3395 	ld	a,(hl+)
   09F2 66                 3396 	ld	h,(hl)
   09F3 6F                 3397 	ld	l,a
   09F4 E5                 3398 	push	hl
                           3399 ;	genIpush
   09F5 21 86 08           3400 	ld	hl,#_player
   09F8 E5                 3401 	push	hl
                           3402 ;	genIpush
                           3403 ;	AOP_STK for _main_sloc3_1_0
   09F9 F8 2F              3404 	lda	hl,47(sp)
   09FB 2A                 3405 	ld	a,(hl+)
   09FC 66                 3406 	ld	h,(hl)
   09FD 6F                 3407 	ld	l,a
   09FE E5                 3408 	push	hl
                           3409 ;	genIpush
                           3410 ;	AOP_STK for _main_sloc2_1_0
   09FF F8 33              3411 	lda	hl,51(sp)
   0A01 2A                 3412 	ld	a,(hl+)
   0A02 66                 3413 	ld	h,(hl)
   0A03 6F                 3414 	ld	l,a
   0A04 E5                 3415 	push	hl
                           3416 ;	genCall
   0A05 CD BA 00           3417 	call	_score
                           3418 ;	AOP_STK for _main_sloc18_1_0
   0A08 F8 1F              3419 	lda	hl,31(sp)
   0A0A 73                 3420 	ld	(hl),e
   0A0B E8 0A              3421 	lda	sp,10(sp)
                           3422 ;	genCmpLt
                           3423 ;	AOP_STK for _main_sloc18_1_0
                           3424 ;	AOP_STK for _main_sloc19_1_0
   0A0D F8 15              3425 	lda	hl,21(sp)
   0A0F 7E                 3426 	ld	a,(hl)
   0A10 FE 1E              3427 	cp	#0x1E
   0A12 3E 00              3428 	ld	a,#0x00
   0A14 17                 3429 	rla
   0A15 2B                 3430 	dec	hl
   0A16 77                 3431 	ld	(hl),a
                           3432 ;	genIfx
                           3433 ;	AOP_STK for _main_sloc19_1_0
   0A17 AF                 3434 	xor	a,a
   0A18 B6                 3435 	or	a,(hl)
   0A19 CA 25 0A           3436 	jp	z,00112$
                           3437 ;	main.c 284
                           3438 ;	genIpush
                           3439 ; _saveRegsForCall: sendSetSize: 0 deInUse: 0 bcInUse: 0 deSending: 0
   0A1C 21 10 13           3440 	ld	hl,#0x1310
   0A1F E5                 3441 	push	hl
                           3442 ;	genCall
   0A20 CD 00 00           3443 	call	_set_sprite_tile
   0A23 E8 02              3444 	lda	sp,2(sp)
                           3445 ;	genLabel
   0A25                    3446 00112$:
                           3447 ;	main.c 287
                           3448 ;	genPlus
                           3449 ;	AOP_STK for _main_sloc20_1_0
                           3450 ;	genPlusIncr
                           3451 ;	Can't optimise plus by inc, falling back to the normal way
   0A25 11 86 08           3452 	ld	de,#_player
   0A28 21 01 00           3453 	ld	hl,#0x0001
   0A2B 19                 3454 	add	hl,de
   0A2C 7D                 3455 	ld	a,l
   0A2D 54                 3456 	ld	d,h
   0A2E F8 12              3457 	lda	hl,18(sp)
   0A30 22                 3458 	ld	(hl+),a
   0A31 72                 3459 	ld	(hl),d
                           3460 ;	main.c 286
                           3461 ;	genIpush
                           3462 ; _saveRegsForCall: sendSetSize: 0 deInUse: 0 bcInUse: 0 deSending: 0
   0A32 21 85 08           3463 	ld	hl,#_lives
   0A35 E5                 3464 	push	hl
                           3465 ;	genIpush
                           3466 ;	AOP_STK for _main_sloc20_1_0
   0A36 F8 14              3467 	lda	hl,20(sp)
   0A38 2A                 3468 	ld	a,(hl+)
   0A39 66                 3469 	ld	h,(hl)
   0A3A 6F                 3470 	ld	l,a
   0A3B E5                 3471 	push	hl
                           3472 ;	genIpush
   0A3C 21 86 08           3473 	ld	hl,#_player
   0A3F E5                 3474 	push	hl
                           3475 ;	genIpush
                           3476 ;	AOP_STK for _main_sloc3_1_0
   0A40 F8 2F              3477 	lda	hl,47(sp)
   0A42 2A                 3478 	ld	a,(hl+)
   0A43 66                 3479 	ld	h,(hl)
   0A44 6F                 3480 	ld	l,a
   0A45 E5                 3481 	push	hl
                           3482 ;	genIpush
                           3483 ;	AOP_STK for _main_sloc2_1_0
   0A46 F8 33              3484 	lda	hl,51(sp)
   0A48 2A                 3485 	ld	a,(hl+)
   0A49 66                 3486 	ld	h,(hl)
   0A4A 6F                 3487 	ld	l,a
   0A4B E5                 3488 	push	hl
                           3489 ;	genCall
   0A4C CD BA 00           3490 	call	_score
                           3491 ;	AOP_STK for _main_sloc21_1_0
   0A4F F8 1B              3492 	lda	hl,27(sp)
   0A51 73                 3493 	ld	(hl),e
   0A52 E8 0A              3494 	lda	sp,10(sp)
                           3495 ;	genCmpLt
                           3496 ;	AOP_STK for _main_sloc21_1_0
                           3497 ;	AOP_STK for _main_sloc22_1_0
   0A54 F8 11              3498 	lda	hl,17(sp)
   0A56 7E                 3499 	ld	a,(hl)
   0A57 FE 14              3500 	cp	#0x14
   0A59 3E 00              3501 	ld	a,#0x00
   0A5B 17                 3502 	rla
   0A5C 2B                 3503 	dec	hl
   0A5D 77                 3504 	ld	(hl),a
                           3505 ;	genIfx
                           3506 ;	AOP_STK for _main_sloc22_1_0
   0A5E AF                 3507 	xor	a,a
   0A5F B6                 3508 	or	a,(hl)
   0A60 CA 6C 0A           3509 	jp	z,00114$
                           3510 ;	main.c 288
                           3511 ;	genIpush
                           3512 ; _saveRegsForCall: sendSetSize: 0 deInUse: 0 bcInUse: 0 deSending: 0
   0A63 21 0F 13           3513 	ld	hl,#0x130F
   0A66 E5                 3514 	push	hl
                           3515 ;	genCall
   0A67 CD 00 00           3516 	call	_set_sprite_tile
   0A6A E8 02              3517 	lda	sp,2(sp)
                           3518 ;	genLabel
   0A6C                    3519 00114$:
                           3520 ;	main.c 291
                           3521 ;	genPlus
                           3522 ;	AOP_STK for _main_sloc23_1_0
                           3523 ;	genPlusIncr
                           3524 ;	Can't optimise plus by inc, falling back to the normal way
   0A6C 11 86 08           3525 	ld	de,#_player
   0A6F 21 01 00           3526 	ld	hl,#0x0001
   0A72 19                 3527 	add	hl,de
   0A73 7D                 3528 	ld	a,l
   0A74 54                 3529 	ld	d,h
   0A75 F8 0E              3530 	lda	hl,14(sp)
   0A77 22                 3531 	ld	(hl+),a
   0A78 72                 3532 	ld	(hl),d
                           3533 ;	main.c 290
                           3534 ;	genIpush
                           3535 ; _saveRegsForCall: sendSetSize: 0 deInUse: 0 bcInUse: 0 deSending: 0
   0A79 21 85 08           3536 	ld	hl,#_lives
   0A7C E5                 3537 	push	hl
                           3538 ;	genIpush
                           3539 ;	AOP_STK for _main_sloc23_1_0
   0A7D F8 10              3540 	lda	hl,16(sp)
   0A7F 2A                 3541 	ld	a,(hl+)
   0A80 66                 3542 	ld	h,(hl)
   0A81 6F                 3543 	ld	l,a
   0A82 E5                 3544 	push	hl
                           3545 ;	genIpush
   0A83 21 86 08           3546 	ld	hl,#_player
   0A86 E5                 3547 	push	hl
                           3548 ;	genIpush
                           3549 ;	AOP_STK for _main_sloc3_1_0
   0A87 F8 2F              3550 	lda	hl,47(sp)
   0A89 2A                 3551 	ld	a,(hl+)
   0A8A 66                 3552 	ld	h,(hl)
   0A8B 6F                 3553 	ld	l,a
   0A8C E5                 3554 	push	hl
                           3555 ;	genIpush
                           3556 ;	AOP_STK for _main_sloc2_1_0
   0A8D F8 33              3557 	lda	hl,51(sp)
   0A8F 2A                 3558 	ld	a,(hl+)
   0A90 66                 3559 	ld	h,(hl)
   0A91 6F                 3560 	ld	l,a
   0A92 E5                 3561 	push	hl
                           3562 ;	genCall
   0A93 CD BA 00           3563 	call	_score
                           3564 ;	AOP_STK for _main_sloc24_1_0
   0A96 F8 17              3565 	lda	hl,23(sp)
   0A98 73                 3566 	ld	(hl),e
   0A99 E8 0A              3567 	lda	sp,10(sp)
                           3568 ;	genCmpLt
                           3569 ;	AOP_STK for _main_sloc24_1_0
                           3570 ;	AOP_STK for _main_sloc25_1_0
   0A9B F8 0D              3571 	lda	hl,13(sp)
   0A9D 7E                 3572 	ld	a,(hl)
   0A9E FE 0A              3573 	cp	#0x0A
   0AA0 3E 00              3574 	ld	a,#0x00
   0AA2 17                 3575 	rla
   0AA3 2B                 3576 	dec	hl
   0AA4 77                 3577 	ld	(hl),a
                           3578 ;	genIfx
                           3579 ;	AOP_STK for _main_sloc25_1_0
   0AA5 AF                 3580 	xor	a,a
   0AA6 B6                 3581 	or	a,(hl)
   0AA7 CA B3 0A           3582 	jp	z,00116$
                           3583 ;	main.c 292
                           3584 ;	genIpush
                           3585 ; _saveRegsForCall: sendSetSize: 0 deInUse: 0 bcInUse: 0 deSending: 0
   0AAA 21 0E 13           3586 	ld	hl,#0x130E
   0AAD E5                 3587 	push	hl
                           3588 ;	genCall
   0AAE CD 00 00           3589 	call	_set_sprite_tile
   0AB1 E8 02              3590 	lda	sp,2(sp)
                           3591 ;	genLabel
   0AB3                    3592 00116$:
                           3593 ;	main.c 297
                           3594 ;	genPlus
                           3595 ;	AOP_STK for _main_sloc26_1_0
                           3596 ;	genPlusIncr
                           3597 ;	Can't optimise plus by inc, falling back to the normal way
   0AB3 11 86 08           3598 	ld	de,#_player
   0AB6 21 01 00           3599 	ld	hl,#0x0001
   0AB9 19                 3600 	add	hl,de
   0ABA 7D                 3601 	ld	a,l
   0ABB 54                 3602 	ld	d,h
   0ABC F8 0A              3603 	lda	hl,10(sp)
   0ABE 22                 3604 	ld	(hl+),a
   0ABF 72                 3605 	ld	(hl),d
                           3606 ;	main.c 296
                           3607 ;	genIpush
                           3608 ; _saveRegsForCall: sendSetSize: 0 deInUse: 0 bcInUse: 0 deSending: 0
   0AC0 21 85 08           3609 	ld	hl,#_lives
   0AC3 E5                 3610 	push	hl
                           3611 ;	genIpush
                           3612 ;	AOP_STK for _main_sloc26_1_0
   0AC4 F8 0C              3613 	lda	hl,12(sp)
   0AC6 2A                 3614 	ld	a,(hl+)
   0AC7 66                 3615 	ld	h,(hl)
   0AC8 6F                 3616 	ld	l,a
   0AC9 E5                 3617 	push	hl
                           3618 ;	genIpush
   0ACA 21 86 08           3619 	ld	hl,#_player
   0ACD E5                 3620 	push	hl
                           3621 ;	genIpush
                           3622 ;	AOP_STK for _main_sloc3_1_0
   0ACE F8 2F              3623 	lda	hl,47(sp)
   0AD0 2A                 3624 	ld	a,(hl+)
   0AD1 66                 3625 	ld	h,(hl)
   0AD2 6F                 3626 	ld	l,a
   0AD3 E5                 3627 	push	hl
                           3628 ;	genIpush
                           3629 ;	AOP_STK for _main_sloc2_1_0
   0AD4 F8 33              3630 	lda	hl,51(sp)
   0AD6 2A                 3631 	ld	a,(hl+)
   0AD7 66                 3632 	ld	h,(hl)
   0AD8 6F                 3633 	ld	l,a
   0AD9 E5                 3634 	push	hl
                           3635 ;	genCall
   0ADA CD BA 00           3636 	call	_score
                           3637 ;	AOP_STK for _main_sloc27_1_0
   0ADD F8 13              3638 	lda	hl,19(sp)
   0ADF 73                 3639 	ld	(hl),e
   0AE0 E8 0A              3640 	lda	sp,10(sp)
                           3641 ;	genCmpGt
                           3642 ;	AOP_STK for _main_sloc27_1_0
                           3643 ;	AOP_STK for _main_sloc28_1_0
   0AE2 3E 00              3644 	ld	a,#0x00
   0AE4 F8 09              3645 	lda	hl,9(sp)
   0AE6 96                 3646 	sub	a,(hl)
   0AE7 3E 00              3647 	ld	a,#0x00
   0AE9 17                 3648 	rla
   0AEA 2B                 3649 	dec	hl
   0AEB 77                 3650 	ld	(hl),a
                           3651 ;	genIfx
                           3652 ;	AOP_STK for _main_sloc28_1_0
   0AEC AF                 3653 	xor	a,a
   0AED B6                 3654 	or	a,(hl)
   0AEE CA 2F 0B           3655 	jp	z,00117$
                           3656 ;	main.c 298
                           3657 ;	genPlus
                           3658 ;	AOP_STK for _main_sloc29_1_0
                           3659 ;	genPlusIncr
                           3660 ;	Can't optimise plus by inc, falling back to the normal way
   0AF1 11 86 08           3661 	ld	de,#_player
   0AF4 21 01 00           3662 	ld	hl,#0x0001
   0AF7 19                 3663 	add	hl,de
   0AF8 7D                 3664 	ld	a,l
   0AF9 54                 3665 	ld	d,h
   0AFA F8 06              3666 	lda	hl,6(sp)
   0AFC 22                 3667 	ld	(hl+),a
   0AFD 72                 3668 	ld	(hl),d
                           3669 ;	main.c 297
                           3670 ;	genIpush
                           3671 ; _saveRegsForCall: sendSetSize: 0 deInUse: 0 bcInUse: 0 deSending: 0
   0AFE 21 85 08           3672 	ld	hl,#_lives
   0B01 E5                 3673 	push	hl
                           3674 ;	genIpush
                           3675 ;	AOP_STK for _main_sloc29_1_0
   0B02 F8 08              3676 	lda	hl,8(sp)
   0B04 2A                 3677 	ld	a,(hl+)
   0B05 66                 3678 	ld	h,(hl)
   0B06 6F                 3679 	ld	l,a
   0B07 E5                 3680 	push	hl
                           3681 ;	genIpush
   0B08 21 86 08           3682 	ld	hl,#_player
   0B0B E5                 3683 	push	hl
                           3684 ;	genIpush
                           3685 ;	AOP_STK for _main_sloc3_1_0
   0B0C F8 2F              3686 	lda	hl,47(sp)
   0B0E 2A                 3687 	ld	a,(hl+)
   0B0F 66                 3688 	ld	h,(hl)
   0B10 6F                 3689 	ld	l,a
   0B11 E5                 3690 	push	hl
                           3691 ;	genIpush
                           3692 ;	AOP_STK for _main_sloc2_1_0
   0B12 F8 33              3693 	lda	hl,51(sp)
   0B14 2A                 3694 	ld	a,(hl+)
   0B15 66                 3695 	ld	h,(hl)
   0B16 6F                 3696 	ld	l,a
   0B17 E5                 3697 	push	hl
                           3698 ;	genCall
   0B18 CD BA 00           3699 	call	_score
                           3700 ;	AOP_STK for _main_sloc30_1_0
   0B1B F8 0F              3701 	lda	hl,15(sp)
   0B1D 73                 3702 	ld	(hl),e
   0B1E E8 0A              3703 	lda	sp,10(sp)
                           3704 ;	genCmpGt
                           3705 ;	AOP_STK for _main_sloc30_1_0
                           3706 ;	AOP_STK for _main_sloc31_1_0
   0B20 3E 64              3707 	ld	a,#0x64
   0B22 F8 05              3708 	lda	hl,5(sp)
   0B24 96                 3709 	sub	a,(hl)
   0B25 3E 00              3710 	ld	a,#0x00
   0B27 17                 3711 	rla
   0B28 2B                 3712 	dec	hl
   0B29 77                 3713 	ld	(hl),a
                           3714 ;	genIfx
                           3715 ;	AOP_STK for _main_sloc31_1_0
   0B2A AF                 3716 	xor	a,a
   0B2B B6                 3717 	or	a,(hl)
   0B2C CA 34 0B           3718 	jp	z,00127$
                           3719 ;	genLabel
   0B2F                    3720 00117$:
                           3721 ;	main.c 301
                           3722 ;	genAssign
                           3723 ;	AOP_HL for _lives
   0B2F 21 85 08           3724 	ld	hl,#_lives
   0B32 36 00              3725 	ld	(hl),#0x00
                           3726 ;	genLabel
   0B34                    3727 00127$:
                           3728 ;	main.c 259
                           3729 ;	genPlus
                           3730 ;	AOP_HL for _i
                           3731 ;	AOP_STK for _main_sloc32_1_0
                           3732 ;	genPlusIncr
                           3733 ;	Can't optimise plus by inc, falling back to the normal way
   0B34 21 7D 08           3734 	ld	hl,#_i
   0B37 5E                 3735 	ld	e,(hl)
   0B38 23                 3736 	inc	hl
   0B39 56                 3737 	ld	d,(hl)
   0B3A 21 01 00           3738 	ld	hl,#0x0001
   0B3D 19                 3739 	add	hl,de
   0B3E 7D                 3740 	ld	a,l
   0B3F 54                 3741 	ld	d,h
   0B40 F8 02              3742 	lda	hl,2(sp)
   0B42 22                 3743 	ld	(hl+),a
   0B43 72                 3744 	ld	(hl),d
                           3745 ;	genAssign
                           3746 ;	AOP_STK for _main_sloc32_1_0
   0B44 2B                 3747 	dec	hl
   0B45 46                 3748 	ld	b,(hl)
   0B46 23                 3749 	inc	hl
   0B47 4E                 3750 	ld	c,(hl)
                           3751 ;	genAssign
                           3752 ;	AOP_HL for _i
   0B48 21 7D 08           3753 	ld	hl,#_i
   0B4B 70                 3754 	ld	(hl),b
   0B4C 23                 3755 	inc	hl
   0B4D 71                 3756 	ld	(hl),c
                           3757 ;	genGoto
   0B4E C3 1E 08           3758 	jp	00125$
                           3759 ;	genLabel
   0B51                    3760 00128$:
                           3761 ;	main.c 305
                           3762 ;	genCmpGt
                           3763 ;	AOP_HL for _lives
   0B51 3E 00              3764 	ld	a,#0x00
   0B53 21 85 08           3765 	ld	hl,#_lives
   0B56 96                 3766 	sub	a,(hl)
   0B57 DA 80 0B           3767 	jp	c,00121$
                           3768 ;	main.c 307
                           3769 ;	genIpush
                           3770 ; _saveRegsForCall: sendSetSize: 0 deInUse: 0 bcInUse: 0 deSending: 0
   0B5A 21 0E 13           3771 	ld	hl,#0x130E
   0B5D E5                 3772 	push	hl
                           3773 ;	genCall
   0B5E CD 00 00           3774 	call	_set_sprite_tile
   0B61 E8 02              3775 	lda	sp,2(sp)
                           3776 ;	main.c 308
                           3777 ;	genIpush
                           3778 ; _saveRegsForCall: sendSetSize: 0 deInUse: 0 bcInUse: 0 deSending: 0
   0B63 21 00 01           3779 	ld	hl,#0x0100
   0B66 E5                 3780 	push	hl
                           3781 ;	genCall
   0B67 CD 00 00           3782 	call	_set_sprite_tile
   0B6A E8 02              3783 	lda	sp,2(sp)
                           3784 ;	main.c 309
                           3785 ;	genIpush
                           3786 ; _saveRegsForCall: sendSetSize: 0 deInUse: 0 bcInUse: 0 deSending: 0
   0B6C 21 74 0C           3787 	ld	hl,#__str_0
   0B6F E5                 3788 	push	hl
                           3789 ;	genIpush
   0B70 21 07 00           3790 	ld	hl,#0x0007
   0B73 E5                 3791 	push	hl
                           3792 ;	genIpush
   0B74 21 05 00           3793 	ld	hl,#0x0005
   0B77 E5                 3794 	push	hl
                           3795 ;	genCall
   0B78 CD 9D 00           3796 	call	_PRINT_MESSAGE
   0B7B E8 06              3797 	lda	sp,6(sp)
                           3798 ;	main.c 310
                           3799 ;	genGoto
   0B7D C3 71 0C           3800 	jp	00133$
                           3801 ;	genLabel
   0B80                    3802 00121$:
                           3803 ;	main.c 333
                           3804 ;	genAssign
                           3805 ;	AOP_HL for _i
   0B80 21 7D 08           3806 	ld	hl,#_i
   0B83 36 00              3807 	ld	(hl),#0x00
   0B85 23                 3808 	inc	hl
   0B86 36 00              3809 	ld	(hl),#0x00
                           3810 ;	genLabel
   0B88                    3811 00129$:
                           3812 ;	genCmpGt
                           3813 ;	AOP_HL for _i
                           3814 ;	AOP_HL for _enemy_count
                           3815 ;	AOP_STK for _main_sloc34_1_0
   0B88 21 6A 08           3816 	ld	hl,#_enemy_count + 1
   0B8B 7E                 3817 	ld	a,(hl)
   0B8C EE 80              3818 	xor	a,#0x80
   0B8E 5F                 3819 	ld	e,a
   0B8F 21 7E 08           3820 	ld	hl,#_i + 1
   0B92 7E                 3821 	ld	a,(hl)
   0B93 EE 80              3822 	xor	a,#0x80
   0B95 57                 3823 	ld	d,a
   0B96 21 69 08           3824 	ld	hl,#_enemy_count
   0B99 7E                 3825 	ld	a,(hl)
   0B9A 21 7D 08           3826 	ld	hl,#_i
   0B9D 96                 3827 	sub	a,(hl)
   0B9E 7B                 3828 	ld	a,e
   0B9F 9A                 3829 	sbc	a,d
   0BA0 3E 00              3830 	ld	a,#0x00
   0BA2 17                 3831 	rla
   0BA3 F8 00              3832 	lda	hl,0(sp)
   0BA5 77                 3833 	ld	(hl),a
                           3834 ;	genIfx
                           3835 ;	AOP_STK for _main_sloc34_1_0
   0BA6 AF                 3836 	xor	a,a
   0BA7 B6                 3837 	or	a,(hl)
   0BA8 C2 6B 0C           3838 	jp	nz,00132$
                           3839 ;	main.c 336
                           3840 ;	genLeftShift
                           3841 ;	AOP_HL for _i
                           3842 ;	AOP_STK for _main_sloc32_1_0
   0BAB 21 7D 08           3843 	ld	hl,#_i
   0BAE 7E                 3844 	ld	a,(hl)
   0BAF F8 02              3845 	lda	hl,2(sp)
   0BB1 77                 3846 	ld	(hl),a
   0BB2 21 7E 08           3847 	ld	hl,#_i + 1
   0BB5 7E                 3848 	ld	a,(hl)
   0BB6 F8 03              3849 	lda	hl,3(sp)
   0BB8 32                 3850 	ld      (hl-),a
   0BB9 CB 26              3851 	sla	(hl)
   0BBB 23                 3852 	inc	hl
   0BBC CB 16              3853 	rl	(hl)
                           3854 ;	genPlus
                           3855 ;	AOP_STK for _main_sloc32_1_0
                           3856 ;	AOP_STK for _main_sloc29_1_0
                           3857 ;	Can't optimise plus by inc, falling back to the normal way
   0BBE 11 88 08           3858 	ld	de,#_velocity
   0BC1 2B                 3859 	dec	hl
   0BC2 2A                 3860 	ld	a,(hl+)
   0BC3 66                 3861 	ld	h,(hl)
   0BC4 6F                 3862 	ld	l,a
   0BC5 19                 3863 	add	hl,de
   0BC6 7D                 3864 	ld	a,l
   0BC7 54                 3865 	ld	d,h
   0BC8 F8 06              3866 	lda	hl,6(sp)
   0BCA 22                 3867 	ld	(hl+),a
   0BCB 72                 3868 	ld	(hl),d
                           3869 ;	genPlus
                           3870 ;	AOP_STK for _main_sloc29_1_0
                           3871 ;	AOP_STK for _main_sloc26_1_0
                           3872 ;	genPlusIncr
                           3873 ;	Can't optimise plus by inc, falling back to the normal way
   0BCC 2B                 3874 	dec	hl
   0BCD 5E                 3875 	ld	e,(hl)
   0BCE 23                 3876 	inc	hl
   0BCF 56                 3877 	ld	d,(hl)
   0BD0 21 01 00           3878 	ld	hl,#0x0001
   0BD3 19                 3879 	add	hl,de
   0BD4 7D                 3880 	ld	a,l
   0BD5 54                 3881 	ld	d,h
   0BD6 F8 0A              3882 	lda	hl,10(sp)
   0BD8 22                 3883 	ld	(hl+),a
   0BD9 72                 3884 	ld	(hl),d
                           3885 ;	genPlus
                           3886 ;	AOP_STK for _main_sloc23_1_0
                           3887 ;	genPlusIncr
                           3888 ;	Can't optimise plus by inc, falling back to the normal way
   0BDA 11 86 08           3889 	ld	de,#_player
   0BDD 21 01 00           3890 	ld	hl,#0x0001
   0BE0 19                 3891 	add	hl,de
   0BE1 7D                 3892 	ld	a,l
   0BE2 54                 3893 	ld	d,h
   0BE3 F8 0E              3894 	lda	hl,14(sp)
   0BE5 22                 3895 	ld	(hl+),a
   0BE6 72                 3896 	ld	(hl),d
                           3897 ;	main.c 335
                           3898 ;	genLeftShift
                           3899 ;	AOP_HL for _i
                           3900 ;	AOP_STK for _main_sloc20_1_0
   0BE7 21 7D 08           3901 	ld	hl,#_i
   0BEA 7E                 3902 	ld	a,(hl)
   0BEB F8 12              3903 	lda	hl,18(sp)
   0BED 77                 3904 	ld	(hl),a
   0BEE 21 7E 08           3905 	ld	hl,#_i + 1
   0BF1 7E                 3906 	ld	a,(hl)
   0BF2 F8 13              3907 	lda	hl,19(sp)
   0BF4 77                 3908 	ld	(hl),a
   0BF5 3E 03              3909 	ld	a,#0x02+1
   0BF7 18 07              3910 	jr	00155$
   0BF9                    3911 00154$:
   0BF9 F8 12              3912 	lda	hl,18(sp)
   0BFB CB 26              3913 	sla	(hl)
   0BFD 23                 3914 	inc	hl
   0BFE CB 16              3915 	rl	(hl)
   0C00                    3916 00155$:
   0C00 3D                 3917 	dec	a
   0C01 20 F6              3918 	jr	nz,00154$
                           3919 ;	genPlus
                           3920 ;	AOP_STK for _main_sloc20_1_0
                           3921 ;	AOP_STK for _main_sloc17_1_0
                           3922 ;	Can't optimise plus by inc, falling back to the normal way
   0C03 11 6B 08           3923 	ld	de,#_enemies
   0C06 F8 12              3924 	lda	hl,18(sp)
   0C08 2A                 3925 	ld	a,(hl+)
   0C09 66                 3926 	ld	h,(hl)
   0C0A 6F                 3927 	ld	l,a
   0C0B 19                 3928 	add	hl,de
   0C0C 7D                 3929 	ld	a,l
   0C0D 54                 3930 	ld	d,h
   0C0E F8 16              3931 	lda	hl,22(sp)
   0C10 22                 3932 	ld	(hl+),a
   0C11 72                 3933 	ld	(hl),d
                           3934 ;	genPlus
                           3935 ;	AOP_STK for _main_sloc17_1_0
                           3936 ;	AOP_STK for _main_sloc14_1_0
                           3937 ;	genPlusIncr
                           3938 ;	Can't optimise plus by inc, falling back to the normal way
   0C12 2B                 3939 	dec	hl
   0C13 5E                 3940 	ld	e,(hl)
   0C14 23                 3941 	inc	hl
   0C15 56                 3942 	ld	d,(hl)
   0C16 21 02 00           3943 	ld	hl,#0x0002
   0C19 19                 3944 	add	hl,de
   0C1A 7D                 3945 	ld	a,l
   0C1B 54                 3946 	ld	d,h
   0C1C F8 1A              3947 	lda	hl,26(sp)
   0C1E 22                 3948 	ld	(hl+),a
   0C1F 72                 3949 	ld	(hl),d
                           3950 ;	genPlus
                           3951 ;	AOP_HL for _i
                           3952 ;	AOP_STK for _main_sloc11_1_0
                           3953 ;	genPlusIncr
                           3954 ;	Can't optimise plus by inc, falling back to the normal way
   0C20 21 7D 08           3955 	ld	hl,#_i
   0C23 5E                 3956 	ld	e,(hl)
   0C24 23                 3957 	inc	hl
   0C25 56                 3958 	ld	d,(hl)
   0C26 21 01 00           3959 	ld	hl,#0x0001
   0C29 19                 3960 	add	hl,de
   0C2A 7D                 3961 	ld	a,l
   0C2B 54                 3962 	ld	d,h
   0C2C F8 1E              3963 	lda	hl,30(sp)
   0C2E 22                 3964 	ld	(hl+),a
   0C2F 72                 3965 	ld	(hl),d
                           3966 ;	genIpush
                           3967 ; _saveRegsForCall: sendSetSize: 0 deInUse: 0 bcInUse: 0 deSending: 0
                           3968 ;	AOP_STK for _main_sloc26_1_0
   0C30 F8 0A              3969 	lda	hl,10(sp)
   0C32 2A                 3970 	ld	a,(hl+)
   0C33 66                 3971 	ld	h,(hl)
   0C34 6F                 3972 	ld	l,a
   0C35 E5                 3973 	push	hl
                           3974 ;	genIpush
                           3975 ;	AOP_STK for _main_sloc29_1_0
   0C36 F8 08              3976 	lda	hl,8(sp)
   0C38 2A                 3977 	ld	a,(hl+)
   0C39 66                 3978 	ld	h,(hl)
   0C3A 6F                 3979 	ld	l,a
   0C3B E5                 3980 	push	hl
                           3981 ;	genIpush
                           3982 ;	AOP_STK for _main_sloc23_1_0
   0C3C F8 12              3983 	lda	hl,18(sp)
   0C3E 2A                 3984 	ld	a,(hl+)
   0C3F 66                 3985 	ld	h,(hl)
   0C40 6F                 3986 	ld	l,a
   0C41 E5                 3987 	push	hl
                           3988 ;	genIpush
   0C42 21 86 08           3989 	ld	hl,#_player
   0C45 E5                 3990 	push	hl
                           3991 ;	genIpush
                           3992 ;	AOP_STK for _main_sloc14_1_0
   0C46 F8 22              3993 	lda	hl,34(sp)
   0C48 2A                 3994 	ld	a,(hl+)
   0C49 66                 3995 	ld	h,(hl)
   0C4A 6F                 3996 	ld	l,a
   0C4B E5                 3997 	push	hl
                           3998 ;	genIpush
                           3999 ;	AOP_STK for _main_sloc17_1_0
   0C4C F8 20              4000 	lda	hl,32(sp)
   0C4E 2A                 4001 	ld	a,(hl+)
   0C4F 66                 4002 	ld	h,(hl)
   0C50 6F                 4003 	ld	l,a
   0C51 E5                 4004 	push	hl
                           4005 ;	genIpush
                           4006 ;	AOP_STK for _main_sloc11_1_0
   0C52 F8 2A              4007 	lda	hl,42(sp)
   0C54 2A                 4008 	ld	a,(hl+)
   0C55 66                 4009 	ld	h,(hl)
   0C56 6F                 4010 	ld	l,a
   0C57 E5                 4011 	push	hl
                           4012 ;	genCall
   0C58 CD 06 01           4013 	call	_enemy_move
   0C5B E8 0E              4014 	lda	sp,14(sp)
                           4015 ;	main.c 333
                           4016 ;	genAssign
                           4017 ;	AOP_STK for _main_sloc11_1_0
   0C5D F8 1E              4018 	lda	hl,30(sp)
   0C5F 46                 4019 	ld	b,(hl)
   0C60 23                 4020 	inc	hl
   0C61 4E                 4021 	ld	c,(hl)
                           4022 ;	genAssign
                           4023 ;	AOP_HL for _i
   0C62 21 7D 08           4024 	ld	hl,#_i
   0C65 70                 4025 	ld	(hl),b
   0C66 23                 4026 	inc	hl
   0C67 71                 4027 	ld	(hl),c
                           4028 ;	genGoto
   0C68 C3 88 0B           4029 	jp	00129$
                           4030 ;	genLabel
   0C6B                    4031 00132$:
                           4032 ;	main.c 339
                           4033 ;	genCall
                           4034 ; _saveRegsForCall: sendSetSize: 0 deInUse: 0 bcInUse: 0 deSending: 0
   0C6B CD C7 01           4035 	call	_level_change
                           4036 ;	genGoto
   0C6E C3 0D 08           4037 	jp	00123$
                           4038 ;	genLabel
   0C71                    4039 00133$:
                           4040 ;	genEndFunction
   0C71 E8 31              4041 	lda	sp,49(sp)
   0C73 C9                 4042 	ret
   0C74                    4043 ___main_end:
   0C74                    4044 __str_0:
   0C74 47 41 4D 45 20 4F  4045 	.ascii "GAME OVER"
        56 45 52
   0C7D 00                 4046 	.db 0x00
                           4047 	.area _CODE
ASxxxx Assembler V01.75  (GameBoy Z80-like CPU), page 1.

Symbol Table

  0 _PRINT_MESSAGE                     009D GR
  0 ___PRINT_MESSAGE_end               00BA R
  0 ___PRINT_MESSAGE_start             009D R
  0 ___add_vect_end                    025E R
  0 ___add_vect_start                  021A R
  0 ___bounce_end                      041F R
  0 ___bounce_start                    02A1 R
  0 ___check_input_end                 0808 R
  0 ___check_input_start               05F8 R
  0 ___collide_sound_end               0039 R
  0 ___collide_sound_start             0000 R
  0 ___collision_check_end             009D R
  0 ___collision_check_start           0039 R
  0 ___enemy_move_end                  015D R
  0 ___enemy_move_start                0106 R
  0 ___init_end                        05B3 R
  0 ___init_enem_end                   01C7 R
  0 ___init_enem_start                 015D R
  0 ___init_start                      041F R
  0 ___level_change_end                021A R
  0 ___level_change_start              01C7 R
  0 ___main_end                        0C74 R
  0 ___main_start                      0808 R
  0 ___score_end                       0106 R
  0 ___score_start                     00BA R
  0 ___update_swithces_end             05F8 R
  0 ___update_swithces_start           05B3 R
  0 ___wall_check_end                  02A1 R
  0 ___wall_check_start                025E R
    __initrleblock                     **** GX
    __modschar_rrx_s                   **** GX
    __moduint_rrx_s                    **** GX
  0 __str_0                            0C74 R
  0 _add_vect                          021A GR
  1 _alpha                             0548 GR
  0 _bounce                            02A1 GR
  0 _check_input                       05F8 GR
    _clock                             **** GX
  0 _collide_sound                     0000 GR
  0 _collision_check                   0039 GR
  1 _dungeon                           03C0 GR
  1 _enemies                           086B GR
  1 _enemy_count                       0869 GR
  0 _enemy_move                        0106 GR
    _gotogxy                           **** GX
    _gprintf                           **** GX
  1 _heart                             0848 GR
  1 _i                                 087D GR
  1 _incr                              087B GR
  0 _init                              041F GR
  0 _init_enem                         015D GR
    _initrand                          **** GX
  1 _j                                 087F GR
    _joypad                            **** GX
  0 _level_change                      01C7 GR
  1 _lives                             0885 GR
  0 _main                              0808 GR
    _move_sprite                       **** GX
  1 _player                            0886 GR
    _rand                              **** GX
  0 _score                             00BA GR
    _set_bkg_data                      **** GX
    _set_bkg_tiles                     **** GX
    _set_sprite_data                   **** GX
    _set_sprite_tile                   **** GX
  1 _sound_on                          0868 GR
  1 _sprites                           0528 GR
  1 _t                                 0881 GR
  1 _tiles                             0000 GR
    _time                              **** GX
  0 _update_swithces                   05B3 GR
  1 _velocity                          0888 GR
    _wait_vbl_done                     **** GX
  0 _wall_check                        025E GR
  1 _x                                 0883 GR

ASxxxx Assembler V01.75  (GameBoy Z80-like CPU), page 2.

Area Table

   0 _CODE                              size  C7E   flags 0
   1 _DATA                              size  890   flags 0
   2 _OVERLAY                           size    0   flags 0
   3 _ISEG                              size    0   flags 0
   4 _BSEG                              size    0   flags 0
   5 _XSEG                              size    0   flags 0
   6 _GSINIT                            size  65F   flags 0
   7 _GSFINAL                           size    0   flags 0
   8 _HOME                              size    0   flags 0
