                              1 ;--------------------------------------------------------
                              2 ; File Created by SDCC : FreeWare ANSI-C Compiler
                              3 ; Version 2.3.1 Fri Jan 18 22:06:10 2019
                              4 
                              5 ;--------------------------------------------------------
                              6 	.module lcc44010
                              7 	
                              8 ;--------------------------------------------------------
                              9 ; Public variables in this module
                             10 ;--------------------------------------------------------
                             11 	.globl _main
                             12 	.globl _loc
                             13 	.globl _arrow_y
                             14 	.globl _arrow_x
                             15 	.globl _open_screen
                             16 	.globl _ship_tiles
                             17 	.globl _toggle
                             18 	.globl _setup_sprite
                             19 	.globl _setup_bkg
                             20 ;--------------------------------------------------------
                             21 ; special function registers
                             22 ;--------------------------------------------------------
                             23 ;--------------------------------------------------------
                             24 ; special function bits 
                             25 ;--------------------------------------------------------
                             26 ;--------------------------------------------------------
                             27 ; internal ram data
                             28 ;--------------------------------------------------------
                             29 	.area _DATA
   0000                      30 _ship_tiles::
   0000                      31 	.ds 1424
   0590                      32 _open_screen::
   0590                      33 	.ds 1024
   0990                      34 _arrow_x::
   0990                      35 	.ds 1
   0991                      36 _arrow_y::
   0991                      37 	.ds 1
   0992                      38 _loc::
   0992                      39 	.ds 1
                             40 ;--------------------------------------------------------
                             41 ; overlayable items in internal ram 
                             42 ;--------------------------------------------------------
                             43 	.area _OVERLAY
                             44 ;--------------------------------------------------------
                             45 ; indirectly addressable internal ram data
                             46 ;--------------------------------------------------------
                             47 	.area _ISEG
                             48 ;--------------------------------------------------------
                             49 ; bit data
                             50 ;--------------------------------------------------------
                             51 	.area _BSEG
                             52 ;--------------------------------------------------------
                             53 ; external ram data
                             54 ;--------------------------------------------------------
                             55 	.area _XSEG
                             56 ;--------------------------------------------------------
                             57 ; global & static initialisations
                             58 ;--------------------------------------------------------
                             59 	.area _GSINIT
                             60 	.area _GSFINAL
                             61 	.area _GSINIT
                             62 ;	main.c 26
                             63 ;	main.c 84
                             64 ;	genArrayInit
                             65 ; _saveRegsForCall: sendSetSize: 0 deInUse: 0 bcInUse: 0 deSending: 0
   0000 21 00 00             66 	ld	hl,#_ship_tiles
   0003 CD 00 00             67 	call	__initrleblock
   0006 1E                   68 	.db	30
   0007 FF FF FF 81 FF A1    69 	.db	0xFF, 0xFF, 0xFF, 0x81, 0xFF, 0xA1, 0xFF, 0x81
        FF 81
   000F FF 89 FF 81 FF A1    70 	.db	0xFF, 0x89, 0xFF, 0x81, 0xFF, 0xA1, 0xFF, 0x81
        FF 81
   0017 FF 81 FF A1 FF 81    71 	.db	0xFF, 0x81, 0xFF, 0xA1, 0xFF, 0x81, 0xFF, 0x89
        FF 89
   001F FF 81 FF A1 FF 81    72 	.db	0xFF, 0x81, 0xFF, 0xA1, 0xFF, 0x81
   0025 FB FF                73 	.db	-5,0xFF
   0027 0B                   74 	.db	11
   0028 80 FF 91 FF 80 FF    75 	.db	0x80, 0xFF, 0x91, 0xFF, 0x80, 0xFF, 0x84, 0xFF
        84 FF
   0030 80 FF 80             76 	.db	0x80, 0xFF, 0x80
   0033 FB FF                77 	.db	-5,0xFF
   0035 0D                   78 	.db	13
   0036 01 FF 11 FF 01 FF    79 	.db	0x01, 0xFF, 0x11, 0xFF, 0x01, 0xFF, 0x45, 0xFF
        45 FF
   003E 01 FF 01 FF FF       80 	.db	0x01, 0xFF, 0x01, 0xFF, 0xFF
   0043 F0 00                81 	.db	-16,0x00
   0045 1F                   82 	.db	31
   0046 FF 00 FF 00 FF 00    83 	.db	0xFF, 0x00, 0xFF, 0x00, 0xFF, 0x00, 0xFF, 0x00
        FF 00
   004E FF 00 FF 00 FF 00    84 	.db	0xFF, 0x00, 0xFF, 0x00, 0xFF, 0x00, 0xFF, 0x00
        FF 00
   0056 00 FF 00 FF 00 FF    85 	.db	0x00, 0xFF, 0x00, 0xFF, 0x00, 0xFF, 0x00, 0xFF
        00 FF
   005E 00 FF 00 FF 00 FF    86 	.db	0x00, 0xFF, 0x00, 0xFF, 0x00, 0xFF, 0x00
        00
   0065 EF FF                87 	.db	-17,0xFF
   0067 2F                   88 	.db	47
   0068 1C FF A2 FF 49 FF    89 	.db	0x1C, 0xFF, 0xA2, 0xFF, 0x49, 0xFF, 0x14, 0xFF
        14 FF
   0070 62 FF 81 FF 00 FF    90 	.db	0x62, 0xFF, 0x81, 0xFF, 0x00, 0xFF, 0x00, 0xFF
        00 FF
   0078 00 FF 01 FF 02 FF    91 	.db	0x00, 0xFF, 0x01, 0xFF, 0x02, 0xFF, 0x24, 0xFF
        24 FF
   0080 58 FF 80 FF 07 FF    92 	.db	0x58, 0xFF, 0x80, 0xFF, 0x07, 0xFF, 0x00, 0xFF
        00 FF
   0088 00 FF 00 FF E8 FF    93 	.db	0x00, 0xFF, 0x00, 0xFF, 0xE8, 0xFF, 0x15, 0xFF
        15 FF
   0090 22 FF C4 FF 08 FF    94 	.db	0x22, 0xFF, 0xC4, 0xFF, 0x08, 0xFF, 0x00
        00
   0097 F7 FF                95 	.db	-9,0xFF
   0099 6E                   96 	.db	110
   009A 7B FF 30 FF 0C FF    97 	.db	0x7B, 0xFF, 0x30, 0xFF, 0x0C, 0xFF, 0x00, 0xFF
        00 FF
   00A2 FF 00 FF 1B E4 24    98 	.db	0xFF, 0x00, 0xFF, 0x1B, 0xE4, 0x24, 0xC8, 0x48
        C8 48
   00AA 80 80 81 81 CA 4A    99 	.db	0x80, 0x80, 0x81, 0x81, 0xCA, 0x4A, 0xFF, 0x35
        FF 35
   00B2 FF 00 FF 00 FF 80   100 	.db	0xFF, 0x00, 0xFF, 0x00, 0xFF, 0x80, 0x7F, 0x40
        7F 40
   00BA 3F 20 3F 20 7F 40   101 	.db	0x3F, 0x20, 0x3F, 0x20, 0x7F, 0x40, 0xFF, 0x80
        FF 80
   00C2 FF FF AA FF AA FF   102 	.db	0xFF, 0xFF, 0xAA, 0xFF, 0xAA, 0xFF, 0xAA, 0xFF
        AA FF
   00CA AA FF AA FF AA FF   103 	.db	0xAA, 0xFF, 0xAA, 0xFF, 0xAA, 0xFF, 0xAA, 0xFF
        AA FF
   00D2 FF FF 55 FF 55 FF   104 	.db	0xFF, 0xFF, 0x55, 0xFF, 0x55, 0xFF, 0x55, 0xFF
        55 FF
   00DA 55 FF 55 FF 55 FF   105 	.db	0x55, 0xFF, 0x55, 0xFF, 0x55, 0xFF, 0x55, 0xFF
        55 FF
   00E2 AD FF A5 FF 95 FF   106 	.db	0xAD, 0xFF, 0xA5, 0xFF, 0x95, 0xFF, 0x91, 0xFF
        91 FF
   00EA 89 FF A9 FF A9 FF   107 	.db	0x89, 0xFF, 0xA9, 0xFF, 0xA9, 0xFF, 0xA5, 0xFF
        A5 FF
   00F2 FF FF 81 FF 93 FF   108 	.db	0xFF, 0xFF, 0x81, 0xFF, 0x93, 0xFF, 0x89, 0xFF
        89 FF
   00FA C9 FF 93 FF A5 FF   109 	.db	0xC9, 0xFF, 0x93, 0xFF, 0xA5, 0xFF, 0xAD, 0xFF
        AD FF
   0102 FF FF FF 99 FF 99   110 	.db	0xFF, 0xFF, 0xFF, 0x99, 0xFF, 0x99
   0108 FB FF               111 	.db	-5,0xFF
   010A 7F                  112 	.db	127
   010B 99 FF 99 FF FF FF   113 	.db	0x99, 0xFF, 0x99, 0xFF, 0xFF, 0xFF, 0x00, 0xFF
        00 FF
   0113 1F F3 1F F2 7F C7   114 	.db	0x1F, 0xF3, 0x1F, 0xF2, 0x7F, 0xC7, 0x7F, 0xC4
        7F C4
   011B 7F E0 7F FF 3F EF   115 	.db	0x7F, 0xE0, 0x7F, 0xFF, 0x3F, 0xEF, 0x10, 0xF0
        10 F0
   0123 0F F6 0F FC 0F F8   116 	.db	0x0F, 0xF6, 0x0F, 0xFC, 0x0F, 0xF8, 0x1F, 0x15
        1F 15
   012B FF C6 3F E3 3F E0   117 	.db	0xFF, 0xC6, 0x3F, 0xE3, 0x3F, 0xE0, 0x3F, 0xEC
        3F EC
   0133 7F CB FF 89 FF B8   118 	.db	0x7F, 0xCB, 0xFF, 0x89, 0xFF, 0xB8, 0xFF, 0xF9
        FF F9
   013B FF CF FF 82 FF FF   119 	.db	0xFF, 0xCF, 0xFF, 0x82, 0xFF, 0xFF, 0x00, 0xFF
        00 FF
   0143 00 FF 80 F3 8C 77   120 	.db	0x00, 0xFF, 0x80, 0xF3, 0x8C, 0x77, 0xE8, 0x27
        E8 27
   014B F8 6F F8 4C FF C5   121 	.db	0xF8, 0x6F, 0xF8, 0x4C, 0xFF, 0xC5, 0xFE, 0x81
        FE 81
   0153 FE 03 FE 3B FF 67   122 	.db	0xFE, 0x03, 0xFE, 0x3B, 0xFF, 0x67, 0xFF, 0xD5
        FF D5
   015B FF 1F FF 01 FF FF   123 	.db	0xFF, 0x1F, 0xFF, 0x01, 0xFF, 0xFF, 0x00, 0xFF
        00 FF
   0163 00 FF 00 FF 22 FF   124 	.db	0x00, 0xFF, 0x00, 0xFF, 0x22, 0xFF, 0x55, 0xFF
        55 FF
   016B 88 FF 00 FF 00 FF   125 	.db	0x88, 0xFF, 0x00, 0xFF, 0x00, 0xFF, 0x00, 0xFF
        00 FF
   0173 00 FF 00 FF 00 FF   126 	.db	0x00, 0xFF, 0x00, 0xFF, 0x00, 0xFF, 0x00, 0xFF
        00 FF
   017B 80 FF 00 FF 00 FF   127 	.db	0x80, 0xFF, 0x00, 0xFF, 0x00, 0xFF, 0xFF, 0xFF
        FF FF
   0183 80 FF AA FF 80 FF   128 	.db	0x80, 0xFF, 0xAA, 0xFF, 0x80, 0xFF, 0xA0
        A0
   018A 7F                  129 	.db	127
   018B FF 80 FF A0 FF 80   130 	.db	0xFF, 0x80, 0xFF, 0xA0, 0xFF, 0x80, 0xFF, 0xFF
        FF FF
   0193 FF 01 FF A9 FF 01   131 	.db	0xFF, 0x01, 0xFF, 0xA9, 0xFF, 0x01, 0xFF, 0x05
        FF 05
   019B FF 01 FF 05 FF 01   132 	.db	0xFF, 0x01, 0xFF, 0x05, 0xFF, 0x01, 0xFF, 0x05
        FF 05
   01A3 FF 11 FF 05 FF 01   133 	.db	0xFF, 0x11, 0xFF, 0x05, 0xFF, 0x01, 0xFF, 0x05
        FF 05
   01AB FF 51 FF 01 FF FF   134 	.db	0xFF, 0x51, 0xFF, 0x01, 0xFF, 0xFF, 0xFF, 0xA0
        FF A0
   01B3 FF 80 FF A0 FF 82   135 	.db	0xFF, 0x80, 0xFF, 0xA0, 0xFF, 0x82, 0xFF, 0xA0
        FF A0
   01BB FF 89 FF 80 FF FF   136 	.db	0xFF, 0x89, 0xFF, 0x80, 0xFF, 0xFF, 0x00, 0xFF
        00 FF
   01C3 00 FF 00 FF 84 FF   137 	.db	0x00, 0xFF, 0x00, 0xFF, 0x84, 0xFF, 0x4B, 0xFF
        4B FF
   01CB 30 FF 0C FF 00 FF   138 	.db	0x30, 0xFF, 0x0C, 0xFF, 0x00, 0xFF, 0xFF, 0x00
        FF 00
   01D3 FF 00 FF 00 FF 84   139 	.db	0xFF, 0x00, 0xFF, 0x00, 0xFF, 0x84, 0x7B, 0xCF
        7B CF
   01DB 30 FF 0C FF 00 FF   140 	.db	0x30, 0xFF, 0x0C, 0xFF, 0x00, 0xFF, 0x01, 0xFF
        01 FF
   01E3 01 FF 01 FF 01 FF   141 	.db	0x01, 0xFF, 0x01, 0xFF, 0x01, 0xFF, 0x01, 0xFF
        01 FF
   01EB 01 FF 01 FF 01 FF   142 	.db	0x01, 0xFF, 0x01, 0xFF, 0x01, 0xFF, 0xFF, 0x20
        FF 20
   01F3 FF 20 FF 20 FF 20   143 	.db	0xFF, 0x20, 0xFF, 0x20, 0xFF, 0x20, 0xFF, 0x20
        FF 20
   01FB FF 20 FF 20 FF 20   144 	.db	0xFF, 0x20, 0xFF, 0x20, 0xFF, 0x20, 0xFF, 0xFF
        FF FF
   0203 00 FF 00 FF 00 FF   145 	.db	0x00, 0xFF, 0x00, 0xFF, 0x00, 0xFF, 0x00
        00
   020A 34                  146 	.db	52
   020B FF 00 FF 00 FF FF   147 	.db	0xFF, 0x00, 0xFF, 0x00, 0xFF, 0xFF, 0xFF, 0x81
        FF 81
   0213 FF 81 FF 81 FF 81   148 	.db	0xFF, 0x81, 0xFF, 0x81, 0xFF, 0x81, 0xFF, 0x81
        FF 81
   021B FF 81 FF 81 FF 81   149 	.db	0xFF, 0x81, 0xFF, 0x81, 0xFF, 0x81, 0xFF, 0xFF
        FF FF
   0223 FF 81 FF 81 FF 81   150 	.db	0xFF, 0x81, 0xFF, 0x81, 0xFF, 0x81, 0xFF, 0x81
        FF 81
   022B FF 81 FF 81 FF 81   151 	.db	0xFF, 0x81, 0xFF, 0x81, 0xFF, 0x81, 0xFF, 0xFF
        FF FF
   0233 FF 80 FF 80 FF 80   152 	.db	0xFF, 0x80, 0xFF, 0x80, 0xFF, 0x80, 0xFF, 0x80
        FF 80
   023B FF 80 FF 80         153 	.db	0xFF, 0x80, 0xFF, 0x80
   023F FB FF               154 	.db	-5,0xFF
   0241 7F                  155 	.db	127
   0242 01 FF 01 FF 01 FF   156 	.db	0x01, 0xFF, 0x01, 0xFF, 0x01, 0xFF, 0x01, 0xFF
        01 FF
   024A 01 FF 01 FF FF FF   157 	.db	0x01, 0xFF, 0x01, 0xFF, 0xFF, 0xFF, 0xFF, 0x00
        FF 00
   0252 FF 00 FF 01 FF 01   158 	.db	0xFF, 0x00, 0xFF, 0x01, 0xFF, 0x01, 0xFF, 0x03
        FF 03
   025A FF 07 FF 05 FF 0D   159 	.db	0xFF, 0x07, 0xFF, 0x05, 0xFF, 0x0D, 0xFF, 0x1B
        FF 1B
   0262 FF 12 FF 3E F7 7F   160 	.db	0xFF, 0x12, 0xFF, 0x3E, 0xF7, 0x7F, 0x07, 0xFF
        07 FF
   026A F4 7F 5C FF CF 7F   161 	.db	0xF4, 0x7F, 0x5C, 0xFF, 0xCF, 0x7F, 0xFF, 0x60
        FF 60
   0272 FF F0 FF D0 FF D8   162 	.db	0xFF, 0xF0, 0xFF, 0xD0, 0xFF, 0xD8, 0xFF, 0xB8
        FF B8
   027A FF A8 FF A8 FF EC   163 	.db	0xFF, 0xA8, 0xFF, 0xA8, 0xFF, 0xEC, 0xFF, 0x7C
        FF 7C
   0282 FF 3E FF 2A FF 77   164 	.db	0xFF, 0x3E, 0xFF, 0x2A, 0xFF, 0x77, 0xFD, 0xFF
        FD FF
   028A D9 FF D8 FF D7 FF   165 	.db	0xD9, 0xFF, 0xD8, 0xFF, 0xD7, 0xFF, 0xE9, 0x7F
        E9 7F
   0292 BB 7F BE 5F 5E BF   166 	.db	0xBB, 0x7F, 0xBE, 0x5F, 0x5E, 0xBF, 0xEC, 0x13
        EC 13
   029A D2 2D DA 25 FF 00   167 	.db	0xD2, 0x2D, 0xDA, 0x25, 0xFF, 0x00, 0x9D, 0xFF
        9D FF
   02A2 F9 FF 4F FF CD FE   168 	.db	0xF9, 0xFF, 0x4F, 0xFF, 0xCD, 0xFE, 0xFD, 0xF2
        FD F2
   02AA FC 03 FD 02 FF 00   169 	.db	0xFC, 0x03, 0xFD, 0x02, 0xFF, 0x00, 0x80, 0xFF
        80 FF
   02B2 80 FF 80 FF 80 FF   170 	.db	0x80, 0xFF, 0x80, 0xFF, 0x80, 0xFF, 0x80, 0xFF
        80 FF
   02BA 80 FF 80 FF 80 FF   171 	.db	0x80, 0xFF, 0x80, 0xFF, 0x80, 0xFF, 0xFF
        FF
   02C1 7F                  172 	.db	127
   02C2 00 FF 00 FF 00 FF   173 	.db	0x00, 0xFF, 0x00, 0xFF, 0x00, 0xFF, 0x01, 0xFF
        01 FF
   02CA 01 FF 01 FF 01 FF   174 	.db	0x01, 0xFF, 0x01, 0xFF, 0x01, 0xFF, 0x0F, 0xFB
        0F FB
   02D2 0F F8 0F F8 0F F8   175 	.db	0x0F, 0xF8, 0x0F, 0xF8, 0x0F, 0xF8, 0x0F, 0xF8
        0F F8
   02DA 0F F9 0F FE 07 FC   176 	.db	0x0F, 0xF9, 0x0F, 0xFE, 0x07, 0xFC, 0x07, 0xFF
        07 FF
   02E2 00 FF 1F F1 FF 80   177 	.db	0x00, 0xFF, 0x1F, 0xF1, 0xFF, 0x80, 0xFF, 0x00
        FF 00
   02EA FF 09 FF 07 FF 23   178 	.db	0xFF, 0x09, 0xFF, 0x07, 0xFF, 0x23, 0xDF, 0x33
        DF 33
   02F2 CF 12 EF 37 CF 25   179 	.db	0xCF, 0x12, 0xEF, 0x37, 0xCF, 0x25, 0xDF, 0x2F
        DF 2F
   02FA DF 0F FF C0 FF 46   180 	.db	0xDF, 0x0F, 0xFF, 0xC0, 0xFF, 0x46, 0xF9, 0xFC
        F9 FC
   0302 07 FD 06 FD 06 FE   181 	.db	0x07, 0xFD, 0x06, 0xFD, 0x06, 0xFE, 0x07, 0xFE
        07 FE
   030A 07 FC 0F F8 1F F8   182 	.db	0x07, 0xFC, 0x0F, 0xF8, 0x1F, 0xF8, 0x1F, 0xF8
        1F F8
   0312 0F FC 07 FE 0F F8   183 	.db	0x0F, 0xFC, 0x07, 0xFE, 0x0F, 0xF8, 0x1F, 0xF0
        1F F0
   031A 1F F3 1C F1 1E F8   184 	.db	0x1F, 0xF3, 0x1C, 0xF1, 0x1E, 0xF8, 0x1F, 0x47
        1F 47
   0322 F8 27 F8 BC 73 D8   185 	.db	0xF8, 0x27, 0xF8, 0xBC, 0x73, 0xD8, 0x3F, 0x68
        3F 68
   032A 9F 3C CF 34 CF 25   186 	.db	0x9F, 0x3C, 0xCF, 0x34, 0xCF, 0x25, 0xDF, 0xEF
        DF EF
   0332 1F DB 3F 52 BF C2   187 	.db	0x1F, 0xDB, 0x3F, 0x52, 0xBF, 0xC2, 0x3F, 0x79
        3F 79
   033A 86 33 CC B5 4A 08   188 	.db	0x86, 0x33, 0xCC, 0xB5, 0x4A, 0x08, 0xF7
        F7
   0341 7F                  189 	.db	127
   0342 FF 03 FE 07 FC 87   190 	.db	0xFF, 0x03, 0xFE, 0x07, 0xFC, 0x87, 0xFC, 0xFF
        FC FF
   034A C4 FF C0 FF 40 FF   191 	.db	0xC4, 0xFF, 0xC0, 0xFF, 0x40, 0xFF, 0x42, 0xFF
        42 FF
   0352 77 EF CD F7 08 F7   192 	.db	0x77, 0xEF, 0xCD, 0xF7, 0x08, 0xF7, 0x00, 0xFF
        00 FF
   035A 1F FF 91 FF 90 FF   193 	.db	0x1F, 0xFF, 0x91, 0xFF, 0x90, 0xFF, 0x90, 0xFF
        90 FF
   0362 FF F0 9F 7C 17 EC   194 	.db	0xFF, 0xF0, 0x9F, 0x7C, 0x17, 0xEC, 0x47, 0xBC
        47 BC
   036A 07 FC E7 FC 87 FE   195 	.db	0x07, 0xFC, 0xE7, 0xFC, 0x87, 0xFE, 0xBB, 0xC6
        BB C6
   0372 FB 87 F9 BF 89 FF   196 	.db	0xFB, 0x87, 0xF9, 0xBF, 0x89, 0xFF, 0x89, 0xFF
        89 FF
   037A 93 FF BF FE 07 FE   197 	.db	0x93, 0xFF, 0xBF, 0xFE, 0x07, 0xFE, 0x03, 0xFF
        03 FF
   0382 F0 FF BA FD 8B FC   198 	.db	0xF0, 0xFF, 0xBA, 0xFD, 0x8B, 0xFC, 0x43, 0xFC
        43 FC
   038A 61 FE 71 FE CD FE   199 	.db	0x61, 0xFE, 0x71, 0xFE, 0xCD, 0xFE, 0x85, 0xFF
        85 FF
   0392 27 DF 03 FF 02 FF   200 	.db	0x27, 0xDF, 0x03, 0xFF, 0x02, 0xFF, 0x00, 0xFF
        00 FF
   039A C8 37 40 BF C3 3F   201 	.db	0xC8, 0x37, 0x40, 0xBF, 0xC3, 0x3F, 0x1F, 0xFC
        1F FC
   03A2 E3 1E E3 1E C7 3C   202 	.db	0xE3, 0x1E, 0xE3, 0x1E, 0xC7, 0x3C, 0x8F, 0x7C
        8F 7C
   03AA 1F FC 07 FE 83 FE   203 	.db	0x1F, 0xFC, 0x07, 0xFE, 0x83, 0xFE, 0xC7, 0xFE
        C7 FE
   03B2 27 FC 27 FC 3F FC   204 	.db	0x27, 0xFC, 0x27, 0xFC, 0x3F, 0xFC, 0x7F, 0xB0
        7F B0
   03BA 3F E0 7F E0 FF 80   205 	.db	0x3F, 0xE0, 0x7F, 0xE0, 0xFF, 0x80, 0xFF
        FF
   03C1 7F                  206 	.db	127
   03C2 00 FF 00 FF 3E E3   207 	.db	0x00, 0xFF, 0x00, 0xFF, 0x3E, 0xE3, 0x22, 0xE3
        22 E3
   03CA 23 E1 21 E0 20 E1   208 	.db	0x23, 0xE1, 0x21, 0xE0, 0x20, 0xE1, 0x21, 0xFD
        21 FD
   03D2 3D FC 24 FE 26 FF   209 	.db	0x3D, 0xFC, 0x24, 0xFE, 0x26, 0xFF, 0x23, 0xFF
        23 FF
   03DA 20 FF 20 FF 20 FF   210 	.db	0x20, 0xFF, 0x20, 0xFF, 0x20, 0xFF, 0x20, 0xFF
        20 FF
   03E2 20 FF 00 FF 00 FF   211 	.db	0x20, 0xFF, 0x00, 0xFF, 0x00, 0xFF, 0x1E, 0xF3
        1E F3
   03EA 72 C3 C2 03 02 C3   212 	.db	0x72, 0xC3, 0xC2, 0x03, 0x02, 0xC3, 0xC2, 0xC3
        C2 C3
   03F2 C2 0F 0E 3F 38 FF   213 	.db	0xC2, 0x0F, 0x0E, 0x3F, 0x38, 0xFF, 0xE0, 0xFF
        E0 FF
   03FA 00 FF 00 FF 00 FF   214 	.db	0x00, 0xFF, 0x00, 0xFF, 0x00, 0xFF, 0x00, 0xFF
        00 FF
   0402 00 FF 00 FF 03 FE   215 	.db	0x00, 0xFF, 0x00, 0xFF, 0x03, 0xFE, 0x03, 0xFE
        03 FE
   040A 03 FE 03 FE 03 FE   216 	.db	0x03, 0xFE, 0x03, 0xFE, 0x03, 0xFE, 0x03, 0xFE
        03 FE
   0412 03 FE 03 FE 03 FE   217 	.db	0x03, 0xFE, 0x03, 0xFE, 0x03, 0xFE, 0x03, 0xFE
        03 FE
   041A 03 FE 03 FE 0F FA   218 	.db	0x03, 0xFE, 0x03, 0xFE, 0x0F, 0xFA, 0x0F, 0xFA
        0F FA
   0422 0F FF 00 FF FF 00   219 	.db	0x0F, 0xFF, 0x00, 0xFF, 0xFF, 0x00, 0xFF, 0x00
        FF 00
   042A FF 00 FF 00 FF 00   220 	.db	0xFF, 0x00, 0xFF, 0x00, 0xFF, 0x00, 0xFF, 0x00
        FF 00
   0432 FF FF 00 FF E0 3F   221 	.db	0xFF, 0xFF, 0x00, 0xFF, 0xE0, 0x3F, 0xE0, 0x3F
        E0 3F
   043A E0 3F E0 3F E0 3F   222 	.db	0xE0, 0x3F, 0xE0, 0x3F, 0xE0, 0x3F, 0xE0
        E0
   0441 7F                  223 	.db	127
   0442 3F E0 3F E0 3F E0   224 	.db	0x3F, 0xE0, 0x3F, 0xE0, 0x3F, 0xE0, 0x3F, 0xE0
        3F E0
   044A 3F E0 3F E0 3F F8   225 	.db	0x3F, 0xE0, 0x3F, 0xE0, 0x3F, 0xF8, 0x2F, 0xF8
        2F F8
   0452 2F F8 FE 03 FE 03   226 	.db	0x2F, 0xF8, 0xFE, 0x03, 0xFE, 0x03, 0xFE, 0x03
        FE 03
   045A FE 03 FE 03 FE 03   227 	.db	0xFE, 0x03, 0xFE, 0x03, 0xFE, 0x03, 0xFE, 0x03
        FE 03
   0462 FE 03 7F C0 7F C0   228 	.db	0xFE, 0x03, 0x7F, 0xC0, 0x7F, 0xC0, 0x7F, 0xC0
        7F C0
   046A 7F C0 7F C0 7F C0   229 	.db	0x7F, 0xC0, 0x7F, 0xC0, 0x7F, 0xC0, 0x7F, 0xC0
        7F C0
   0472 7F C0 80 FF FF FF   230 	.db	0x7F, 0xC0, 0x80, 0xFF, 0xFF, 0xFF, 0x00, 0xFF
        00 FF
   047A 00 FF 00 FF 00 FF   231 	.db	0x00, 0xFF, 0x00, 0xFF, 0x00, 0xFF, 0x00, 0xFF
        00 FF
   0482 00 FF 01 FF FF FF   232 	.db	0x00, 0xFF, 0x01, 0xFF, 0xFF, 0xFF, 0x00, 0xFF
        00 FF
   048A 00 FF 00 FF 00 FF   233 	.db	0x00, 0xFF, 0x00, 0xFF, 0x00, 0xFF, 0x00, 0xFF
        00 FF
   0492 00 FF 00 FF FF FF   234 	.db	0x00, 0xFF, 0x00, 0xFF, 0xFF, 0xFF, 0x00, 0xFF
        00 FF
   049A 00 FF 00 FF 00 FF   235 	.db	0x00, 0xFF, 0x00, 0xFF, 0x00, 0xFF, 0x00, 0xFF
        00 FF
   04A2 00 FF FF 7C FF C6   236 	.db	0x00, 0xFF, 0xFF, 0x7C, 0xFF, 0xC6, 0xFF, 0xC0
        FF C0
   04AA FF 7C FF 06 FF 06   237 	.db	0xFF, 0x7C, 0xFF, 0x06, 0xFF, 0x06, 0xFF, 0xC6
        FF C6
   04B2 FF 7C FF 7E FF 18   238 	.db	0xFF, 0x7C, 0xFF, 0x7E, 0xFF, 0x18, 0xFF, 0x18
        FF 18
   04BA FF 18 FF 18 FF 18   239 	.db	0xFF, 0x18, 0xFF, 0x18, 0xFF, 0x18, 0xFF
        FF
   04C1 7F                  240 	.db	127
   04C2 18 FF 18 FF 38 FF   241 	.db	0x18, 0xFF, 0x18, 0xFF, 0x38, 0xFF, 0x6C, 0xFF
        6C FF
   04CA C6 FF C6 FF FE FF   242 	.db	0xC6, 0xFF, 0xC6, 0xFF, 0xFE, 0xFF, 0xC6, 0xFF
        C6 FF
   04D2 C6 FF C6 FF FC FF   243 	.db	0xC6, 0xFF, 0xC6, 0xFF, 0xFC, 0xFF, 0xC6, 0xFF
        C6 FF
   04DA C6 FF CE FF F8 FF   244 	.db	0xC6, 0xFF, 0xCE, 0xFF, 0xF8, 0xFF, 0xD8, 0xFF
        D8 FF
   04E2 CC FF C6 FF C0 FF   245 	.db	0xCC, 0xFF, 0xC6, 0xFF, 0xC0, 0xFF, 0xF0, 0xFF
        F0 FF
   04EA FC FF FE FF FC FF   246 	.db	0xFC, 0xFF, 0xFE, 0xFF, 0xFC, 0xFF, 0xF0, 0xFF
        F0 FF
   04F2 C0 FF 00 FF C6 FF   247 	.db	0xC0, 0xFF, 0x00, 0xFF, 0xC6, 0xFF, 0xE6, 0xFF
        E6 FF
   04FA F6 FF FE FF DE FF   248 	.db	0xF6, 0xFF, 0xFE, 0xFF, 0xDE, 0xFF, 0xCE, 0xFF
        CE FF
   0502 C6 FF C6 FF FE FF   249 	.db	0xC6, 0xFF, 0xC6, 0xFF, 0xFE, 0xFF, 0xC0, 0xFF
        C0 FF
   050A C0 FF FC FF C0 FF   250 	.db	0xC0, 0xFF, 0xFC, 0xFF, 0xC0, 0xFF, 0xC0, 0xFF
        C0 FF
   0512 C0 FF FE FF C6 FF   251 	.db	0xC0, 0xFF, 0xFE, 0xFF, 0xC6, 0xFF, 0xC6, 0xFF
        C6 FF
   051A C6 FF D6 FF FE FF   252 	.db	0xC6, 0xFF, 0xD6, 0xFF, 0xFE, 0xFF, 0xFE, 0xFF
        FE FF
   0522 EE FF C6 FF 3E FF   253 	.db	0xEE, 0xFF, 0xC6, 0xFF, 0x3E, 0xFF, 0x60, 0xFF
        60 FF
   052A C0 FF C0 FF CE FF   254 	.db	0xC0, 0xFF, 0xC0, 0xFF, 0xCE, 0xFF, 0xC6, 0xFF
        C6 FF
   0532 66 FF 3E FF C6 FF   255 	.db	0x66, 0xFF, 0x3E, 0xFF, 0xC6, 0xFF, 0xEE, 0xFF
        EE FF
   053A FE FF FE FF D6 FF   256 	.db	0xFE, 0xFF, 0xFE, 0xFF, 0xD6, 0xFF, 0xC6
        C6
   0541 34                  257 	.db	52
   0542 FF C6 FF C6 FF 7C   258 	.db	0xFF, 0xC6, 0xFF, 0xC6, 0xFF, 0x7C, 0xFF, 0xC6
        FF C6
   054A FF C6 FF C6 FF C6   259 	.db	0xFF, 0xC6, 0xFF, 0xC6, 0xFF, 0xC6, 0xFF, 0xDE
        FF DE
   0552 FF CC FF 7A FF C6   260 	.db	0xFF, 0xCC, 0xFF, 0x7A, 0xFF, 0xC6, 0xFF, 0xC6
        FF C6
   055A FF C6 FF C6 FF C6   261 	.db	0xFF, 0xC6, 0xFF, 0xC6, 0xFF, 0xC6, 0xFF, 0xC6
        FF C6
   0562 FF C6 FF 7C FF 7E   262 	.db	0xFF, 0xC6, 0xFF, 0x7C, 0xFF, 0x7E, 0xFF, 0x18
        FF 18
   056A FF 18 FF 18 FF 18   263 	.db	0xFF, 0x18, 0xFF, 0x18, 0xFF, 0x18, 0xFF, 0x18
        FF 18
   0572 FF 18 FF 7E         264 	.db	0xFF, 0x18, 0xFF, 0x7E
   0576 00                  265 	.db	0
                            266 ;	main.c 25
                            267 ;	main.c 84
                            268 ;	genArrayInit
                            269 ; _saveRegsForCall: sendSetSize: 0 deInUse: 0 bcInUse: 0 deSending: 0
   0577 21 90 05            270 	ld	hl,#_open_screen
   057A CD 00 00            271 	call	__initrleblock
   057D 03                  272 	.db	3
   057E 05 0C 0D            273 	.db	0x05, 0x0C, 0x0D
   0581 F4 05               274 	.db	-12,0x05
   0583 04                  275 	.db	4
   0584 2E 30 36 38         276 	.db	0x2E, 0x30, 0x36, 0x38
   0588 EB 05               277 	.db	-21,0x05
   058A 02                  278 	.db	2
   058B 0C 0D               279 	.db	0x0C, 0x0D
   058D FB 05               280 	.db	-5,0x05
   058F 04                  281 	.db	4
   0590 2F 31 37 39         282 	.db	0x2F, 0x31, 0x37, 0x39
   0594 EC 05               283 	.db	-20,0x05
   0596 01                  284 	.db	1
   0597 11                  285 	.db	0x11
   0598 F9 05               286 	.db	-7,0x05
   059A 04                  287 	.db	4
   059B 32 34 3A 3C         288 	.db	0x32, 0x34, 0x3A, 0x3C
   059F F6 05               289 	.db	-10,0x05
   05A1 05                  290 	.db	5
   05A2 0C 0D 05 05 25      291 	.db	0x0C, 0x0D, 0x05, 0x05, 0x25
   05A7 FB 22               292 	.db	-5,0x22
   05A9 01                  293 	.db	1
   05AA 10                  294 	.db	0x10
   05AB FB 22               295 	.db	-5,0x22
   05AD 08                  296 	.db	8
   05AE 26 05 33 35 3B 3D   297 	.db	0x26, 0x05, 0x33, 0x35, 0x3B, 0x3D, 0x0C, 0x0D
        0C 0D
   05B6 F4 05               298 	.db	-12,0x05
   05B8 01                  299 	.db	1
   05B9 21                  300 	.db	0x21
   05BA FB 05               301 	.db	-5,0x05
   05BC 01                  302 	.db	1
   05BD 10                  303 	.db	0x10
   05BE FB 05               304 	.db	-5,0x05
   05C0 05                  305 	.db	5
   05C1 21 05 25 22 26      306 	.db	0x21, 0x05, 0x25, 0x22, 0x26
   05C6 FA 05               307 	.db	-6,0x05
   05C8 02                  308 	.db	2
   05C9 0C 0D               309 	.db	0x0C, 0x0D
   05CB F9 05               310 	.db	-7,0x05
   05CD 01                  311 	.db	1
   05CE 21                  312 	.db	0x21
   05CF FB 05               313 	.db	-5,0x05
   05D1 01                  314 	.db	1
   05D2 10                  315 	.db	0x10
   05D3 FB 05               316 	.db	-5,0x05
   05D5 0D                  317 	.db	13
   05D6 21 05 2D 06 20 05   318 	.db	0x21, 0x05, 0x2D, 0x06, 0x20, 0x05, 0x05, 0x05
        05 05
   05DE 4C 4D 4E 4F 4D      319 	.db	0x4C, 0x4D, 0x4E, 0x4F, 0x4D
   05E3 F9 05               320 	.db	-7,0x05
   05E5 01                  321 	.db	1
   05E6 21                  322 	.db	0x21
   05E7 FB 05               323 	.db	-5,0x05
   05E9 1B                  324 	.db	27
   05EA 10 05 05 0C 0D 27   325 	.db	0x10, 0x05, 0x05, 0x0C, 0x0D, 0x27, 0x29, 0x05
        29 05
   05F2 2D 06 20 05 05 05   326 	.db	0x2D, 0x06, 0x20, 0x05, 0x05, 0x05, 0x51, 0x52
        51 52
   05FA 53 05 54 4E 55 52   327 	.db	0x53, 0x05, 0x54, 0x4E, 0x55, 0x52, 0x05, 0x05
        05 05
   0602 05 27 29            328 	.db	0x05, 0x27, 0x29
   0605 FB 05               329 	.db	-5,0x05
   0607 14                  330 	.db	20
   0608 10 05 05 05 05 28   331 	.db	0x10, 0x05, 0x05, 0x05, 0x05, 0x28, 0x2A, 0x05
        2A 05
   0610 2D 06 20 05 05 05   332 	.db	0x2D, 0x06, 0x20, 0x05, 0x05, 0x05, 0x56, 0x57
        56 57
   0618 58 4D 18 19         333 	.db	0x58, 0x4D, 0x18, 0x19
   061C FB 05               334 	.db	-5,0x05
   061E 02                  335 	.db	2
   061F 28 2A               336 	.db	0x28, 0x2A
   0621 FB 05               337 	.db	-5,0x05
   0623 0B                  338 	.db	11
   0624 10 05 05 05 05 2B   339 	.db	0x10, 0x05, 0x05, 0x05, 0x05, 0x2B, 0x2C, 0x05
        2C 05
   062C 2D 06 20            340 	.db	0x2D, 0x06, 0x20
   062F FA 05               341 	.db	-6,0x05
   0631 10                  342 	.db	16
   0632 18 19 18 19 05 05   343 	.db	0x18, 0x19, 0x18, 0x19, 0x05, 0x05, 0x05, 0x05
        05 05
   063A 2B 2C 05 05 05 0C   344 	.db	0x2B, 0x2C, 0x05, 0x05, 0x05, 0x0C, 0x0D, 0x10
        0D 10
   0642 F9 05               345 	.db	-7,0x05
   0644 03                  346 	.db	3
   0645 2D 06 20            347 	.db	0x2D, 0x06, 0x20
   0648 EB 05               348 	.db	-21,0x05
   064A 01                  349 	.db	1
   064B 10                  350 	.db	0x10
   064C F9 05               351 	.db	-7,0x05
   064E 03                  352 	.db	3
   064F 2D 06 20            353 	.db	0x2D, 0x06, 0x20
   0652 EB 05               354 	.db	-21,0x05
   0654 01                  355 	.db	1
   0655 10                  356 	.db	0x10
   0656 F9 05               357 	.db	-7,0x05
   0658 03                  358 	.db	3
   0659 2D 06 20            359 	.db	0x2D, 0x06, 0x20
   065C EB 05               360 	.db	-21,0x05
   065E 01                  361 	.db	1
   065F 10                  362 	.db	0x10
   0660 F9 05               363 	.db	-7,0x05
   0662 03                  364 	.db	3
   0663 2D 06 20            365 	.db	0x2D, 0x06, 0x20
   0666 EF 05               366 	.db	-17,0x05
   0668 05                  367 	.db	5
   0669 14 16 05 05 10      368 	.db	0x14, 0x16, 0x05, 0x05, 0x10
   066E FB 05               369 	.db	-5,0x05
   0670 1B                  370 	.db	27
   0671 42 44 49 4B 4A 44   371 	.db	0x42, 0x44, 0x49, 0x4B, 0x4A, 0x44, 0x45, 0x05
        45 05
   0679 05 14 16 05 14 16   372 	.db	0x05, 0x14, 0x16, 0x05, 0x14, 0x16, 0x05, 0x05
        05 05
   0681 3E 40 05 05 05 05   373 	.db	0x3E, 0x40, 0x05, 0x05, 0x05, 0x05, 0x15, 0x17
        15 17
   0689 05 05 10            374 	.db	0x05, 0x05, 0x10
   068C FB 05               375 	.db	-5,0x05
   068E 01                  376 	.db	1
   068F 43                  377 	.db	0x43
   0690 FB 06               378 	.db	-5,0x06
   0692 0D                  379 	.db	13
   0693 46 05 05 15 17 05   380 	.db	0x46, 0x05, 0x05, 0x15, 0x17, 0x05, 0x15, 0x17
        15 17
   069B 05 05 3F 41 05      381 	.db	0x05, 0x05, 0x3F, 0x41, 0x05
   06A0 E1 0E               382 	.db	-31,0x0E
   06A2 01                  383 	.db	1
   06A3 0F                  384 	.db	0x0F
   06A4 E0 07               385 	.db	-32,0x07
   06A6 02                  386 	.db	2
   06A7 05 07               387 	.db	0x05, 0x07
   06A9 F8 05               388 	.db	-8,0x05
   06AB 02                  389 	.db	2
   06AC 1D 1C               390 	.db	0x1D, 0x1C
   06AE EE 05               391 	.db	-18,0x05
   06B0 0A                  392 	.db	10
   06B1 07 05 05 07 05 05   393 	.db	0x07, 0x05, 0x05, 0x07, 0x05, 0x05, 0x05, 0x12
        05 12
   06B9 05 12               394 	.db	0x05, 0x12
   06BB F8 05               395 	.db	-8,0x05
   06BD 01                  396 	.db	1
   06BE 12                  397 	.db	0x12
   06BF F9 05               398 	.db	-7,0x05
   06C1 0C                  399 	.db	12
   06C2 1A 1B 05 05 05 05   400 	.db	0x1A, 0x1B, 0x05, 0x05, 0x05, 0x05, 0x07, 0x05
        07 05
   06CA 05 07 07 1B         401 	.db	0x05, 0x07, 0x07, 0x1B
   06CE F7 05               402 	.db	-9,0x05
   06D0 01                  403 	.db	1
   06D1 12                  404 	.db	0x12
   06D2 F9 05               405 	.db	-7,0x05
   06D4 15                  406 	.db	21
   06D5 12 05 05 1D 1C 05   407 	.db	0x12, 0x05, 0x05, 0x1D, 0x1C, 0x05, 0x05, 0x05
        05 05
   06DD 07 07 05 05 05 07   408 	.db	0x07, 0x07, 0x05, 0x05, 0x05, 0x07, 0x1C, 0x05
        1C 05
   06E5 05 05 12 05 12      409 	.db	0x05, 0x05, 0x12, 0x05, 0x12
   06EA F8 05               410 	.db	-8,0x05
   06EC 02                  411 	.db	2
   06ED 1A 1B               412 	.db	0x1A, 0x1B
   06EF F9 05               413 	.db	-7,0x05
   06F1 0B                  414 	.db	11
   06F2 12 05 07 05 05 1F   415 	.db	0x12, 0x05, 0x07, 0x05, 0x05, 0x1F, 0x1F, 0x07
        1F 07
   06FA 05 05 12            416 	.db	0x05, 0x05, 0x12
   06FD FA 05               417 	.db	-6,0x05
   06FF 18                  418 	.db	24
   0700 12 05 12 05 12 05   419 	.db	0x12, 0x05, 0x12, 0x05, 0x12, 0x05, 0x1D, 0x1C
        1D 1C
   0708 05 12 05 12 05 12   420 	.db	0x05, 0x12, 0x05, 0x12, 0x05, 0x12, 0x05, 0x05
        05 05
   0710 05 07 1F 1F 06 06   421 	.db	0x05, 0x07, 0x1F, 0x1F, 0x06, 0x06, 0x07, 0x07
        07 07
   0718 E9 05               422 	.db	-23,0x05
   071A 03                  423 	.db	3
   071B 1A 07 07            424 	.db	0x1A, 0x07, 0x07
   071E FB 06               425 	.db	-5,0x06
   0720 26                  426 	.db	38
   0721 07 05 05 05 1A 1B   427 	.db	0x07, 0x05, 0x05, 0x05, 0x1A, 0x1B, 0x05, 0x05
        05 05
   0729 12 05 12 05 12 05   428 	.db	0x12, 0x05, 0x12, 0x05, 0x12, 0x05, 0x12, 0x05
        12 05
   0731 12 05 1A 1B 05 05   429 	.db	0x12, 0x05, 0x1A, 0x1B, 0x05, 0x05, 0x05, 0x05
        05 05
   0739 1D 07 06 1E 1E 09   430 	.db	0x1D, 0x07, 0x06, 0x1E, 0x1E, 0x09, 0x08, 0x0A
        08 0A
   0741 07 05 05 05 1D 1C   431 	.db	0x07, 0x05, 0x05, 0x05, 0x1D, 0x1C
   0747 F4 05               432 	.db	-12,0x05
   0749 02                  433 	.db	2
   074A 1D 1C               434 	.db	0x1D, 0x1C
   074C FB 05               435 	.db	-5,0x05
   074E 08                  436 	.db	8
   074F 07 06 06 06 1E 1E   437 	.db	0x07, 0x06, 0x06, 0x06, 0x1E, 0x1E, 0x1E, 0x0B
        1E 0B
   0757 E8 1F               438 	.db	-24,0x1F
   0759 04                  439 	.db	4
   075A 0B 1E 1E 1E         440 	.db	0x0B, 0x1E, 0x1E, 0x1E
   075E C6 06               441 	.db	-58,0x06
   0760 04                  442 	.db	4
   0761 1E 1E 1E 1E         443 	.db	0x1E, 0x1E, 0x1E, 0x1E
   0765 FA 06               444 	.db	-6,0x06
   0767 07                  445 	.db	7
   0768 1E 1E 0A 08 0A 1E   446 	.db	0x1E, 0x1E, 0x0A, 0x08, 0x0A, 0x1E, 0x1E
        1E
   076F D9 06               447 	.db	-39,0x06
   0771 0B                  448 	.db	11
   0772 1E 1E 0A 08 1E 09   449 	.db	0x1E, 0x1E, 0x0A, 0x08, 0x1E, 0x09, 0x08, 0x08
        08 08
   077A 0A 1E 1E            450 	.db	0x0A, 0x1E, 0x1E
   077D D3 06               451 	.db	-45,0x06
   077F 09                  452 	.db	9
   0780 1E 1E 1E 1E 09 08   453 	.db	0x1E, 0x1E, 0x1E, 0x1E, 0x09, 0x08, 0x0A, 0x1E
        0A 1E
   0788 1E                  454 	.db	0x1E
   0789 F3 06               455 	.db	-13,0x06
   078B 00                  456 	.db	0
                            457 ;	main.c 16
                            458 ;	genAssign
                            459 ;	AOP_HL for _arrow_x
   078C 21 90 09            460 	ld	hl,#_arrow_x
   078F 36 48               461 	ld	(hl),#0x48
                            462 ;	main.c 17
                            463 ;	genAssign
                            464 ;	AOP_HL for _arrow_y
   0791 21 91 09            465 	ld	hl,#_arrow_y
   0794 36 38               466 	ld	(hl),#0x38
                            467 ;	main.c 19
                            468 ;	genAssign
                            469 ;	AOP_HL for _loc
   0796 21 92 09            470 	ld	hl,#_loc
   0799 36 00               471 	ld	(hl),#0x00
                            472 ;--------------------------------------------------------
                            473 ; Home
                            474 ;--------------------------------------------------------
                            475 	.area _HOME
                            476 	.area _CODE
                            477 ;--------------------------------------------------------
                            478 ; code
                            479 ;--------------------------------------------------------
                            480 	.area _CODE
                            481 ;	main.c 22
                            482 ;	genLabel
                            483 ;	genFunction
                            484 ;	---------------------------------
                            485 ; Function main
                            486 ; ---------------------------------
   0000                     487 ___main_start:
   0000                     488 _main:
                            489 	
                            490 ;	main.c 24
                            491 ;	genCall
                            492 ; _saveRegsForCall: sendSetSize: 0 deInUse: 0 bcInUse: 0 deSending: 0
   0000 CD A0 00            493 	call	_setup_sprite
                            494 ;	main.c 25
                            495 ;	genCall
                            496 ; _saveRegsForCall: sendSetSize: 0 deInUse: 0 bcInUse: 0 deSending: 0
   0003 CD FC 00            497 	call	_setup_bkg
                            498 ;	main.c 27
                            499 ;	genLabel
   0006                     500 00102$:
                            501 ;	main.c 29
                            502 ;	genCall
                            503 ; _saveRegsForCall: sendSetSize: 0 deInUse: 0 bcInUse: 0 deSending: 0
   0006 CD 10 00            504 	call	_toggle
                            505 ;	main.c 30
                            506 ;	genCall
                            507 ; _saveRegsForCall: sendSetSize: 0 deInUse: 0 bcInUse: 0 deSending: 0
   0009 CD 00 00            508 	call	_wait_vbl_done
                            509 ;	genGoto
   000C C3 06 00            510 	jp	00102$
                            511 ;	genLabel
   000F                     512 00104$:
                            513 ;	genEndFunction
                            514 	
   000F C9                  515 	ret
   0010                     516 ___main_end:
                            517 ;	main.c 34
                            518 ;	genLabel
                            519 ;	genFunction
                            520 ;	---------------------------------
                            521 ; Function toggle
                            522 ; ---------------------------------
   0010                     523 ___toggle_start:
   0010                     524 _toggle:
                            525 	
                            526 ;	main.c 36
                            527 ;	genIpush
                            528 ; _saveRegsForCall: sendSetSize: 0 deInUse: 0 bcInUse: 0 deSending: 0
   0010 21 64 00            529 	ld	hl,#0x0064
   0013 E5                  530 	push	hl
                            531 ;	genCall
   0014 CD 00 00            532 	call	_delay
   0017 E8 02               533 	lda	sp,2(sp)
                            534 ;	main.c 37
                            535 ;	genCall
                            536 ; _saveRegsForCall: sendSetSize: 0 deInUse: 0 bcInUse: 0 deSending: 0
   0019 CD 00 00            537 	call	_joypad
   001C 4B                  538 	ld	c,e
                            539 ;	genAnd
   001D 79                  540 	ld	a,c
   001E E6 08               541 	and	a,#0x08
   0020 20 03               542 	jr	nz,00115$
   0022 C3 5C 00            543 	jp	00104$
   0025                     544 00115$:
                            545 ;	main.c 39
                            546 ;	genCmpGt
                            547 ;	AOP_HL for _arrow_y
   0025 3E 40               548 	ld	a,#0x40
   0027 21 91 09            549 	ld	hl,#_arrow_y
   002A 96                  550 	sub	a,(hl)
   002B D2 43 00            551 	jp	nc,00102$
                            552 ;	main.c 41
                            553 ;	genAssign
                            554 ;	AOP_HL for _arrow_y
   002E 36 30               555 	ld	(hl),#0x30
                            556 ;	main.c 42
                            557 ;	genIpush
                            558 ; _saveRegsForCall: sendSetSize: 0 deInUse: 0 bcInUse: 0 deSending: 0
   0030 3E 30               559 	ld	a,#0x30
   0032 F5                  560 	push	af
   0033 33                  561 	inc	sp
                            562 ;	genIpush
                            563 ;	AOP_HL for _arrow_x
   0034 21 90 09            564 	ld	hl,#_arrow_x
   0037 7E                  565 	ld	a,(hl)
   0038 F5                  566 	push	af
   0039 33                  567 	inc	sp
                            568 ;	genIpush
   003A 3E 00               569 	ld	a,#0x00
   003C F5                  570 	push	af
   003D 33                  571 	inc	sp
                            572 ;	genCall
   003E CD 00 00            573 	call	_move_sprite
   0041 E8 03               574 	lda	sp,3(sp)
                            575 ;	genLabel
   0043                     576 00102$:
                            577 ;	main.c 44
                            578 ;	genPlus
                            579 ;	AOP_HL for _arrow_y
                            580 ;	genPlusIncr
                            581 ;	Can't optimise plus by inc, falling back to the normal way
   0043 21 91 09            582 	ld	hl,#_arrow_y
   0046 7E                  583 	ld	a,(hl)
   0047 C6 08               584 	add	a,#0x08
                            585 ;	main.c 45
                            586 ;	genIpush
                            587 ; _saveRegsForCall: sendSetSize: 0 deInUse: 0 bcInUse: 0 deSending: 0
                            588 ;	AOP_HL for _arrow_y
   0049 77                  589 	ld      (hl),a
   004A 7F                  590 	ld      a,a
   004B F5                  591 	push	af
   004C 33                  592 	inc	sp
                            593 ;	genIpush
                            594 ;	AOP_HL for _arrow_x
   004D 21 90 09            595 	ld	hl,#_arrow_x
   0050 7E                  596 	ld	a,(hl)
   0051 F5                  597 	push	af
   0052 33                  598 	inc	sp
                            599 ;	genIpush
   0053 3E 00               600 	ld	a,#0x00
   0055 F5                  601 	push	af
   0056 33                  602 	inc	sp
                            603 ;	genCall
   0057 CD 00 00            604 	call	_move_sprite
   005A E8 03               605 	lda	sp,3(sp)
                            606 ;	genLabel
   005C                     607 00104$:
                            608 ;	main.c 48
                            609 ;	genCall
                            610 ; _saveRegsForCall: sendSetSize: 0 deInUse: 0 bcInUse: 0 deSending: 0
   005C CD 00 00            611 	call	_joypad
   005F 4B                  612 	ld	c,e
                            613 ;	genAnd
   0060 79                  614 	ld	a,c
   0061 E6 04               615 	and	a,#0x04
   0063 20 03               616 	jr	nz,00116$
   0065 C3 9F 00            617 	jp	00109$
   0068                     618 00116$:
                            619 ;	main.c 50
                            620 ;	genCmpLt
                            621 ;	AOP_HL for _arrow_y
   0068 21 91 09            622 	ld	hl,#_arrow_y
   006B 7E                  623 	ld	a,(hl)
   006C FE 40               624 	cp	#0x40
   006E D2 86 00            625 	jp	nc,00106$
                            626 ;	main.c 52
                            627 ;	genAssign
                            628 ;	AOP_HL for _arrow_y
   0071 36 50               629 	ld	(hl),#0x50
                            630 ;	main.c 53
                            631 ;	genIpush
                            632 ; _saveRegsForCall: sendSetSize: 0 deInUse: 0 bcInUse: 0 deSending: 0
   0073 3E 50               633 	ld	a,#0x50
   0075 F5                  634 	push	af
   0076 33                  635 	inc	sp
                            636 ;	genIpush
                            637 ;	AOP_HL for _arrow_x
   0077 21 90 09            638 	ld	hl,#_arrow_x
   007A 7E                  639 	ld	a,(hl)
   007B F5                  640 	push	af
   007C 33                  641 	inc	sp
                            642 ;	genIpush
   007D 3E 00               643 	ld	a,#0x00
   007F F5                  644 	push	af
   0080 33                  645 	inc	sp
                            646 ;	genCall
   0081 CD 00 00            647 	call	_move_sprite
   0084 E8 03               648 	lda	sp,3(sp)
                            649 ;	genLabel
   0086                     650 00106$:
                            651 ;	main.c 55
                            652 ;	genMinus
                            653 ;	AOP_HL for _arrow_y
   0086 21 91 09            654 	ld	hl,#_arrow_y
   0089 7E                  655 	ld	a,(hl)
   008A C6 F8               656 	add	a,#0xF8
                            657 ;	main.c 56
                            658 ;	genIpush
                            659 ; _saveRegsForCall: sendSetSize: 0 deInUse: 0 bcInUse: 0 deSending: 0
                            660 ;	AOP_HL for _arrow_y
   008C 77                  661 	ld      (hl),a
   008D 7F                  662 	ld      a,a
   008E F5                  663 	push	af
   008F 33                  664 	inc	sp
                            665 ;	genIpush
                            666 ;	AOP_HL for _arrow_x
   0090 21 90 09            667 	ld	hl,#_arrow_x
   0093 7E                  668 	ld	a,(hl)
   0094 F5                  669 	push	af
   0095 33                  670 	inc	sp
                            671 ;	genIpush
   0096 3E 00               672 	ld	a,#0x00
   0098 F5                  673 	push	af
   0099 33                  674 	inc	sp
                            675 ;	genCall
   009A CD 00 00            676 	call	_move_sprite
   009D E8 03               677 	lda	sp,3(sp)
                            678 ;	genLabel
   009F                     679 00109$:
                            680 ;	genEndFunction
                            681 	
   009F C9                  682 	ret
   00A0                     683 ___toggle_end:
                            684 ;	main.c 60
                            685 ;	genLabel
                            686 ;	genFunction
                            687 ;	---------------------------------
                            688 ; Function setup_sprite
                            689 ; ---------------------------------
   00A0                     690 ___setup_sprite_start:
   00A0                     691 _setup_sprite:
   00A0 E8 FD               692 	lda	sp,-3(sp)
                            693 ;	main.c 63
                            694 ;	genAssign
   00A2 01 40 FF            695 	ld	bc,#0xFF40
                            696 ;	genAssign
                            697 ;	AOP_STK for _setup_sprite_sloc0_1_0
   00A5 F8 01               698 	lda	hl,1(sp)
   00A7 36 40               699 	ld	(hl),#0x40
   00A9 23                  700 	inc	hl
   00AA 36 FF               701 	ld	(hl),#0xFF
                            702 ;	genPointerGet
                            703 ;	AOP_STK for _setup_sprite_sloc0_1_0
                            704 ;	AOP_STK for _setup_sprite_sloc1_1_0
   00AC 2B                  705 	dec	hl
   00AD 5E                  706 	ld	e,(hl)
   00AE 23                  707 	inc	hl
   00AF 56                  708 	ld	d,(hl)
   00B0 1A                  709 	ld	a,(de)
   00B1 2B                  710 	dec	hl
   00B2 2B                  711 	dec	hl
                            712 ;	genAnd
                            713 ;	AOP_STK for _setup_sprite_sloc1_1_0
   00B3 77                  714 	ld      (hl),a
   00B4 7F                  715 	ld      a,a
   00B5 E6 FB               716 	and	a,#0xFB
                            717 ;	genAssign (pointer)
   00B7 02                  718 	ld	(bc),a
                            719 ;	main.c 64
                            720 ;	genIpush
                            721 ; _saveRegsForCall: sendSetSize: 0 deInUse: 0 bcInUse: 0 deSending: 0
   00B8 21 00 00            722 	ld	hl,#_ship_tiles
   00BB E5                  723 	push	hl
                            724 ;	genIpush
   00BC 21 00 59            725 	ld	hl,#0x5900
   00BF E5                  726 	push	hl
                            727 ;	genCall
   00C0 CD 00 00            728 	call	_set_sprite_data
   00C3 E8 04               729 	lda	sp,4(sp)
                            730 ;	main.c 66
                            731 ;	genIpush
                            732 ; _saveRegsForCall: sendSetSize: 0 deInUse: 0 bcInUse: 0 deSending: 0
   00C5 21 00 50            733 	ld	hl,#0x5000
   00C8 E5                  734 	push	hl
                            735 ;	genCall
   00C9 CD 00 00            736 	call	_set_sprite_tile
   00CC E8 02               737 	lda	sp,2(sp)
                            738 ;	main.c 67
                            739 ;	genIpush
                            740 ; _saveRegsForCall: sendSetSize: 0 deInUse: 0 bcInUse: 0 deSending: 0
                            741 ;	AOP_HL for _arrow_y
   00CE 21 91 09            742 	ld	hl,#_arrow_y
   00D1 7E                  743 	ld	a,(hl)
   00D2 F5                  744 	push	af
   00D3 33                  745 	inc	sp
                            746 ;	genIpush
                            747 ;	AOP_HL for _arrow_x
   00D4 21 90 09            748 	ld	hl,#_arrow_x
   00D7 7E                  749 	ld	a,(hl)
   00D8 F5                  750 	push	af
   00D9 33                  751 	inc	sp
                            752 ;	genIpush
   00DA 3E 00               753 	ld	a,#0x00
   00DC F5                  754 	push	af
   00DD 33                  755 	inc	sp
                            756 ;	genCall
   00DE CD 00 00            757 	call	_move_sprite
   00E1 E8 03               758 	lda	sp,3(sp)
                            759 ;	main.c 69
                            760 ;	genAssign
   00E3 01 40 FF            761 	ld	bc,#0xFF40
                            762 ;	genAssign
                            763 ;	AOP_STK for _setup_sprite_sloc0_1_0
   00E6 F8 01               764 	lda	hl,1(sp)
   00E8 36 40               765 	ld	(hl),#0x40
   00EA 23                  766 	inc	hl
   00EB 36 FF               767 	ld	(hl),#0xFF
                            768 ;	genPointerGet
                            769 ;	AOP_STK for _setup_sprite_sloc0_1_0
                            770 ;	AOP_STK for _setup_sprite_sloc1_1_0
   00ED 2B                  771 	dec	hl
   00EE 5E                  772 	ld	e,(hl)
   00EF 23                  773 	inc	hl
   00F0 56                  774 	ld	d,(hl)
   00F1 1A                  775 	ld	a,(de)
   00F2 2B                  776 	dec	hl
   00F3 2B                  777 	dec	hl
                            778 ;	genOr
                            779 ;	AOP_STK for _setup_sprite_sloc1_1_0
   00F4 77                  780 	ld      (hl),a
   00F5 7F                  781 	ld      a,a
   00F6 F6 02               782 	or	a,#0x02
                            783 ;	genAssign (pointer)
   00F8 02                  784 	ld	(bc),a
                            785 ;	genLabel
   00F9                     786 00101$:
                            787 ;	genEndFunction
   00F9 E8 03               788 	lda	sp,3(sp)
   00FB C9                  789 	ret
   00FC                     790 ___setup_sprite_end:
                            791 ;	main.c 72
                            792 ;	genLabel
                            793 ;	genFunction
                            794 ;	---------------------------------
                            795 ; Function setup_bkg
                            796 ; ---------------------------------
   00FC                     797 ___setup_bkg_start:
   00FC                     798 _setup_bkg:
   00FC E8 FD               799 	lda	sp,-3(sp)
                            800 ;	main.c 74
                            801 ;	genAssign
   00FE 01 40 FF            802 	ld	bc,#0xFF40
                            803 ;	genAssign
                            804 ;	AOP_STK for _setup_bkg_sloc0_1_0
   0101 F8 01               805 	lda	hl,1(sp)
   0103 36 40               806 	ld	(hl),#0x40
   0105 23                  807 	inc	hl
   0106 36 FF               808 	ld	(hl),#0xFF
                            809 ;	genPointerGet
                            810 ;	AOP_STK for _setup_bkg_sloc0_1_0
                            811 ;	AOP_STK for _setup_bkg_sloc1_1_0
   0108 2B                  812 	dec	hl
   0109 5E                  813 	ld	e,(hl)
   010A 23                  814 	inc	hl
   010B 56                  815 	ld	d,(hl)
   010C 1A                  816 	ld	a,(de)
   010D 2B                  817 	dec	hl
   010E 2B                  818 	dec	hl
                            819 ;	genAnd
                            820 ;	AOP_STK for _setup_bkg_sloc1_1_0
   010F 77                  821 	ld      (hl),a
   0110 7F                  822 	ld      a,a
   0111 E6 DF               823 	and	a,#0xDF
                            824 ;	genAssign (pointer)
   0113 02                  825 	ld	(bc),a
                            826 ;	main.c 75
                            827 ;	genAssign
   0114 01 40 FF            828 	ld	bc,#0xFF40
                            829 ;	genAssign
                            830 ;	AOP_STK for _setup_bkg_sloc0_1_0
   0117 23                  831 	inc	hl
   0118 36 40               832 	ld	(hl),#0x40
   011A 23                  833 	inc	hl
   011B 36 FF               834 	ld	(hl),#0xFF
                            835 ;	genPointerGet
                            836 ;	AOP_STK for _setup_bkg_sloc0_1_0
                            837 ;	AOP_STK for _setup_bkg_sloc1_1_0
   011D 2B                  838 	dec	hl
   011E 5E                  839 	ld	e,(hl)
   011F 23                  840 	inc	hl
   0120 56                  841 	ld	d,(hl)
   0121 1A                  842 	ld	a,(de)
   0122 2B                  843 	dec	hl
   0123 2B                  844 	dec	hl
                            845 ;	genOr
                            846 ;	AOP_STK for _setup_bkg_sloc1_1_0
   0124 77                  847 	ld      (hl),a
   0125 7F                  848 	ld      a,a
   0126 F6 01               849 	or	a,#0x01
                            850 ;	genAssign (pointer)
   0128 02                  851 	ld	(bc),a
                            852 ;	main.c 78
                            853 ;	genIpush
                            854 ; _saveRegsForCall: sendSetSize: 0 deInUse: 0 bcInUse: 0 deSending: 0
   0129 21 00 00            855 	ld	hl,#_ship_tiles
   012C E5                  856 	push	hl
                            857 ;	genIpush
   012D 21 00 59            858 	ld	hl,#0x5900
   0130 E5                  859 	push	hl
                            860 ;	genCall
   0131 CD 00 00            861 	call	_set_bkg_data
   0134 E8 04               862 	lda	sp,4(sp)
                            863 ;	main.c 79
                            864 ;	genIpush
                            865 ; _saveRegsForCall: sendSetSize: 0 deInUse: 0 bcInUse: 0 deSending: 0
   0136 21 90 05            866 	ld	hl,#_open_screen
   0139 E5                  867 	push	hl
                            868 ;	genIpush
   013A 21 20 20            869 	ld	hl,#0x2020
   013D E5                  870 	push	hl
                            871 ;	genIpush
   013E 21 00 00            872 	ld	hl,#0x0000
   0141 E5                  873 	push	hl
                            874 ;	genCall
   0142 CD 00 00            875 	call	_set_bkg_tiles
   0145 E8 06               876 	lda	sp,6(sp)
                            877 ;	main.c 80
                            878 ;	genIpush
                            879 ; _saveRegsForCall: sendSetSize: 0 deInUse: 0 bcInUse: 0 deSending: 0
   0147 21 60 00            880 	ld	hl,#0x0060
   014A E5                  881 	push	hl
                            882 ;	genCall
   014B CD 00 00            883 	call	_scroll_bkg
   014E E8 02               884 	lda	sp,2(sp)
                            885 ;	main.c 82
                            886 ;	genAssign
   0150 01 40 FF            887 	ld	bc,#0xFF40
                            888 ;	genAssign
                            889 ;	AOP_STK for _setup_bkg_sloc0_1_0
   0153 F8 01               890 	lda	hl,1(sp)
   0155 36 40               891 	ld	(hl),#0x40
   0157 23                  892 	inc	hl
   0158 36 FF               893 	ld	(hl),#0xFF
                            894 ;	genPointerGet
                            895 ;	AOP_STK for _setup_bkg_sloc0_1_0
                            896 ;	AOP_STK for _setup_bkg_sloc1_1_0
   015A 2B                  897 	dec	hl
   015B 5E                  898 	ld	e,(hl)
   015C 23                  899 	inc	hl
   015D 56                  900 	ld	d,(hl)
   015E 1A                  901 	ld	a,(de)
   015F 2B                  902 	dec	hl
   0160 2B                  903 	dec	hl
                            904 ;	genOr
                            905 ;	AOP_STK for _setup_bkg_sloc1_1_0
   0161 77                  906 	ld      (hl),a
   0162 7F                  907 	ld      a,a
   0163 F6 80               908 	or	a,#0x80
                            909 ;	genAssign (pointer)
   0165 02                  910 	ld	(bc),a
                            911 ;	genLabel
   0166                     912 00101$:
                            913 ;	genEndFunction
   0166 E8 03               914 	lda	sp,3(sp)
   0168 C9                  915 	ret
   0169                     916 ___setup_bkg_end:
                            917 	.area _CODE
ASxxxx Assembler V01.75  (GameBoy Z80-like CPU), page 1.

Symbol Table

  0 ___main_end                        0010 R
  0 ___main_start                      0000 R
  0 ___setup_bkg_end                   0169 R
  0 ___setup_bkg_start                 00FC R
  0 ___setup_sprite_end                00FC R
  0 ___setup_sprite_start              00A0 R
  0 ___toggle_end                      00A0 R
  0 ___toggle_start                    0010 R
    __initrleblock                     **** GX
  1 _arrow_x                           0990 GR
  1 _arrow_y                           0991 GR
    _delay                             **** GX
    _joypad                            **** GX
  1 _loc                               0992 GR
  0 _main                              0000 GR
    _move_sprite                       **** GX
  1 _open_screen                       0590 GR
    _scroll_bkg                        **** GX
    _set_bkg_data                      **** GX
    _set_bkg_tiles                     **** GX
    _set_sprite_data                   **** GX
    _set_sprite_tile                   **** GX
  0 _setup_bkg                         00FC GR
  0 _setup_sprite                      00A0 GR
  1 _ship_tiles                        0000 GR
  0 _toggle                            0010 GR
    _wait_vbl_done                     **** GX

ASxxxx Assembler V01.75  (GameBoy Z80-like CPU), page 2.

Area Table

   0 _CODE                              size  169   flags 0
   1 _DATA                              size  993   flags 0
   2 _OVERLAY                           size    0   flags 0
   3 _ISEG                              size    0   flags 0
   4 _BSEG                              size    0   flags 0
   5 _XSEG                              size    0   flags 0
   6 _GSINIT                            size  79B   flags 0
   7 _GSFINAL                           size    0   flags 0
   8 _HOME                              size    0   flags 0
